ARM GAS  C:\Users\RECEPC~1\AppData\Local\Temp\cckIP3O9.s 			page 1


   1              		.syntax unified
   2              		.cpu cortex-m3
   3              		.fpu softvfp
   4              		.eabi_attribute 20, 1
   5              		.eabi_attribute 21, 1
   6              		.eabi_attribute 23, 3
   7              		.eabi_attribute 24, 1
   8              		.eabi_attribute 25, 1
   9              		.eabi_attribute 26, 1
  10              		.eabi_attribute 30, 6
  11              		.eabi_attribute 34, 1
  12              		.eabi_attribute 18, 4
  13              		.thumb
  14              		.file	"main.c"
  15              		.text
  16              	.Ltext0:
  17              		.cfi_sections	.debug_frame
  18              		.comm	count_teclas1,1,1
  19              		.comm	comas1,1,1
  20              		.comm	comas2,1,1
  21              		.comm	id_coma1,1,1
  22              		.comm	id_teclado1,1,1
  23              		.comm	count_teclas2,1,1
  24              		.comm	id_coma2,1,1
  25              		.comm	id_teclado2,1,1
  26              		.comm	posx1,2,2
  27              		.comm	posy1,2,2
  28              		.comm	sizeletra1,2,2
  29              		.comm	posx2,2,2
  30              		.comm	posy2,2,2
  31              		.comm	sizeletra2,2,2
  32              		.comm	teclas1,1,1
  33              		.comm	teclas2,1,1
  34              		.comm	flujo_LCD1,1,1
  35              		.comm	flujo_LCD2,1,1
  36              		.comm	Buffer_LCD1,30,4
  37              		.comm	Buffer_LCD2,30,4
  38              		.comm	count_protector,1,1
  39              		.comm	count_protector2,1,1
  40              		.comm	count_esperaBBB,1,1
  41              		.comm	count_esperaBBB2,1,1
  42              		.comm	password_lcd,9,4
  43              		.comm	imagen_grado,2,2
  44              		.comm	prox_caso,8,4
  45              		.comm	bloqueo_LCD,3,4
  46              		.comm	id_estacion,5,4
  47              		.comm	id_venta,8,4
  48              		.comm	trama_totales,200,4
  49              		.comm	ppux10,1,1
  50              		.comm	nombre_pro1,17,4
  51              		.comm	nombre_pro2,17,4
  52              		.comm	nombre_pro3,17,4
  53              		.comm	version,4,4
  54              		.comm	lado1,93,4
  55              		.comm	lado2,93,4
  56              		.comm	nombre,33,4
  57              		.comm	nit,15,4
ARM GAS  C:\Users\RECEPC~1\AppData\Local\Temp\cckIP3O9.s 			page 2


  58              		.comm	telefono,20,4
  59              		.comm	direccion,33,4
  60              		.comm	lema1,32,4
  61              		.comm	lema2,32,4
  62              		.comm	id_logo,2,4
  63              		.comm	km,2,4
  64              		.comm	fecha,3,4
  65              		.comm	hora,2,4
  66              		.comm	rventa1,102,4
  67              		.comm	rventa2,102,4
  68              		.comm	ok_RF,1,1
  69              		.comm	ok_datosRF,1,1
  70              		.comm	rf_mod,200,4
  71              		.comm	buffer_i2c,64,4
  72              		.comm	crc_total,1,1
  73              		.comm	print1,2,4
  74              		.comm	print2,2,4
  75              		.global	letras
  76              		.data
  77              		.align	2
  78              		.type	letras, %object
  79              		.size	letras, 26
  80              	letras:
  81 0000 25       		.byte	37
  82 0001 42       		.byte	66
  83 0002 31       		.byte	49
  84 0003 27       		.byte	39
  85 0004 1D       		.byte	29
  86 0005 28       		.byte	40
  87 0006 29       		.byte	41
  88 0007 2A       		.byte	42
  89 0008 22       		.byte	34
  90 0009 2B       		.byte	43
  91 000a 2C       		.byte	44
  92 000b 2D       		.byte	45
  93 000c 35       		.byte	53
  94 000d 34       		.byte	52
  95 000e 23       		.byte	35
  96 000f 24       		.byte	36
  97 0010 1B       		.byte	27
  98 0011 1E       		.byte	30
  99 0012 26       		.byte	38
 100 0013 1F       		.byte	31
 101 0014 21       		.byte	33
 102 0015 32       		.byte	50
 103 0016 1C       		.byte	28
 104 0017 30       		.byte	48
 105 0018 20       		.byte	32
 106 0019 2F       		.byte	47
 107              		.global	clave_config
 108 001a 0000     		.align	2
 109              		.type	clave_config, %object
 110              		.size	clave_config, 5
 111              	clave_config:
 112 001c 30323431 		.ascii	"02412"
 112      32
 113              		.global	test
ARM GAS  C:\Users\RECEPC~1\AppData\Local\Temp\cckIP3O9.s 			page 3


 114 0021 000000   		.align	2
 115              		.type	test, %object
 116              		.size	test, 18
 117              	test:
 118 0024 54657374 		.ascii	"Test de Impresora\000"
 118      20646520 
 118      496D7072 
 118      65736F72 
 118      6100
 119              		.comm	num_decimal2,2,2
 120              		.comm	idaux,8,4
 121              		.comm	state_rf,1,1
 122              		.comm	timeout_autorizacion,2,2
 123              		.comm	estado_tanqueando,1,1
 124              		.comm	timeout_autorizacion2,2,2
 125              		.comm	estado_tanqueando2,1,1
 126              		.global	clave_local
 127 0036 0000     		.align	2
 128              		.type	clave_local, %object
 129              		.size	clave_local, 4
 130              	clave_local:
 131 0038 39       		.byte	57
 132 0039 36       		.byte	54
 133 003a 33       		.byte	51
 134 003b 31       		.byte	49
 135              		.comm	v_digitos_1,1,1
 136              		.global	ppuinicial
 137              		.bss
 138              		.type	ppuinicial, %object
 139              		.size	ppuinicial, 1
 140              	ppuinicial:
 141 0000 00       		.space	1
 142              		.comm	Producto,1,1
 143              		.comm	Productos,4,4
 144              		.global	diesel
 145              		.data
 146              		.type	diesel, %object
 147              		.size	diesel, 1
 148              	diesel:
 149 003c 01       		.byte	1
 150              		.global	corriente
 151              		.type	corriente, %object
 152              		.size	corriente, 1
 153              	corriente:
 154 003d 01       		.byte	1
 155              		.global	extra
 156              		.type	extra, %object
 157              		.size	extra, 1
 158              	extra:
 159 003e 01       		.byte	1
 160              		.global	supremo_diesel
 161              		.type	supremo_diesel, %object
 162              		.size	supremo_diesel, 1
 163              	supremo_diesel:
 164 003f 01       		.byte	1
 165              		.comm	status1LP,1,1
 166              		.comm	status2LP,1,1
ARM GAS  C:\Users\RECEPC~1\AppData\Local\Temp\cckIP3O9.s 			page 4


 167              		.comm	status1st,1,1
 168              		.comm	status2st,1,1
 169              		.global	Side1State
 170              		.type	Side1State, %object
 171              		.size	Side1State, 1
 172              	Side1State:
 173 0040 0A       		.byte	10
 174              		.global	Side2State
 175              		.type	Side2State, %object
 176              		.size	Side2State, 1
 177              	Side2State:
 178 0041 14       		.byte	20
 179              		.comm	sinIdentificacionL1,1,1
 180              		.comm	sinIdentificacionL2,1,1
 181              		.global	versionpantalla
 182 0042 0000     		.align	2
 183              		.type	versionpantalla, %object
 184              		.size	versionpantalla, 13
 185              	versionpantalla:
 186 0044 47       		.byte	71
 187 0045 52       		.byte	82
 188 0046 50       		.byte	80
 189 0047 37       		.byte	55
 190 0048 30       		.byte	48
 191 0049 30       		.byte	48
 192 004a 2D       		.byte	45
 193 004b 33       		.byte	51
 194 004c 47       		.byte	71
 195 004d 56       		.byte	86
 196 004e 32       		.byte	50
 197 004f 2E       		.byte	46
 198 0050 32       		.byte	50
 199 0051 000000   		.section	.text.init,"ax",%progbits
 200              		.align	2
 201              		.global	init
 202              		.thumb
 203              		.thumb_func
 204              		.type	init, %function
 205              	init:
 206              	.LFB63:
 207              		.file 1 ".\\main.c"
   1:.\main.c      **** /*
   2:.\main.c      **** ***************************************************************************************************
   3:.\main.c      **** *                                           GRP550M CODE2
   4:.\main.c      **** *
   5:.\main.c      **** *                             (c) Copyright 2016; Sistemas Insepet LTDA
   6:.\main.c      **** *
   7:.\main.c      **** *               All rights reserved.  Protected by international copyright laws.
   8:.\main.c      **** *               Knowledge of the source code may NOT be used to develop a similar product.
   9:.\main.c      **** *               Please help us continue to provide the Embedded community with the finest
  10:.\main.c      **** *               software available.  Your honesty is greatly appreciated.
  11:.\main.c      **** ***************************************************************************************************
  12:.\main.c      **** */
  13:.\main.c      **** 
  14:.\main.c      **** /*
  15:.\main.c      **** ***************************************************************************************************
  16:.\main.c      **** *
ARM GAS  C:\Users\RECEPC~1\AppData\Local\Temp\cckIP3O9.s 			page 5


  17:.\main.c      **** *                                               GRP550M CODE
  18:.\main.c      **** *
  19:.\main.c      **** *                                             CYPRESS PSoC5LP
  20:.\main.c      **** *                                                with the
  21:.\main.c      **** *                                            CY8C5969AXI-LP035
  22:.\main.c      **** *
  23:.\main.c      **** * Filename      : main.c
  24:.\main.c      **** * Version       : V2.00
  25:.\main.c      **** * Programmer(s) : 
  26:.\main.c      ****                   
  27:.\main.c      **** ***************************************************************************************************
  28:.\main.c      **** */
  29:.\main.c      **** 
  30:.\main.c      **** /*
  31:.\main.c      **** ***************************************************************************************************
  32:.\main.c      **** *                                             INCLUDE FILES
  33:.\main.c      **** ***************************************************************************************************
  34:.\main.c      **** */
  35:.\main.c      **** 
  36:.\main.c      **** #include <device.h>
  37:.\main.c      **** #include <math.h>
  38:.\main.c      **** #include <stdio.h>
  39:.\main.c      **** #include <stdlib.h>
  40:.\main.c      **** #include <string.h>
  41:.\main.c      **** #include "Protocolo.h"
  42:.\main.c      **** #include "VariablesG.h"
  43:.\main.c      **** #include "Print.h"
  44:.\main.c      **** #include "LCD.h"
  45:.\main.c      **** #include "ibutton.h"
  46:.\main.c      **** #include "i2c.h"
  47:.\main.c      **** 
  48:.\main.c      **** /*
  49:.\main.c      **** ***************************************************************************************************
  50:.\main.c      **** *                                             DECLARACION DE FUNCIONES
  51:.\main.c      **** ***************************************************************************************************
  52:.\main.c      **** */
  53:.\main.c      **** uint8 letras[26]={0x25,0x42,0x31,0x27,0x1D,0x28,0x29,0x2A,0x22,0x2B,0x2C,0x2D,0x35,0x34,0x23,0x24,0
  54:.\main.c      **** uint8 clave_config[5]="02412";
  55:.\main.c      **** uint8 test[18]="Test de Impresora";
  56:.\main.c      **** uint16 num_decimal2;
  57:.\main.c      **** CY_ISR(animacion);
  58:.\main.c      **** CY_ISR(animacion2);
  59:.\main.c      **** CY_ISR(modo_mux);
  60:.\main.c      **** uint8  idaux[8];
  61:.\main.c      **** uint8  state_rf;
  62:.\main.c      **** uint16 timeout_autorizacion;
  63:.\main.c      **** uint8  estado_tanqueando; 
  64:.\main.c      **** uint16 timeout_autorizacion2;
  65:.\main.c      **** uint8  estado_tanqueando2;
  66:.\main.c      **** uint8  clave_local[4]={'9','6','3','1'};
  67:.\main.c      **** uint8  v_digitos_1;
  68:.\main.c      **** uint8  ppuinicial=0;
  69:.\main.c      **** uint8  Producto;
  70:.\main.c      **** uint8  Productos[4];// el buffer es para guardar los tipos de combustible
  71:.\main.c      **** uint8  diesel=1,corriente=1,extra=1,supremo_diesel=1;
  72:.\main.c      **** uint8  status1LP,status2LP,status1st,status2st;
  73:.\main.c      **** uint8  Side1State=witeSide1,Side2State=witeSide2;
ARM GAS  C:\Users\RECEPC~1\AppData\Local\Temp\cckIP3O9.s 			page 6


  74:.\main.c      **** uint8  sinIdentificacionL1,sinIdentificacionL2;
  75:.\main.c      **** uint8  versionpantalla[13]={'G','R','P','7','0','0','-','3','G','V','2','.','2'};
  76:.\main.c      **** 
  77:.\main.c      **** /*
  78:.\main.c      **** ***************************************************************************************************
  79:.\main.c      **** *                                         init( void )
  80:.\main.c      **** *
  81:.\main.c      **** * Description : 
  82:.\main.c      **** *               
  83:.\main.c      **** *
  84:.\main.c      **** * Argument(s) : none
  85:.\main.c      **** *
  86:.\main.c      **** * Return(s)   : none
  87:.\main.c      **** *
  88:.\main.c      **** * Caller(s)   : 
  89:.\main.c      **** *
  90:.\main.c      **** * Note(s)     : none.
  91:.\main.c      **** ***************************************************************************************************
  92:.\main.c      **** */ 
  93:.\main.c      **** void init(void){
 208              		.loc 1 93 0
 209              		.cfi_startproc
 210              		@ args = 0, pretend = 0, frame = 8
 211              		@ frame_needed = 1, uses_anonymous_args = 0
 212 0000 90B5     		push	{r4, r7, lr}
 213              		.cfi_def_cfa_offset 12
 214              		.cfi_offset 4, -12
 215              		.cfi_offset 7, -8
 216              		.cfi_offset 14, -4
 217 0002 83B0     		sub	sp, sp, #12
 218              		.cfi_def_cfa_offset 24
 219 0004 00AF     		add	r7, sp, #0
 220              		.cfi_def_cfa_register 7
  94:.\main.c      ****     timeout_autorizacion=0;
 221              		.loc 1 94 0
 222 0006 774B     		ldr	r3, .L11
 223 0008 0022     		movs	r2, #0
 224 000a 1A80     		strh	r2, [r3]	@ movhi
  95:.\main.c      ****     timeout_autorizacion2=0;
 225              		.loc 1 95 0
 226 000c 764B     		ldr	r3, .L11+4
 227 000e 0022     		movs	r2, #0
 228 0010 1A80     		strh	r2, [r3]	@ movhi
  96:.\main.c      **** 	uint8 x;
  97:.\main.c      ****     CyGlobalIntEnable;
 229              		.loc 1 97 0
 230              	@ 97 ".\main.c" 1
 231 0012 62B6     		CPSIE   i
 232              	@ 0 "" 2
  98:.\main.c      ****     Surtidor_EnableRxInt();
 233              		.loc 1 98 0
 234              		.thumb
 235 0014 754B     		ldr	r3, .L11+8
 236 0016 2022     		movs	r2, #32
 237 0018 1A60     		str	r2, [r3]
  99:.\main.c      **** 	PC_Start();
 238              		.loc 1 99 0
ARM GAS  C:\Users\RECEPC~1\AppData\Local\Temp\cckIP3O9.s 			page 7


 239 001a FFF7FEFF 		bl	PC_Start
 100:.\main.c      ****     PC_EnableRxInt();
 240              		.loc 1 100 0
 241 001e 734B     		ldr	r3, .L11+8
 242 0020 1022     		movs	r2, #16
 243 0022 1A60     		str	r2, [r3]
 101:.\main.c      ****     I2C_1_Start();
 244              		.loc 1 101 0
 245 0024 FFF7FEFF 		bl	I2C_1_Start
 102:.\main.c      ****     Surtidor_Start();
 246              		.loc 1 102 0
 247 0028 FFF7FEFF 		bl	Surtidor_Start
 103:.\main.c      ****     Impresora_Start();
 248              		.loc 1 103 0
 249 002c FFF7FEFF 		bl	Impresora_Start
 104:.\main.c      ****     LCD_1_Start();
 250              		.loc 1 104 0
 251 0030 FFF7FEFF 		bl	LCD_1_Start
 105:.\main.c      ****     LCD_2_Start();
 252              		.loc 1 105 0
 253 0034 FFF7FEFF 		bl	LCD_2_Start
 106:.\main.c      ****     LCD_1_EnableRxInt();
 254              		.loc 1 106 0
 255 0038 6C4B     		ldr	r3, .L11+8
 256 003a 0222     		movs	r2, #2
 257 003c 1A60     		str	r2, [r3]
 107:.\main.c      **** 	LCD_2_EnableRxInt();
 258              		.loc 1 107 0
 259 003e 6B4B     		ldr	r3, .L11+8
 260 0040 0422     		movs	r2, #4
 261 0042 1A60     		str	r2, [r3]
 108:.\main.c      ****     Impresora_EnableRxInt();
 262              		.loc 1 108 0
 263 0044 694B     		ldr	r3, .L11+8
 264 0046 0122     		movs	r2, #1
 265 0048 1A60     		str	r2, [r3]
 109:.\main.c      ****     LP_Start();	
 266              		.loc 1 109 0
 267 004a FFF7FEFF 		bl	LP_Start
 110:.\main.c      ****     LP_EnableRxInt();    	
 268              		.loc 1 110 0
 269 004e 674B     		ldr	r3, .L11+8
 270 0050 0822     		movs	r2, #8
 271 0052 1A60     		str	r2, [r3]
 111:.\main.c      **** 	EEPROM_Start();
 272              		.loc 1 111 0
 273 0054 FFF7FEFF 		bl	EEPROM_Start
 112:.\main.c      **** 	//Timer_Modo_Start();
 113:.\main.c      **** 	//isr_5_StartEx(modo_mux);
 114:.\main.c      **** 	/***********Iniciacionde variables***************/
 115:.\main.c      **** 	lado1.grado[0][0]=0;
 274              		.loc 1 115 0
 275 0058 654B     		ldr	r3, .L11+12
 276 005a 0022     		movs	r2, #0
 277 005c 83F85920 		strb	r2, [r3, #89]
 116:.\main.c      **** 	lado1.grado[1][0]=0;
 278              		.loc 1 116 0
ARM GAS  C:\Users\RECEPC~1\AppData\Local\Temp\cckIP3O9.s 			page 8


 279 0060 634B     		ldr	r3, .L11+12
 280 0062 0022     		movs	r2, #0
 281 0064 83F85A20 		strb	r2, [r3, #90]
 117:.\main.c      **** 	lado1.grado[2][0]=0;
 282              		.loc 1 117 0
 283 0068 614B     		ldr	r3, .L11+12
 284 006a 0022     		movs	r2, #0
 285 006c 83F85B20 		strb	r2, [r3, #91]
 118:.\main.c      **** 	lado2.grado[0][0]=0;
 286              		.loc 1 118 0
 287 0070 604B     		ldr	r3, .L11+16
 288 0072 0022     		movs	r2, #0
 289 0074 83F85920 		strb	r2, [r3, #89]
 119:.\main.c      **** 	lado2.grado[1][0]=0;
 290              		.loc 1 119 0
 291 0078 5E4B     		ldr	r3, .L11+16
 292 007a 0022     		movs	r2, #0
 293 007c 83F85A20 		strb	r2, [r3, #90]
 120:.\main.c      **** 	lado2.grado[2][0]=0;
 294              		.loc 1 120 0
 295 0080 5C4B     		ldr	r3, .L11+16
 296 0082 0022     		movs	r2, #0
 297 0084 83F85B20 		strb	r2, [r3, #91]
 121:.\main.c      **** 	/*for(y=0;y<=2;y++){
 122:.\main.c      **** 		for(x=0;x<=23;x++){
 123:.\main.c      **** 			lado1.totales[y][x]=0;
 124:.\main.c      **** 		}
 125:.\main.c      **** 	}
 126:.\main.c      **** 	for(y=0;y<=2;y++){
 127:.\main.c      **** 		for(x=0;x<=23;x++){
 128:.\main.c      **** 			lado2.totales[y][x]=0;
 129:.\main.c      **** 		}
 130:.\main.c      **** 	}*/	
 131:.\main.c      ****     CyDelay(5);
 298              		.loc 1 131 0
 299 0088 0520     		movs	r0, #5
 300 008a FFF7FEFF 		bl	CyDelay
 132:.\main.c      **** 	/******************Lectura de EEPROM*************/
 133:.\main.c      **** 	for(x=0;x<=7;x++){										//Id venta
 301              		.loc 1 133 0
 302 008e 0023     		movs	r3, #0
 303 0090 FB71     		strb	r3, [r7, #7]
 304 0092 0CE0     		b	.L2
 305              	.L3:
 134:.\main.c      **** 		id_venta[x]=EEPROM_ReadByte(x);
 306              		.loc 1 134 0 discriminator 3
 307 0094 FC79     		ldrb	r4, [r7, #7]	@ zero_extendqisi2
 308 0096 FB79     		ldrb	r3, [r7, #7]	@ zero_extendqisi2
 309 0098 9BB2     		uxth	r3, r3
 310 009a 1846     		mov	r0, r3
 311 009c FFF7FEFF 		bl	EEPROM_ReadByte
 312 00a0 0346     		mov	r3, r0
 313 00a2 1A46     		mov	r2, r3
 314 00a4 544B     		ldr	r3, .L11+20
 315 00a6 1A55     		strb	r2, [r3, r4]
 133:.\main.c      **** 		id_venta[x]=EEPROM_ReadByte(x);
 316              		.loc 1 133 0 discriminator 3
ARM GAS  C:\Users\RECEPC~1\AppData\Local\Temp\cckIP3O9.s 			page 9


 317 00a8 FB79     		ldrb	r3, [r7, #7]	@ zero_extendqisi2
 318 00aa 0133     		adds	r3, r3, #1
 319 00ac FB71     		strb	r3, [r7, #7]
 320              	.L2:
 133:.\main.c      **** 		id_venta[x]=EEPROM_ReadByte(x);
 321              		.loc 1 133 0 is_stmt 0 discriminator 1
 322 00ae FB79     		ldrb	r3, [r7, #7]	@ zero_extendqisi2
 323 00b0 072B     		cmp	r3, #7
 324 00b2 EFD9     		bls	.L3
 135:.\main.c      **** 	}
 136:.\main.c      **** 	if(id_venta[0]!=7){
 325              		.loc 1 136 0 is_stmt 1
 326 00b4 504B     		ldr	r3, .L11+20
 327 00b6 1B78     		ldrb	r3, [r3]
 328 00b8 DBB2     		uxtb	r3, r3
 329 00ba 072B     		cmp	r3, #7
 330 00bc 2AD0     		beq	.L4
 137:.\main.c      **** 		id_venta[0]=7;	
 331              		.loc 1 137 0
 332 00be 4E4B     		ldr	r3, .L11+20
 333 00c0 0722     		movs	r2, #7
 334 00c2 1A70     		strb	r2, [r3]
 138:.\main.c      **** 		id_venta[1]='8';
 335              		.loc 1 138 0
 336 00c4 4C4B     		ldr	r3, .L11+20
 337 00c6 3822     		movs	r2, #56
 338 00c8 5A70     		strb	r2, [r3, #1]
 139:.\main.c      **** 		id_venta[2]='6';
 339              		.loc 1 139 0
 340 00ca 4B4B     		ldr	r3, .L11+20
 341 00cc 3622     		movs	r2, #54
 342 00ce 9A70     		strb	r2, [r3, #2]
 140:.\main.c      **** 		id_venta[3]='3';
 343              		.loc 1 140 0
 344 00d0 494B     		ldr	r3, .L11+20
 345 00d2 3322     		movs	r2, #51
 346 00d4 DA70     		strb	r2, [r3, #3]
 141:.\main.c      **** 		id_venta[4]='6';
 347              		.loc 1 141 0
 348 00d6 484B     		ldr	r3, .L11+20
 349 00d8 3622     		movs	r2, #54
 350 00da 1A71     		strb	r2, [r3, #4]
 142:.\main.c      **** 		id_venta[5]='0';
 351              		.loc 1 142 0
 352 00dc 464B     		ldr	r3, .L11+20
 353 00de 3022     		movs	r2, #48
 354 00e0 5A71     		strb	r2, [r3, #5]
 143:.\main.c      **** 		id_venta[6]='2';
 355              		.loc 1 143 0
 356 00e2 454B     		ldr	r3, .L11+20
 357 00e4 3222     		movs	r2, #50
 358 00e6 9A71     		strb	r2, [r3, #6]
 144:.\main.c      **** 		id_venta[7]='9';        
 359              		.loc 1 144 0
 360 00e8 434B     		ldr	r3, .L11+20
 361 00ea 3922     		movs	r2, #57
 362 00ec DA71     		strb	r2, [r3, #7]
ARM GAS  C:\Users\RECEPC~1\AppData\Local\Temp\cckIP3O9.s 			page 10


 145:.\main.c      **** 		for(x=0;x<=7;x++){									
 363              		.loc 1 145 0
 364 00ee 0023     		movs	r3, #0
 365 00f0 FB71     		strb	r3, [r7, #7]
 366 00f2 0CE0     		b	.L5
 367              	.L6:
 146:.\main.c      **** 			EEPROM_WriteByte(id_venta[x], x);
 368              		.loc 1 146 0 discriminator 3
 369 00f4 FB79     		ldrb	r3, [r7, #7]	@ zero_extendqisi2
 370 00f6 404A     		ldr	r2, .L11+20
 371 00f8 D35C     		ldrb	r3, [r2, r3]
 372 00fa DAB2     		uxtb	r2, r3
 373 00fc FB79     		ldrb	r3, [r7, #7]	@ zero_extendqisi2
 374 00fe 9BB2     		uxth	r3, r3
 375 0100 1046     		mov	r0, r2
 376 0102 1946     		mov	r1, r3
 377 0104 FFF7FEFF 		bl	EEPROM_WriteByte
 145:.\main.c      **** 		for(x=0;x<=7;x++){									
 378              		.loc 1 145 0 discriminator 3
 379 0108 FB79     		ldrb	r3, [r7, #7]	@ zero_extendqisi2
 380 010a 0133     		adds	r3, r3, #1
 381 010c FB71     		strb	r3, [r7, #7]
 382              	.L5:
 145:.\main.c      **** 		for(x=0;x<=7;x++){									
 383              		.loc 1 145 0 is_stmt 0 discriminator 1
 384 010e FB79     		ldrb	r3, [r7, #7]	@ zero_extendqisi2
 385 0110 072B     		cmp	r3, #7
 386 0112 EFD9     		bls	.L6
 387              	.L4:
 147:.\main.c      **** 		}
 148:.\main.c      **** 	}
 149:.\main.c      **** 	num_decimal2=((id_venta[5]&0x0F)*10000)+((id_venta[4]&0x0F)*1000)+((id_venta[3]&0x0F)*100)+((id_ve
 388              		.loc 1 149 0 is_stmt 1
 389 0114 384B     		ldr	r3, .L11+20
 390 0116 5B79     		ldrb	r3, [r3, #5]
 391 0118 DBB2     		uxtb	r3, r3
 392 011a 9BB2     		uxth	r3, r3
 393 011c 03F00F03 		and	r3, r3, #15
 394 0120 9BB2     		uxth	r3, r3
 395 0122 1A46     		mov	r2, r3	@ movhi
 396 0124 5201     		lsls	r2, r2, #5
 397 0126 D21A     		subs	r2, r2, r3
 398 0128 9200     		lsls	r2, r2, #2
 399 012a 1344     		add	r3, r3, r2
 400 012c 1A46     		mov	r2, r3	@ movhi
 401 012e 9100     		lsls	r1, r2, #2
 402 0130 1A46     		mov	r2, r3	@ movhi
 403 0132 0B46     		mov	r3, r1	@ movhi
 404 0134 1344     		add	r3, r3, r2
 405 0136 1B01     		lsls	r3, r3, #4
 406 0138 9AB2     		uxth	r2, r3
 407 013a 2F4B     		ldr	r3, .L11+20
 408 013c 1B79     		ldrb	r3, [r3, #4]
 409 013e DBB2     		uxtb	r3, r3
 410 0140 9BB2     		uxth	r3, r3
 411 0142 03F00F03 		and	r3, r3, #15
 412 0146 9BB2     		uxth	r3, r3
ARM GAS  C:\Users\RECEPC~1\AppData\Local\Temp\cckIP3O9.s 			page 11


 413 0148 1946     		mov	r1, r3	@ movhi
 414 014a 4901     		lsls	r1, r1, #5
 415 014c C91A     		subs	r1, r1, r3
 416 014e 8900     		lsls	r1, r1, #2
 417 0150 0B44     		add	r3, r3, r1
 418 0152 DB00     		lsls	r3, r3, #3
 419 0154 9BB2     		uxth	r3, r3
 420 0156 1344     		add	r3, r3, r2
 421 0158 9AB2     		uxth	r2, r3
 422 015a 274B     		ldr	r3, .L11+20
 423 015c 9B78     		ldrb	r3, [r3, #2]
 424 015e DBB2     		uxtb	r3, r3
 425 0160 9BB2     		uxth	r3, r3
 426 0162 03F00F03 		and	r3, r3, #15
 427 0166 9BB2     		uxth	r3, r3
 428 0168 1946     		mov	r1, r3	@ movhi
 429 016a 8900     		lsls	r1, r1, #2
 430 016c 0B44     		add	r3, r3, r1
 431 016e 5B00     		lsls	r3, r3, #1
 432 0170 99B2     		uxth	r1, r3
 433 0172 214B     		ldr	r3, .L11+20
 434 0174 DB78     		ldrb	r3, [r3, #3]
 435 0176 DBB2     		uxtb	r3, r3
 436 0178 9BB2     		uxth	r3, r3
 437 017a 03F00F03 		and	r3, r3, #15
 438 017e 9BB2     		uxth	r3, r3
 439 0180 1846     		mov	r0, r3	@ movhi
 440 0182 8000     		lsls	r0, r0, #2
 441 0184 0344     		add	r3, r3, r0
 442 0186 1846     		mov	r0, r3	@ movhi
 443 0188 8400     		lsls	r4, r0, #2
 444 018a 1846     		mov	r0, r3	@ movhi
 445 018c 2346     		mov	r3, r4	@ movhi
 446 018e 0344     		add	r3, r3, r0
 447 0190 9B00     		lsls	r3, r3, #2
 448 0192 9BB2     		uxth	r3, r3
 449 0194 0B44     		add	r3, r3, r1
 450 0196 9BB2     		uxth	r3, r3
 451 0198 1344     		add	r3, r3, r2
 452 019a 9AB2     		uxth	r2, r3
 453 019c 164B     		ldr	r3, .L11+20
 454 019e 5B78     		ldrb	r3, [r3, #1]
 455 01a0 DBB2     		uxtb	r3, r3
 456 01a2 9BB2     		uxth	r3, r3
 457 01a4 03F00F03 		and	r3, r3, #15
 458 01a8 9BB2     		uxth	r3, r3
 459 01aa 1344     		add	r3, r3, r2
 460 01ac 9AB2     		uxth	r2, r3
 461 01ae 134B     		ldr	r3, .L11+24
 462 01b0 1A80     		strh	r2, [r3]	@ movhi
 150:.\main.c      ****     for(x=8;x<=12;x++){										
 463              		.loc 1 150 0
 464 01b2 0823     		movs	r3, #8
 465 01b4 FB71     		strb	r3, [r7, #7]
 466 01b6 0EE0     		b	.L7
 467              	.L8:
 151:.\main.c      **** 		id_estacion[x-8]=EEPROM_ReadByte(x);
ARM GAS  C:\Users\RECEPC~1\AppData\Local\Temp\cckIP3O9.s 			page 12


 468              		.loc 1 151 0 discriminator 3
 469 01b8 FB79     		ldrb	r3, [r7, #7]	@ zero_extendqisi2
 470 01ba A3F10804 		sub	r4, r3, #8
 471 01be FB79     		ldrb	r3, [r7, #7]	@ zero_extendqisi2
 472 01c0 9BB2     		uxth	r3, r3
 473 01c2 1846     		mov	r0, r3
 474 01c4 FFF7FEFF 		bl	EEPROM_ReadByte
 475 01c8 0346     		mov	r3, r0
 476 01ca 1A46     		mov	r2, r3
 477 01cc 0C4B     		ldr	r3, .L11+28
 478 01ce 1A55     		strb	r2, [r3, r4]
 150:.\main.c      ****     for(x=8;x<=12;x++){										
 479              		.loc 1 150 0 discriminator 3
 480 01d0 FB79     		ldrb	r3, [r7, #7]	@ zero_extendqisi2
 481 01d2 0133     		adds	r3, r3, #1
 482 01d4 FB71     		strb	r3, [r7, #7]
 483              	.L7:
 150:.\main.c      ****     for(x=8;x<=12;x++){										
 484              		.loc 1 150 0 is_stmt 0 discriminator 1
 485 01d6 FB79     		ldrb	r3, [r7, #7]	@ zero_extendqisi2
 486 01d8 0C2B     		cmp	r3, #12
 487 01da EDD9     		bls	.L8
 152:.\main.c      **** 	}	
 153:.\main.c      **** 	for(x=13;x<=14;x++){									//Logo
 488              		.loc 1 153 0 is_stmt 1
 489 01dc 0D23     		movs	r3, #13
 490 01de FB71     		strb	r3, [r7, #7]
 491 01e0 1FE0     		b	.L9
 492              	.L12:
 493 01e2 00BF     		.align	2
 494              	.L11:
 495 01e4 00000000 		.word	timeout_autorizacion
 496 01e8 00000000 		.word	timeout_autorizacion2
 497 01ec 00E100E0 		.word	-536813312
 498 01f0 00000000 		.word	lado1
 499 01f4 00000000 		.word	lado2
 500 01f8 00000000 		.word	id_venta
 501 01fc 00000000 		.word	num_decimal2
 502 0200 00000000 		.word	id_estacion
 503              	.L10:
 154:.\main.c      **** 		id_logo[x-13]=EEPROM_ReadByte(x);
 504              		.loc 1 154 0 discriminator 3
 505 0204 FB79     		ldrb	r3, [r7, #7]	@ zero_extendqisi2
 506 0206 A3F10D04 		sub	r4, r3, #13
 507 020a FB79     		ldrb	r3, [r7, #7]	@ zero_extendqisi2
 508 020c 9BB2     		uxth	r3, r3
 509 020e 1846     		mov	r0, r3
 510 0210 FFF7FEFF 		bl	EEPROM_ReadByte
 511 0214 0346     		mov	r3, r0
 512 0216 1A46     		mov	r2, r3
 513 0218 484B     		ldr	r3, .L13
 514 021a 1A55     		strb	r2, [r3, r4]
 153:.\main.c      **** 		id_logo[x-13]=EEPROM_ReadByte(x);
 515              		.loc 1 153 0 discriminator 3
 516 021c FB79     		ldrb	r3, [r7, #7]	@ zero_extendqisi2
 517 021e 0133     		adds	r3, r3, #1
 518 0220 FB71     		strb	r3, [r7, #7]
ARM GAS  C:\Users\RECEPC~1\AppData\Local\Temp\cckIP3O9.s 			page 13


 519              	.L9:
 153:.\main.c      **** 		id_logo[x-13]=EEPROM_ReadByte(x);
 520              		.loc 1 153 0 is_stmt 0 discriminator 1
 521 0222 FB79     		ldrb	r3, [r7, #7]	@ zero_extendqisi2
 522 0224 0E2B     		cmp	r3, #14
 523 0226 EDD9     		bls	.L10
 155:.\main.c      **** 	}
 156:.\main.c      **** 	lado1.mangueras=EEPROM_ReadByte(15);					//Numero de grados y codigo de cada uno 1
 524              		.loc 1 156 0 is_stmt 1
 525 0228 0F20     		movs	r0, #15
 526 022a FFF7FEFF 		bl	EEPROM_ReadByte
 527 022e 0346     		mov	r3, r0
 528 0230 1A46     		mov	r2, r3
 529 0232 434B     		ldr	r3, .L13+4
 530 0234 83F85C20 		strb	r2, [r3, #92]
 157:.\main.c      **** 	lado1.grado[0][0]=EEPROM_ReadByte(16);
 531              		.loc 1 157 0
 532 0238 1020     		movs	r0, #16
 533 023a FFF7FEFF 		bl	EEPROM_ReadByte
 534 023e 0346     		mov	r3, r0
 535 0240 1A46     		mov	r2, r3
 536 0242 3F4B     		ldr	r3, .L13+4
 537 0244 83F85920 		strb	r2, [r3, #89]
 158:.\main.c      **** 	lado1.grado[1][0]=EEPROM_ReadByte(17);
 538              		.loc 1 158 0
 539 0248 1120     		movs	r0, #17
 540 024a FFF7FEFF 		bl	EEPROM_ReadByte
 541 024e 0346     		mov	r3, r0
 542 0250 1A46     		mov	r2, r3
 543 0252 3B4B     		ldr	r3, .L13+4
 544 0254 83F85A20 		strb	r2, [r3, #90]
 159:.\main.c      **** 	lado1.grado[2][0]=EEPROM_ReadByte(18);
 545              		.loc 1 159 0
 546 0258 1220     		movs	r0, #18
 547 025a FFF7FEFF 		bl	EEPROM_ReadByte
 548 025e 0346     		mov	r3, r0
 549 0260 1A46     		mov	r2, r3
 550 0262 374B     		ldr	r3, .L13+4
 551 0264 83F85B20 		strb	r2, [r3, #91]
 160:.\main.c      **** 	
 161:.\main.c      **** 	lado2.mangueras=EEPROM_ReadByte(19);					//Numero de grados y codigo de cada uno 1
 552              		.loc 1 161 0
 553 0268 1320     		movs	r0, #19
 554 026a FFF7FEFF 		bl	EEPROM_ReadByte
 555 026e 0346     		mov	r3, r0
 556 0270 1A46     		mov	r2, r3
 557 0272 344B     		ldr	r3, .L13+8
 558 0274 83F85C20 		strb	r2, [r3, #92]
 162:.\main.c      **** 	lado2.grado[0][0]=EEPROM_ReadByte(20);
 559              		.loc 1 162 0
 560 0278 1420     		movs	r0, #20
 561 027a FFF7FEFF 		bl	EEPROM_ReadByte
 562 027e 0346     		mov	r3, r0
 563 0280 1A46     		mov	r2, r3
 564 0282 304B     		ldr	r3, .L13+8
 565 0284 83F85920 		strb	r2, [r3, #89]
 163:.\main.c      **** 	lado2.grado[1][0]=EEPROM_ReadByte(21);
ARM GAS  C:\Users\RECEPC~1\AppData\Local\Temp\cckIP3O9.s 			page 14


 566              		.loc 1 163 0
 567 0288 1520     		movs	r0, #21
 568 028a FFF7FEFF 		bl	EEPROM_ReadByte
 569 028e 0346     		mov	r3, r0
 570 0290 1A46     		mov	r2, r3
 571 0292 2C4B     		ldr	r3, .L13+8
 572 0294 83F85A20 		strb	r2, [r3, #90]
 164:.\main.c      **** 	lado2.grado[2][0]=EEPROM_ReadByte(22);	
 573              		.loc 1 164 0
 574 0298 1620     		movs	r0, #22
 575 029a FFF7FEFF 		bl	EEPROM_ReadByte
 576 029e 0346     		mov	r3, r0
 577 02a0 1A46     		mov	r2, r3
 578 02a2 284B     		ldr	r3, .L13+8
 579 02a4 83F85B20 		strb	r2, [r3, #91]
 165:.\main.c      **** 	
 166:.\main.c      **** 	ppux10=EEPROM_ReadByte(23);								//PPU X10
 580              		.loc 1 166 0
 581 02a8 1720     		movs	r0, #23
 582 02aa FFF7FEFF 		bl	EEPROM_ReadByte
 583 02ae 0346     		mov	r3, r0
 584 02b0 1A46     		mov	r2, r3
 585 02b2 254B     		ldr	r3, .L13+12
 586 02b4 1A70     		strb	r2, [r3]
 167:.\main.c      **** 
 168:.\main.c      **** 	version[1]=EEPROM_ReadByte(30);							//Version de digitos y decimales
 587              		.loc 1 168 0
 588 02b6 1E20     		movs	r0, #30
 589 02b8 FFF7FEFF 		bl	EEPROM_ReadByte
 590 02bc 0346     		mov	r3, r0
 591 02be 1A46     		mov	r2, r3
 592 02c0 224B     		ldr	r3, .L13+16
 593 02c2 5A70     		strb	r2, [r3, #1]
 169:.\main.c      **** 	version[2]=EEPROM_ReadByte(31);
 594              		.loc 1 169 0
 595 02c4 1F20     		movs	r0, #31
 596 02c6 FFF7FEFF 		bl	EEPROM_ReadByte
 597 02ca 0346     		mov	r3, r0
 598 02cc 1A46     		mov	r2, r3
 599 02ce 1F4B     		ldr	r3, .L13+16
 600 02d0 9A70     		strb	r2, [r3, #2]
 170:.\main.c      **** 	version[3]=EEPROM_ReadByte(32);
 601              		.loc 1 170 0
 602 02d2 2020     		movs	r0, #32
 603 02d4 FFF7FEFF 		bl	EEPROM_ReadByte
 604 02d8 0346     		mov	r3, r0
 605 02da 1A46     		mov	r2, r3
 606 02dc 1B4B     		ldr	r3, .L13+16
 607 02de DA70     		strb	r2, [r3, #3]
 171:.\main.c      **** 		 
 172:.\main.c      **** 	lado1.dir=EEPROM_ReadByte(26);							//Lado A
 608              		.loc 1 172 0
 609 02e0 1A20     		movs	r0, #26
 610 02e2 FFF7FEFF 		bl	EEPROM_ReadByte
 611 02e6 0346     		mov	r3, r0
 612 02e8 1A46     		mov	r2, r3
 613 02ea 154B     		ldr	r3, .L13+4
ARM GAS  C:\Users\RECEPC~1\AppData\Local\Temp\cckIP3O9.s 			page 15


 614 02ec 1A70     		strb	r2, [r3]
 173:.\main.c      **** 
 174:.\main.c      **** 	lado2.dir=EEPROM_ReadByte(28);							//Lado B
 615              		.loc 1 174 0
 616 02ee 1C20     		movs	r0, #28
 617 02f0 FFF7FEFF 		bl	EEPROM_ReadByte
 618 02f4 0346     		mov	r3, r0
 619 02f6 1A46     		mov	r2, r3
 620 02f8 124B     		ldr	r3, .L13+8
 621 02fa 1A70     		strb	r2, [r3]
 175:.\main.c      **** 
 176:.\main.c      ****     lado1.estado=libre;
 622              		.loc 1 176 0
 623 02fc 104B     		ldr	r3, .L13+4
 624 02fe 0122     		movs	r2, #1
 625 0300 5A70     		strb	r2, [r3, #1]
 177:.\main.c      ****     lado2.estado=libre;
 626              		.loc 1 177 0
 627 0302 104B     		ldr	r3, .L13+8
 628 0304 0122     		movs	r2, #1
 629 0306 5A70     		strb	r2, [r3, #1]
 178:.\main.c      ****     estado_tanqueando=0;
 630              		.loc 1 178 0
 631 0308 114B     		ldr	r3, .L13+20
 632 030a 0022     		movs	r2, #0
 633 030c 1A70     		strb	r2, [r3]
 179:.\main.c      ****     estado_tanqueando2=0;
 634              		.loc 1 179 0
 635 030e 114B     		ldr	r3, .L13+24
 636 0310 0022     		movs	r2, #0
 637 0312 1A70     		strb	r2, [r3]
 180:.\main.c      **** 	lado1.mangueras=3;
 638              		.loc 1 180 0
 639 0314 0A4B     		ldr	r3, .L13+4
 640 0316 0322     		movs	r2, #3
 641 0318 83F85C20 		strb	r2, [r3, #92]
 181:.\main.c      **** 	lado2.mangueras=3;  
 642              		.loc 1 181 0
 643 031c 094B     		ldr	r3, .L13+8
 644 031e 0322     		movs	r2, #3
 645 0320 83F85C20 		strb	r2, [r3, #92]
 182:.\main.c      ****         
 183:.\main.c      **** 	version[2]=0;
 646              		.loc 1 183 0
 647 0324 094B     		ldr	r3, .L13+16
 648 0326 0022     		movs	r2, #0
 649 0328 9A70     		strb	r2, [r3, #2]
 184:.\main.c      **** 	version[3]=3;
 650              		.loc 1 184 0
 651 032a 084B     		ldr	r3, .L13+16
 652 032c 0322     		movs	r2, #3
 653 032e DA70     		strb	r2, [r3, #3]
 185:.\main.c      ****     CyDelay(5);	
 654              		.loc 1 185 0
 655 0330 0520     		movs	r0, #5
 656 0332 FFF7FEFF 		bl	CyDelay
 186:.\main.c      ****     
ARM GAS  C:\Users\RECEPC~1\AppData\Local\Temp\cckIP3O9.s 			page 16


 187:.\main.c      **** }
 657              		.loc 1 187 0
 658 0336 0C37     		adds	r7, r7, #12
 659              		.cfi_def_cfa_offset 12
 660 0338 BD46     		mov	sp, r7
 661              		.cfi_def_cfa_register 13
 662              		@ sp needed
 663 033a 90BD     		pop	{r4, r7, pc}
 664              	.L14:
 665              		.align	2
 666              	.L13:
 667 033c 00000000 		.word	id_logo
 668 0340 00000000 		.word	lado1
 669 0344 00000000 		.word	lado2
 670 0348 00000000 		.word	ppux10
 671 034c 00000000 		.word	version
 672 0350 00000000 		.word	estado_tanqueando
 673 0354 00000000 		.word	estado_tanqueando2
 674              		.cfi_endproc
 675              	.LFE63:
 676              		.size	init, .-init
 677              		.section	.rodata
 678              		.align	2
 679              	.LC0:
 680 0000 00       		.byte	0
 681 0001 5E       		.byte	94
 682 0002 BC       		.byte	-68
 683 0003 E2       		.byte	-30
 684 0004 61       		.byte	97
 685 0005 3F       		.byte	63
 686 0006 DD       		.byte	-35
 687 0007 83       		.byte	-125
 688 0008 C2       		.byte	-62
 689 0009 9C       		.byte	-100
 690 000a 7E       		.byte	126
 691 000b 20       		.byte	32
 692 000c A3       		.byte	-93
 693 000d FD       		.byte	-3
 694 000e 1F       		.byte	31
 695 000f 41       		.byte	65
 696 0010 9D       		.byte	-99
 697 0011 C3       		.byte	-61
 698 0012 21       		.byte	33
 699 0013 7F       		.byte	127
 700 0014 FC       		.byte	-4
 701 0015 A2       		.byte	-94
 702 0016 40       		.byte	64
 703 0017 1E       		.byte	30
 704 0018 5F       		.byte	95
 705 0019 01       		.byte	1
 706 001a E3       		.byte	-29
 707 001b BD       		.byte	-67
 708 001c 3E       		.byte	62
 709 001d 60       		.byte	96
 710 001e 82       		.byte	-126
 711 001f DC       		.byte	-36
 712 0020 23       		.byte	35
ARM GAS  C:\Users\RECEPC~1\AppData\Local\Temp\cckIP3O9.s 			page 17


 713 0021 7D       		.byte	125
 714 0022 9F       		.byte	-97
 715 0023 C1       		.byte	-63
 716 0024 42       		.byte	66
 717 0025 1C       		.byte	28
 718 0026 FE       		.byte	-2
 719 0027 A0       		.byte	-96
 720 0028 E1       		.byte	-31
 721 0029 BF       		.byte	-65
 722 002a 5D       		.byte	93
 723 002b 03       		.byte	3
 724 002c 80       		.byte	-128
 725 002d DE       		.byte	-34
 726 002e 3C       		.byte	60
 727 002f 62       		.byte	98
 728 0030 BE       		.byte	-66
 729 0031 E0       		.byte	-32
 730 0032 02       		.byte	2
 731 0033 5C       		.byte	92
 732 0034 DF       		.byte	-33
 733 0035 81       		.byte	-127
 734 0036 63       		.byte	99
 735 0037 3D       		.byte	61
 736 0038 7C       		.byte	124
 737 0039 22       		.byte	34
 738 003a C0       		.byte	-64
 739 003b 9E       		.byte	-98
 740 003c 1D       		.byte	29
 741 003d 43       		.byte	67
 742 003e A1       		.byte	-95
 743 003f FF       		.byte	-1
 744 0040 46       		.byte	70
 745 0041 18       		.byte	24
 746 0042 FA       		.byte	-6
 747 0043 A4       		.byte	-92
 748 0044 27       		.byte	39
 749 0045 79       		.byte	121
 750 0046 9B       		.byte	-101
 751 0047 C5       		.byte	-59
 752 0048 84       		.byte	-124
 753 0049 DA       		.byte	-38
 754 004a 38       		.byte	56
 755 004b 66       		.byte	102
 756 004c E5       		.byte	-27
 757 004d BB       		.byte	-69
 758 004e 59       		.byte	89
 759 004f 07       		.byte	7
 760 0050 DB       		.byte	-37
 761 0051 85       		.byte	-123
 762 0052 67       		.byte	103
 763 0053 39       		.byte	57
 764 0054 BA       		.byte	-70
 765 0055 E4       		.byte	-28
 766 0056 06       		.byte	6
 767 0057 58       		.byte	88
 768 0058 19       		.byte	25
 769 0059 47       		.byte	71
ARM GAS  C:\Users\RECEPC~1\AppData\Local\Temp\cckIP3O9.s 			page 18


 770 005a A5       		.byte	-91
 771 005b FB       		.byte	-5
 772 005c 78       		.byte	120
 773 005d 26       		.byte	38
 774 005e C4       		.byte	-60
 775 005f 9A       		.byte	-102
 776 0060 65       		.byte	101
 777 0061 3B       		.byte	59
 778 0062 D9       		.byte	-39
 779 0063 87       		.byte	-121
 780 0064 04       		.byte	4
 781 0065 5A       		.byte	90
 782 0066 B8       		.byte	-72
 783 0067 E6       		.byte	-26
 784 0068 A7       		.byte	-89
 785 0069 F9       		.byte	-7
 786 006a 1B       		.byte	27
 787 006b 45       		.byte	69
 788 006c C6       		.byte	-58
 789 006d 98       		.byte	-104
 790 006e 7A       		.byte	122
 791 006f 24       		.byte	36
 792 0070 F8       		.byte	-8
 793 0071 A6       		.byte	-90
 794 0072 44       		.byte	68
 795 0073 1A       		.byte	26
 796 0074 99       		.byte	-103
 797 0075 C7       		.byte	-57
 798 0076 25       		.byte	37
 799 0077 7B       		.byte	123
 800 0078 3A       		.byte	58
 801 0079 64       		.byte	100
 802 007a 86       		.byte	-122
 803 007b D8       		.byte	-40
 804 007c 5B       		.byte	91
 805 007d 05       		.byte	5
 806 007e E7       		.byte	-25
 807 007f B9       		.byte	-71
 808 0080 8C       		.byte	-116
 809 0081 D2       		.byte	-46
 810 0082 30       		.byte	48
 811 0083 6E       		.byte	110
 812 0084 ED       		.byte	-19
 813 0085 B3       		.byte	-77
 814 0086 51       		.byte	81
 815 0087 0F       		.byte	15
 816 0088 4E       		.byte	78
 817 0089 10       		.byte	16
 818 008a F2       		.byte	-14
 819 008b AC       		.byte	-84
 820 008c 2F       		.byte	47
 821 008d 71       		.byte	113
 822 008e 93       		.byte	-109
 823 008f CD       		.byte	-51
 824 0090 11       		.byte	17
 825 0091 4F       		.byte	79
 826 0092 AD       		.byte	-83
ARM GAS  C:\Users\RECEPC~1\AppData\Local\Temp\cckIP3O9.s 			page 19


 827 0093 F3       		.byte	-13
 828 0094 70       		.byte	112
 829 0095 2E       		.byte	46
 830 0096 CC       		.byte	-52
 831 0097 92       		.byte	-110
 832 0098 D3       		.byte	-45
 833 0099 8D       		.byte	-115
 834 009a 6F       		.byte	111
 835 009b 31       		.byte	49
 836 009c B2       		.byte	-78
 837 009d EC       		.byte	-20
 838 009e 0E       		.byte	14
 839 009f 50       		.byte	80
 840 00a0 AF       		.byte	-81
 841 00a1 F1       		.byte	-15
 842 00a2 13       		.byte	19
 843 00a3 4D       		.byte	77
 844 00a4 CE       		.byte	-50
 845 00a5 90       		.byte	-112
 846 00a6 72       		.byte	114
 847 00a7 2C       		.byte	44
 848 00a8 6D       		.byte	109
 849 00a9 33       		.byte	51
 850 00aa D1       		.byte	-47
 851 00ab 8F       		.byte	-113
 852 00ac 0C       		.byte	12
 853 00ad 52       		.byte	82
 854 00ae B0       		.byte	-80
 855 00af EE       		.byte	-18
 856 00b0 32       		.byte	50
 857 00b1 6C       		.byte	108
 858 00b2 8E       		.byte	-114
 859 00b3 D0       		.byte	-48
 860 00b4 53       		.byte	83
 861 00b5 0D       		.byte	13
 862 00b6 EF       		.byte	-17
 863 00b7 B1       		.byte	-79
 864 00b8 F0       		.byte	-16
 865 00b9 AE       		.byte	-82
 866 00ba 4C       		.byte	76
 867 00bb 12       		.byte	18
 868 00bc 91       		.byte	-111
 869 00bd CF       		.byte	-49
 870 00be 2D       		.byte	45
 871 00bf 73       		.byte	115
 872 00c0 CA       		.byte	-54
 873 00c1 94       		.byte	-108
 874 00c2 76       		.byte	118
 875 00c3 28       		.byte	40
 876 00c4 AB       		.byte	-85
 877 00c5 F5       		.byte	-11
 878 00c6 17       		.byte	23
 879 00c7 49       		.byte	73
 880 00c8 08       		.byte	8
 881 00c9 56       		.byte	86
 882 00ca B4       		.byte	-76
 883 00cb EA       		.byte	-22
ARM GAS  C:\Users\RECEPC~1\AppData\Local\Temp\cckIP3O9.s 			page 20


 884 00cc 69       		.byte	105
 885 00cd 37       		.byte	55
 886 00ce D5       		.byte	-43
 887 00cf 8B       		.byte	-117
 888 00d0 57       		.byte	87
 889 00d1 09       		.byte	9
 890 00d2 EB       		.byte	-21
 891 00d3 B5       		.byte	-75
 892 00d4 36       		.byte	54
 893 00d5 68       		.byte	104
 894 00d6 8A       		.byte	-118
 895 00d7 D4       		.byte	-44
 896 00d8 95       		.byte	-107
 897 00d9 CB       		.byte	-53
 898 00da 29       		.byte	41
 899 00db 77       		.byte	119
 900 00dc F4       		.byte	-12
 901 00dd AA       		.byte	-86
 902 00de 48       		.byte	72
 903 00df 16       		.byte	22
 904 00e0 E9       		.byte	-23
 905 00e1 B7       		.byte	-73
 906 00e2 55       		.byte	85
 907 00e3 0B       		.byte	11
 908 00e4 88       		.byte	-120
 909 00e5 D6       		.byte	-42
 910 00e6 34       		.byte	52
 911 00e7 6A       		.byte	106
 912 00e8 2B       		.byte	43
 913 00e9 75       		.byte	117
 914 00ea 97       		.byte	-105
 915 00eb C9       		.byte	-55
 916 00ec 4A       		.byte	74
 917 00ed 14       		.byte	20
 918 00ee F6       		.byte	-10
 919 00ef A8       		.byte	-88
 920 00f0 74       		.byte	116
 921 00f1 2A       		.byte	42
 922 00f2 C8       		.byte	-56
 923 00f3 96       		.byte	-106
 924 00f4 15       		.byte	21
 925 00f5 4B       		.byte	75
 926 00f6 A9       		.byte	-87
 927 00f7 F7       		.byte	-9
 928 00f8 B6       		.byte	-74
 929 00f9 E8       		.byte	-24
 930 00fa 0A       		.byte	10
 931 00fb 54       		.byte	84
 932 00fc D7       		.byte	-41
 933 00fd 89       		.byte	-119
 934 00fe 6B       		.byte	107
 935 00ff 35       		.byte	53
 936              		.section	.text.verificar_check,"ax",%progbits
 937              		.align	2
 938              		.global	verificar_check
 939              		.thumb
 940              		.thumb_func
ARM GAS  C:\Users\RECEPC~1\AppData\Local\Temp\cckIP3O9.s 			page 21


 941              		.type	verificar_check, %function
 942              	verificar_check:
 943              	.LFB64:
 188:.\main.c      **** 
 189:.\main.c      **** 
 190:.\main.c      **** /*
 191:.\main.c      **** ***************************************************************************************************
 192:.\main.c      **** *                             uint8 verificar_check(uint8 *datos, uint16 size)
 193:.\main.c      **** *
 194:.\main.c      **** * Description : calcula el checksum
 195:.\main.c      **** *               
 196:.\main.c      **** 
 197:.\main.c      **** ***************************************************************************************************
 198:.\main.c      **** */
 199:.\main.c      **** uint8 verificar_check(uint8 *datos, uint16 size){
 944              		.loc 1 199 0
 945              		.cfi_startproc
 946              		@ args = 0, pretend = 0, frame = 272
 947              		@ frame_needed = 1, uses_anonymous_args = 0
 948 0000 80B5     		push	{r7, lr}
 949              		.cfi_def_cfa_offset 8
 950              		.cfi_offset 7, -8
 951              		.cfi_offset 14, -4
 952 0002 C4B0     		sub	sp, sp, #272
 953              		.cfi_def_cfa_offset 280
 954 0004 00AF     		add	r7, sp, #0
 955              		.cfi_def_cfa_register 7
 956 0006 3B1D     		adds	r3, r7, #4
 957 0008 1860     		str	r0, [r3]
 958 000a 0A46     		mov	r2, r1
 959 000c BB1C     		adds	r3, r7, #2
 960 000e 1A80     		strh	r2, [r3]	@ movhi
 200:.\main.c      **** 	uint8 checksum,index;
 201:.\main.c      **** 	uint16 i;
 202:.\main.c      ****     uint8 table[256] = { 
 961              		.loc 1 202 0
 962 0010 07F10803 		add	r3, r7, #8
 963 0014 1A4A     		ldr	r2, .L19
 964 0016 1946     		mov	r1, r3
 965 0018 4FF48073 		mov	r3, #256
 966 001c 0846     		mov	r0, r1
 967 001e 1146     		mov	r1, r2
 968 0020 1A46     		mov	r2, r3
 969 0022 FFF7FEFF 		bl	memcpy
 203:.\main.c      ****     0, 94,188,226, 97, 63,221,131,194,156,126, 32,163,253, 31, 65,
 204:.\main.c      ****     157,195, 33,127,252,162, 64, 30, 95,  1,227,189, 62, 96,130,220,
 205:.\main.c      ****     35,125,159,193, 66, 28,254,160,225,191, 93,  3,128,222, 60, 98,
 206:.\main.c      ****     190,224,  2, 92,223,129, 99, 61,124, 34,192,158, 29, 67,161,255,
 207:.\main.c      ****     70, 24,250,164, 39,121,155,197,132,218, 56,102,229,187, 89,  7,
 208:.\main.c      ****     219,133,103, 57,186,228,  6, 88, 25, 71,165,251,120, 38,196,154,
 209:.\main.c      ****     101, 59,217,135,  4, 90,184,230,167,249, 27, 69,198,152,122, 36,
 210:.\main.c      ****     248,166, 68, 26,153,199, 37,123, 58,100,134,216, 91,  5,231,185,
 211:.\main.c      ****     140,210, 48,110,237,179, 81, 15, 78, 16,242,172, 47,113,147,205,
 212:.\main.c      ****     17, 79,173,243,112, 46,204,146,211,141,111, 49,178,236, 14, 80,
 213:.\main.c      ****     175,241, 19, 77,206,144,114, 44,109, 51,209,143, 12, 82,176,238,
 214:.\main.c      ****     50,108,142,208, 83, 13,239,177,240,174, 76, 18,145,207, 45,115,
 215:.\main.c      ****     202,148,118, 40,171,245, 23, 73,  8, 86,180,234,105, 55,213,139,
ARM GAS  C:\Users\RECEPC~1\AppData\Local\Temp\cckIP3O9.s 			page 22


 216:.\main.c      ****     87,  9,235,181, 54,104,138,212,149,203, 41,119,244,170, 72, 22,
 217:.\main.c      ****     233,183, 85, 11,136,214, 52,106, 43,117,151,201, 74, 20,246,168,
 218:.\main.c      ****     116, 42,200,150, 21, 75,169,247,182,232, 10, 84,215,137,107, 53};	
 219:.\main.c      **** 	checksum=0;
 970              		.loc 1 219 0
 971 0026 0023     		movs	r3, #0
 972 0028 87F80F31 		strb	r3, [r7, #271]
 220:.\main.c      **** 	for(i=0;i<(size-1);i++){
 973              		.loc 1 220 0
 974 002c 0023     		movs	r3, #0
 975 002e A7F80C31 		strh	r3, [r7, #268]	@ movhi
 976 0032 16E0     		b	.L16
 977              	.L17:
 221:.\main.c      **** 		index = (uint8)(checksum ^ datos[i]);
 978              		.loc 1 221 0 discriminator 3
 979 0034 B7F80C31 		ldrh	r3, [r7, #268]
 980 0038 3A1D     		adds	r2, r7, #4
 981 003a 1268     		ldr	r2, [r2]
 982 003c 1344     		add	r3, r3, r2
 983 003e 1A78     		ldrb	r2, [r3]	@ zero_extendqisi2
 984 0040 97F80F31 		ldrb	r3, [r7, #271]
 985 0044 5340     		eors	r3, r3, r2
 986 0046 87F80B31 		strb	r3, [r7, #267]
 222:.\main.c      **** 		checksum = table[index];				
 987              		.loc 1 222 0 discriminator 3
 988 004a 97F80B31 		ldrb	r3, [r7, #267]	@ zero_extendqisi2
 989 004e 07F10802 		add	r2, r7, #8
 990 0052 D35C     		ldrb	r3, [r2, r3]
 991 0054 87F80F31 		strb	r3, [r7, #271]
 220:.\main.c      **** 	for(i=0;i<(size-1);i++){
 992              		.loc 1 220 0 discriminator 3
 993 0058 B7F80C31 		ldrh	r3, [r7, #268]
 994 005c 0133     		adds	r3, r3, #1
 995 005e A7F80C31 		strh	r3, [r7, #268]	@ movhi
 996              	.L16:
 220:.\main.c      **** 	for(i=0;i<(size-1);i++){
 997              		.loc 1 220 0 is_stmt 0 discriminator 1
 998 0062 B7F80C21 		ldrh	r2, [r7, #268]
 999 0066 BB1C     		adds	r3, r7, #2
 1000 0068 1B88     		ldrh	r3, [r3]
 1001 006a 013B     		subs	r3, r3, #1
 1002 006c 9A42     		cmp	r2, r3
 1003 006e E1DB     		blt	.L17
 223:.\main.c      **** 	}
 224:.\main.c      **** 	return checksum;
 1004              		.loc 1 224 0 is_stmt 1
 1005 0070 97F80F31 		ldrb	r3, [r7, #271]	@ zero_extendqisi2
 225:.\main.c      **** }
 1006              		.loc 1 225 0
 1007 0074 1846     		mov	r0, r3
 1008 0076 07F58877 		add	r7, r7, #272
 1009              		.cfi_def_cfa_offset 8
 1010 007a BD46     		mov	sp, r7
 1011              		.cfi_def_cfa_register 13
 1012              		@ sp needed
 1013 007c 80BD     		pop	{r7, pc}
 1014              	.L20:
ARM GAS  C:\Users\RECEPC~1\AppData\Local\Temp\cckIP3O9.s 			page 23


 1015 007e 00BF     		.align	2
 1016              	.L19:
 1017 0080 00000000 		.word	.LC0
 1018              		.cfi_endproc
 1019              	.LFE64:
 1020              		.size	verificar_check, .-verificar_check
 1021              		.section	.text.error_op,"ax",%progbits
 1022              		.align	2
 1023              		.global	error_op
 1024              		.thumb
 1025              		.thumb_func
 1026              		.type	error_op, %function
 1027              	error_op:
 1028              	.LFB65:
 226:.\main.c      **** 
 227:.\main.c      **** /*
 228:.\main.c      **** ***************************************************************************************************
 229:.\main.c      **** *                                         void error_op()
 230:.\main.c      **** *
 231:.\main.c      **** * Description : Muestra en la pantalla el mensaje de operacin incorrecta y regresa al inicio del 
 232:.\main.c      **** *               
 233:.\main.c      **** *
 234:.\main.c      **** * Argument(s) : uint8 lcd, para elegir cual pantalla entra en esta funcin
 235:.\main.c      **** *
 236:.\main.c      **** * Return(s)   : none
 237:.\main.c      **** *
 238:.\main.c      **** * Caller(s)   : Desde cualquier momento de la operacion donde ocurra un error por parte del usuario
 239:.\main.c      **** *
 240:.\main.c      **** * Note(s)     : none.
 241:.\main.c      **** ***************************************************************************************************
 242:.\main.c      **** */
 243:.\main.c      **** void error_op(uint8 lcd, uint16 imagen){
 1029              		.loc 1 243 0
 1030              		.cfi_startproc
 1031              		@ args = 0, pretend = 0, frame = 8
 1032              		@ frame_needed = 1, uses_anonymous_args = 0
 1033 0000 80B5     		push	{r7, lr}
 1034              		.cfi_def_cfa_offset 8
 1035              		.cfi_offset 7, -8
 1036              		.cfi_offset 14, -4
 1037 0002 82B0     		sub	sp, sp, #8
 1038              		.cfi_def_cfa_offset 16
 1039 0004 00AF     		add	r7, sp, #0
 1040              		.cfi_def_cfa_register 7
 1041 0006 0346     		mov	r3, r0
 1042 0008 0A46     		mov	r2, r1
 1043 000a FB71     		strb	r3, [r7, #7]
 1044 000c 1346     		mov	r3, r2	@ movhi
 1045 000e BB80     		strh	r3, [r7, #4]	@ movhi
 244:.\main.c      **** 	if(lcd==1){
 1046              		.loc 1 244 0
 1047 0010 FB79     		ldrb	r3, [r7, #7]	@ zero_extendqisi2
 1048 0012 012B     		cmp	r3, #1
 1049 0014 15D1     		bne	.L22
 245:.\main.c      **** 	   set_imagen(1,imagen);
 1050              		.loc 1 245 0
 1051 0016 BB88     		ldrh	r3, [r7, #4]
ARM GAS  C:\Users\RECEPC~1\AppData\Local\Temp\cckIP3O9.s 			page 24


 1052 0018 0120     		movs	r0, #1
 1053 001a 1946     		mov	r1, r3
 1054 001c FFF7FEFF 		bl	set_imagen
 246:.\main.c      **** 	   flujo_LCD1=100;
 1055              		.loc 1 246 0
 1056 0020 134B     		ldr	r3, .L24
 1057 0022 6422     		movs	r2, #100
 1058 0024 1A70     		strb	r2, [r3]
 247:.\main.c      **** 	   count_protector=1;
 1059              		.loc 1 247 0
 1060 0026 134B     		ldr	r3, .L24+4
 1061 0028 0122     		movs	r2, #1
 1062 002a 1A70     		strb	r2, [r3]
 248:.\main.c      ****        lado1.estado=libre;
 1063              		.loc 1 248 0
 1064 002c 124B     		ldr	r3, .L24+8
 1065 002e 0122     		movs	r2, #1
 1066 0030 5A70     		strb	r2, [r3, #1]
 249:.\main.c      ****        LP_ClearRxBuffer();
 1067              		.loc 1 249 0
 1068 0032 FFF7FEFF 		bl	LP_ClearRxBuffer
 250:.\main.c      **** 	   isr_3_StartEx(animacion);  
 1069              		.loc 1 250 0
 1070 0036 1148     		ldr	r0, .L24+12
 1071 0038 FFF7FEFF 		bl	isr_3_StartEx
 251:.\main.c      **** 	   Timer_Animacion_Start();
 1072              		.loc 1 251 0
 1073 003c FFF7FEFF 		bl	Timer_Animacion_Start
 1074 0040 12E0     		b	.L21
 1075              	.L22:
 252:.\main.c      **** 	}
 253:.\main.c      **** 	else{
 254:.\main.c      **** 	    set_imagen(2,imagen);
 1076              		.loc 1 254 0
 1077 0042 BB88     		ldrh	r3, [r7, #4]
 1078 0044 0220     		movs	r0, #2
 1079 0046 1946     		mov	r1, r3
 1080 0048 FFF7FEFF 		bl	set_imagen
 255:.\main.c      **** 	    flujo_LCD2=100;
 1081              		.loc 1 255 0
 1082 004c 0C4B     		ldr	r3, .L24+16
 1083 004e 6422     		movs	r2, #100
 1084 0050 1A70     		strb	r2, [r3]
 256:.\main.c      ****         lado2.estado=libre;
 1085              		.loc 1 256 0
 1086 0052 0C4B     		ldr	r3, .L24+20
 1087 0054 0122     		movs	r2, #1
 1088 0056 5A70     		strb	r2, [r3, #1]
 257:.\main.c      **** 		count_protector2=1;
 1089              		.loc 1 257 0
 1090 0058 0B4B     		ldr	r3, .L24+24
 1091 005a 0122     		movs	r2, #1
 1092 005c 1A70     		strb	r2, [r3]
 258:.\main.c      **** 	    isr_4_StartEx(animacion2);  
 1093              		.loc 1 258 0
 1094 005e 0B48     		ldr	r0, .L24+28
 1095 0060 FFF7FEFF 		bl	isr_4_StartEx
ARM GAS  C:\Users\RECEPC~1\AppData\Local\Temp\cckIP3O9.s 			page 25


 259:.\main.c      **** 	    Timer_Animacion2_Start();	
 1096              		.loc 1 259 0
 1097 0064 FFF7FEFF 		bl	Timer_Animacion2_Start
 1098              	.L21:
 260:.\main.c      **** 	}
 261:.\main.c      **** }
 1099              		.loc 1 261 0
 1100 0068 0837     		adds	r7, r7, #8
 1101              		.cfi_def_cfa_offset 8
 1102 006a BD46     		mov	sp, r7
 1103              		.cfi_def_cfa_register 13
 1104              		@ sp needed
 1105 006c 80BD     		pop	{r7, pc}
 1106              	.L25:
 1107 006e 00BF     		.align	2
 1108              	.L24:
 1109 0070 00000000 		.word	flujo_LCD1
 1110 0074 00000000 		.word	count_protector
 1111 0078 00000000 		.word	lado1
 1112 007c 00000000 		.word	animacion
 1113 0080 00000000 		.word	flujo_LCD2
 1114 0084 00000000 		.word	lado2
 1115 0088 00000000 		.word	count_protector2
 1116 008c 00000000 		.word	animacion2
 1117              		.cfi_endproc
 1118              	.LFE65:
 1119              		.size	error_op, .-error_op
 1120              		.section	.text.init_surt,"ax",%progbits
 1121              		.align	2
 1122              		.global	init_surt
 1123              		.thumb
 1124              		.thumb_func
 1125              		.type	init_surt, %function
 1126              	init_surt:
 1127              	.LFB66:
 262:.\main.c      **** 
 263:.\main.c      **** /*
 264:.\main.c      **** ***************************************************************************************************
 265:.\main.c      **** *                                         init_surt( void )
 266:.\main.c      **** *
 267:.\main.c      **** * Description : Busca las posiciones del surtidor y las graba en lado.a.dir y lado.b.dir
 268:.\main.c      **** *               
 269:.\main.c      **** *
 270:.\main.c      **** * Argument(s) : none
 271:.\main.c      **** *
 272:.\main.c      **** * Return(s)   : none
 273:.\main.c      **** *
 274:.\main.c      **** * Caller(s)   : main()
 275:.\main.c      **** *
 276:.\main.c      **** * Note(s)     : Falta generar codigo para los casos 1 y 2
 277:.\main.c      **** ***************************************************************************************************
 278:.\main.c      **** */
 279:.\main.c      **** void init_surt(void){
 1128              		.loc 1 279 0
 1129              		.cfi_startproc
 1130              		@ args = 0, pretend = 0, frame = 8
 1131              		@ frame_needed = 1, uses_anonymous_args = 0
ARM GAS  C:\Users\RECEPC~1\AppData\Local\Temp\cckIP3O9.s 			page 26


 1132 0000 80B5     		push	{r7, lr}
 1133              		.cfi_def_cfa_offset 8
 1134              		.cfi_offset 7, -8
 1135              		.cfi_offset 14, -4
 1136 0002 82B0     		sub	sp, sp, #8
 1137              		.cfi_def_cfa_offset 16
 1138 0004 00AF     		add	r7, sp, #0
 1139              		.cfi_def_cfa_register 7
 280:.\main.c      **** 	uint8 estado, ok=0;
 1140              		.loc 1 280 0
 1141 0006 0023     		movs	r3, #0
 1142 0008 FB71     		strb	r3, [r7, #7]
 281:.\main.c      **** 	while(ok!=2){
 1143              		.loc 1 281 0
 1144 000a 71E1     		b	.L27
 1145              	.L56:
 282:.\main.c      **** 		ok=0;
 1146              		.loc 1 282 0
 1147 000c 0023     		movs	r3, #0
 1148 000e FB71     		strb	r3, [r7, #7]
 283:.\main.c      **** 		if((lado1.dir==0xFF)||(lado2.dir==0xFF)){
 1149              		.loc 1 283 0
 1150 0010 BB4B     		ldr	r3, .L57
 1151 0012 1B78     		ldrb	r3, [r3]
 1152 0014 DBB2     		uxtb	r3, r3
 1153 0016 FF2B     		cmp	r3, #255
 1154 0018 04D0     		beq	.L28
 1155              		.loc 1 283 0 is_stmt 0 discriminator 1
 1156 001a BA4B     		ldr	r3, .L57+4
 1157 001c 1B78     		ldrb	r3, [r3]
 1158 001e DBB2     		uxtb	r3, r3
 1159 0020 FF2B     		cmp	r3, #255
 1160 0022 58D1     		bne	.L29
 1161              	.L28:
 284:.\main.c      **** 			while(ver_pos()==0){};
 1162              		.loc 1 284 0 is_stmt 1
 1163 0024 00BF     		nop
 1164              	.L30:
 1165              		.loc 1 284 0 is_stmt 0 discriminator 1
 1166 0026 FFF7FEFF 		bl	ver_pos
 1167 002a 0346     		mov	r3, r0
 1168 002c 002B     		cmp	r3, #0
 1169 002e FAD0     		beq	.L30
 285:.\main.c      **** 		    while(totales(lado1.dir, lado1.mangueras)==0);			
 1170              		.loc 1 285 0 is_stmt 1
 1171 0030 00BF     		nop
 1172              	.L31:
 1173              		.loc 1 285 0 is_stmt 0 discriminator 1
 1174 0032 B34B     		ldr	r3, .L57
 1175 0034 1B78     		ldrb	r3, [r3]
 1176 0036 DAB2     		uxtb	r2, r3
 1177 0038 B14B     		ldr	r3, .L57
 1178 003a 93F85C30 		ldrb	r3, [r3, #92]
 1179 003e DBB2     		uxtb	r3, r3
 1180 0040 1046     		mov	r0, r2
 1181 0042 1946     		mov	r1, r3
 1182 0044 FFF7FEFF 		bl	totales
ARM GAS  C:\Users\RECEPC~1\AppData\Local\Temp\cckIP3O9.s 			page 27


 1183 0048 0346     		mov	r3, r0
 1184 004a 002B     		cmp	r3, #0
 1185 004c F1D0     		beq	.L31
 286:.\main.c      **** 			CyDelay(50);	
 1186              		.loc 1 286 0 is_stmt 1
 1187 004e 3220     		movs	r0, #50
 1188 0050 FFF7FEFF 		bl	CyDelay
 287:.\main.c      **** 			while(totales(lado2.dir, lado2.mangueras)==0);
 1189              		.loc 1 287 0
 1190 0054 00BF     		nop
 1191              	.L32:
 1192              		.loc 1 287 0 is_stmt 0 discriminator 1
 1193 0056 AB4B     		ldr	r3, .L57+4
 1194 0058 1B78     		ldrb	r3, [r3]
 1195 005a DAB2     		uxtb	r2, r3
 1196 005c A94B     		ldr	r3, .L57+4
 1197 005e 93F85C30 		ldrb	r3, [r3, #92]
 1198 0062 DBB2     		uxtb	r3, r3
 1199 0064 1046     		mov	r0, r2
 1200 0066 1946     		mov	r1, r3
 1201 0068 FFF7FEFF 		bl	totales
 1202 006c 0346     		mov	r3, r0
 1203 006e 002B     		cmp	r3, #0
 1204 0070 F1D0     		beq	.L32
 288:.\main.c      **** 			CyDelay(50);	
 1205              		.loc 1 288 0 is_stmt 1
 1206 0072 3220     		movs	r0, #50
 1207 0074 FFF7FEFF 		bl	CyDelay
 289:.\main.c      **** 			if(EEPROM_WriteByte(lado1.dir, 26)==CYRET_SUCCESS){
 1208              		.loc 1 289 0
 1209 0078 A14B     		ldr	r3, .L57
 1210 007a 1B78     		ldrb	r3, [r3]
 1211 007c DBB2     		uxtb	r3, r3
 1212 007e 1846     		mov	r0, r3
 1213 0080 1A21     		movs	r1, #26
 1214 0082 FFF7FEFF 		bl	EEPROM_WriteByte
 1215 0086 0346     		mov	r3, r0
 1216 0088 002B     		cmp	r3, #0
 1217 008a 04D1     		bne	.L33
 290:.\main.c      **** 				set_imagen(1,60);								
 1218              		.loc 1 290 0
 1219 008c 0120     		movs	r0, #1
 1220 008e 3C21     		movs	r1, #60
 1221 0090 FFF7FEFF 		bl	set_imagen
 1222 0094 03E0     		b	.L34
 1223              	.L33:
 291:.\main.c      **** 			}
 292:.\main.c      **** 			else{
 293:.\main.c      **** 				set_imagen(1,85);
 1224              		.loc 1 293 0
 1225 0096 0120     		movs	r0, #1
 1226 0098 5521     		movs	r1, #85
 1227 009a FFF7FEFF 		bl	set_imagen
 1228              	.L34:
 294:.\main.c      **** 			}
 295:.\main.c      **** 			if(EEPROM_WriteByte(lado2.dir, 28)==CYRET_SUCCESS){
 1229              		.loc 1 295 0
ARM GAS  C:\Users\RECEPC~1\AppData\Local\Temp\cckIP3O9.s 			page 28


 1230 009e 994B     		ldr	r3, .L57+4
 1231 00a0 1B78     		ldrb	r3, [r3]
 1232 00a2 DBB2     		uxtb	r3, r3
 1233 00a4 1846     		mov	r0, r3
 1234 00a6 1C21     		movs	r1, #28
 1235 00a8 FFF7FEFF 		bl	EEPROM_WriteByte
 1236 00ac 0346     		mov	r3, r0
 1237 00ae 002B     		cmp	r3, #0
 1238 00b0 04D1     		bne	.L35
 296:.\main.c      **** 				set_imagen(2,60);								
 1239              		.loc 1 296 0
 1240 00b2 0220     		movs	r0, #2
 1241 00b4 3C21     		movs	r1, #60
 1242 00b6 FFF7FEFF 		bl	set_imagen
 1243 00ba 03E0     		b	.L36
 1244              	.L35:
 297:.\main.c      **** 			}
 298:.\main.c      **** 			else{
 299:.\main.c      **** 				set_imagen(2,85);
 1245              		.loc 1 299 0
 1246 00bc 0220     		movs	r0, #2
 1247 00be 5521     		movs	r1, #85
 1248 00c0 FFF7FEFF 		bl	set_imagen
 1249              	.L36:
 300:.\main.c      **** 			}
 301:.\main.c      **** 			flujo_LCD2=0;
 1250              		.loc 1 301 0
 1251 00c4 904B     		ldr	r3, .L57+8
 1252 00c6 0022     		movs	r2, #0
 1253 00c8 1A70     		strb	r2, [r3]
 302:.\main.c      **** 			flujo_LCD1=0;			
 1254              		.loc 1 302 0
 1255 00ca 904B     		ldr	r3, .L57+12
 1256 00cc 0022     		movs	r2, #0
 1257 00ce 1A70     		strb	r2, [r3]
 303:.\main.c      **** 			ok=2;	
 1258              		.loc 1 303 0
 1259 00d0 0223     		movs	r3, #2
 1260 00d2 FB71     		strb	r3, [r7, #7]
 1261 00d4 0CE1     		b	.L27
 1262              	.L29:
 304:.\main.c      **** 		}
 305:.\main.c      **** 		else{
 306:.\main.c      **** 			estado=get_estado(lado1.dir);										
 1263              		.loc 1 306 0
 1264 00d6 8A4B     		ldr	r3, .L57
 1265 00d8 1B78     		ldrb	r3, [r3]
 1266 00da DBB2     		uxtb	r3, r3
 1267 00dc 1846     		mov	r0, r3
 1268 00de FFF7FEFF 		bl	get_estado
 1269 00e2 0346     		mov	r3, r0
 1270 00e4 BB71     		strb	r3, [r7, #6]
 307:.\main.c      **** 			switch(estado){
 1271              		.loc 1 307 0
 1272 00e6 BB79     		ldrb	r3, [r7, #6]	@ zero_extendqisi2
 1273 00e8 0C2B     		cmp	r3, #12
 1274 00ea 7BD8     		bhi	.L37
ARM GAS  C:\Users\RECEPC~1\AppData\Local\Temp\cckIP3O9.s 			page 29


 1275 00ec 01A2     		adr	r2, .L39
 1276 00ee 52F823F0 		ldr	pc, [r2, r3, lsl #2]
 1277 00f2 00BF     		.p2align 2
 1278              	.L39:
 1279 00f4 29010000 		.word	.L38+1
 1280 00f8 E5010000 		.word	.L37+1
 1281 00fc E5010000 		.word	.L37+1
 1282 0100 E5010000 		.word	.L37+1
 1283 0104 E5010000 		.word	.L37+1
 1284 0108 E5010000 		.word	.L37+1
 1285 010c 31010000 		.word	.L40+1
 1286 0110 6D010000 		.word	.L41+1
 1287 0114 97010000 		.word	.L42+1
 1288 0118 A5010000 		.word	.L43+1
 1289 011c C1010000 		.word	.L44+1
 1290 0120 B3010000 		.word	.L45+1
 1291 0124 CF010000 		.word	.L46+1
 1292              		.p2align 1
 1293              	.L38:
 308:.\main.c      ****                 case 0:                     
 309:.\main.c      **** 					lado1.dir=0xFF;
 1294              		.loc 1 309 0
 1295 0128 754B     		ldr	r3, .L57
 1296 012a FF22     		movs	r2, #255
 1297 012c 1A70     		strb	r2, [r3]
 310:.\main.c      **** 				break;	
 1298              		.loc 1 310 0
 1299 012e 59E0     		b	.L37
 1300              	.L40:
 311:.\main.c      **** 				case 0x06:
 312:.\main.c      **** 					venta(lado1.dir);
 1301              		.loc 1 312 0
 1302 0130 734B     		ldr	r3, .L57
 1303 0132 1B78     		ldrb	r3, [r3]
 1304 0134 DBB2     		uxtb	r3, r3
 1305 0136 1846     		mov	r0, r3
 1306 0138 FFF7FEFF 		bl	venta
 313:.\main.c      **** 					CyDelay(50);	
 1307              		.loc 1 313 0
 1308 013c 3220     		movs	r0, #50
 1309 013e FFF7FEFF 		bl	CyDelay
 314:.\main.c      **** 					totales(lado1.dir, lado1.mangueras);
 1310              		.loc 1 314 0
 1311 0142 6F4B     		ldr	r3, .L57
 1312 0144 1B78     		ldrb	r3, [r3]
 1313 0146 DAB2     		uxtb	r2, r3
 1314 0148 6D4B     		ldr	r3, .L57
 1315 014a 93F85C30 		ldrb	r3, [r3, #92]
 1316 014e DBB2     		uxtb	r3, r3
 1317 0150 1046     		mov	r0, r2
 1318 0152 1946     		mov	r1, r3
 1319 0154 FFF7FEFF 		bl	totales
 315:.\main.c      **** 					CyDelay(50);	
 1320              		.loc 1 315 0
 1321 0158 3220     		movs	r0, #50
 1322 015a FFF7FEFF 		bl	CyDelay
 316:.\main.c      **** 					flujo_LCD1=0;					
ARM GAS  C:\Users\RECEPC~1\AppData\Local\Temp\cckIP3O9.s 			page 30


 1323              		.loc 1 316 0
 1324 015e 6B4B     		ldr	r3, .L57+12
 1325 0160 0022     		movs	r2, #0
 1326 0162 1A70     		strb	r2, [r3]
 317:.\main.c      **** 					ok++;
 1327              		.loc 1 317 0
 1328 0164 FB79     		ldrb	r3, [r7, #7]	@ zero_extendqisi2
 1329 0166 0133     		adds	r3, r3, #1
 1330 0168 FB71     		strb	r3, [r7, #7]
 318:.\main.c      **** 				break;
 1331              		.loc 1 318 0
 1332 016a 3BE0     		b	.L37
 1333              	.L41:
 319:.\main.c      **** 				case 0x07:	
 320:.\main.c      **** 					totales(lado1.dir, lado1.mangueras);
 1334              		.loc 1 320 0
 1335 016c 644B     		ldr	r3, .L57
 1336 016e 1B78     		ldrb	r3, [r3]
 1337 0170 DAB2     		uxtb	r2, r3
 1338 0172 634B     		ldr	r3, .L57
 1339 0174 93F85C30 		ldrb	r3, [r3, #92]
 1340 0178 DBB2     		uxtb	r3, r3
 1341 017a 1046     		mov	r0, r2
 1342 017c 1946     		mov	r1, r3
 1343 017e FFF7FEFF 		bl	totales
 321:.\main.c      **** 					CyDelay(50);	
 1344              		.loc 1 321 0
 1345 0182 3220     		movs	r0, #50
 1346 0184 FFF7FEFF 		bl	CyDelay
 322:.\main.c      **** 					flujo_LCD1=0;					
 1347              		.loc 1 322 0
 1348 0188 604B     		ldr	r3, .L57+12
 1349 018a 0022     		movs	r2, #0
 1350 018c 1A70     		strb	r2, [r3]
 323:.\main.c      **** 					ok++;
 1351              		.loc 1 323 0
 1352 018e FB79     		ldrb	r3, [r7, #7]	@ zero_extendqisi2
 1353 0190 0133     		adds	r3, r3, #1
 1354 0192 FB71     		strb	r3, [r7, #7]
 324:.\main.c      **** 				break;
 1355              		.loc 1 324 0
 1356 0194 26E0     		b	.L37
 1357              	.L42:
 325:.\main.c      **** 				case 0x08:
 326:.\main.c      **** 			     	flujo_LCD1=11;
 1358              		.loc 1 326 0
 1359 0196 5D4B     		ldr	r3, .L57+12
 1360 0198 0B22     		movs	r2, #11
 1361 019a 1A70     		strb	r2, [r3]
 327:.\main.c      **** 					ok++;
 1362              		.loc 1 327 0
 1363 019c FB79     		ldrb	r3, [r7, #7]	@ zero_extendqisi2
 1364 019e 0133     		adds	r3, r3, #1
 1365 01a0 FB71     		strb	r3, [r7, #7]
 328:.\main.c      **** 				break;	
 1366              		.loc 1 328 0
 1367 01a2 1FE0     		b	.L37
ARM GAS  C:\Users\RECEPC~1\AppData\Local\Temp\cckIP3O9.s 			page 31


 1368              	.L43:
 329:.\main.c      **** 				case 0x09:
 330:.\main.c      **** 			     	flujo_LCD1=11;
 1369              		.loc 1 330 0
 1370 01a4 594B     		ldr	r3, .L57+12
 1371 01a6 0B22     		movs	r2, #11
 1372 01a8 1A70     		strb	r2, [r3]
 331:.\main.c      **** 					ok++;
 1373              		.loc 1 331 0
 1374 01aa FB79     		ldrb	r3, [r7, #7]	@ zero_extendqisi2
 1375 01ac 0133     		adds	r3, r3, #1
 1376 01ae FB71     		strb	r3, [r7, #7]
 332:.\main.c      **** 				break;
 1377              		.loc 1 332 0
 1378 01b0 18E0     		b	.L37
 1379              	.L45:
 333:.\main.c      **** 		        case 0x0B:                     //Termino venta
 334:.\main.c      **** 					flujo_LCD1=12;
 1380              		.loc 1 334 0
 1381 01b2 564B     		ldr	r3, .L57+12
 1382 01b4 0C22     		movs	r2, #12
 1383 01b6 1A70     		strb	r2, [r3]
 335:.\main.c      **** 					ok++;
 1384              		.loc 1 335 0
 1385 01b8 FB79     		ldrb	r3, [r7, #7]	@ zero_extendqisi2
 1386 01ba 0133     		adds	r3, r3, #1
 1387 01bc FB71     		strb	r3, [r7, #7]
 336:.\main.c      **** 				break;		
 1388              		.loc 1 336 0
 1389 01be 11E0     		b	.L37
 1390              	.L44:
 337:.\main.c      **** 		        case 0x0A:						//Termino venta
 338:.\main.c      **** 					flujo_LCD1=12;
 1391              		.loc 1 338 0
 1392 01c0 524B     		ldr	r3, .L57+12
 1393 01c2 0C22     		movs	r2, #12
 1394 01c4 1A70     		strb	r2, [r3]
 339:.\main.c      **** 					ok++;
 1395              		.loc 1 339 0
 1396 01c6 FB79     		ldrb	r3, [r7, #7]	@ zero_extendqisi2
 1397 01c8 0133     		adds	r3, r3, #1
 1398 01ca FB71     		strb	r3, [r7, #7]
 340:.\main.c      **** 				break;
 1399              		.loc 1 340 0
 1400 01cc 0AE0     		b	.L37
 1401              	.L46:
 341:.\main.c      **** 		        case 0x0C:						//Bloqueado por surtiendo al iniciar
 342:.\main.c      **** 			     	flujo_LCD1=11;
 1402              		.loc 1 342 0
 1403 01ce 4F4B     		ldr	r3, .L57+12
 1404 01d0 0B22     		movs	r2, #11
 1405 01d2 1A70     		strb	r2, [r3]
 343:.\main.c      **** 				 	set_imagen(1,8);
 1406              		.loc 1 343 0
 1407 01d4 0120     		movs	r0, #1
 1408 01d6 0821     		movs	r1, #8
 1409 01d8 FFF7FEFF 		bl	set_imagen
ARM GAS  C:\Users\RECEPC~1\AppData\Local\Temp\cckIP3O9.s 			page 32


 344:.\main.c      **** 					ok++;
 1410              		.loc 1 344 0
 1411 01dc FB79     		ldrb	r3, [r7, #7]	@ zero_extendqisi2
 1412 01de 0133     		adds	r3, r3, #1
 1413 01e0 FB71     		strb	r3, [r7, #7]
 345:.\main.c      **** 				break;						
 1414              		.loc 1 345 0
 1415 01e2 00BF     		nop
 1416              	.L37:
 346:.\main.c      **** 			}
 347:.\main.c      **** 			estado=get_estado(lado2.dir);										
 1417              		.loc 1 347 0
 1418 01e4 474B     		ldr	r3, .L57+4
 1419 01e6 1B78     		ldrb	r3, [r3]
 1420 01e8 DBB2     		uxtb	r3, r3
 1421 01ea 1846     		mov	r0, r3
 1422 01ec FFF7FEFF 		bl	get_estado
 1423 01f0 0346     		mov	r3, r0
 1424 01f2 BB71     		strb	r3, [r7, #6]
 348:.\main.c      **** 			switch(estado){
 1425              		.loc 1 348 0
 1426 01f4 BB79     		ldrb	r3, [r7, #6]	@ zero_extendqisi2
 1427 01f6 0C2B     		cmp	r3, #12
 1428 01f8 7AD8     		bhi	.L27
 1429 01fa 01A2     		adr	r2, .L48
 1430 01fc 52F823F0 		ldr	pc, [r2, r3, lsl #2]
 1431              		.p2align 2
 1432              	.L48:
 1433 0200 35020000 		.word	.L47+1
 1434 0204 F1020000 		.word	.L27+1
 1435 0208 F1020000 		.word	.L27+1
 1436 020c F1020000 		.word	.L27+1
 1437 0210 F1020000 		.word	.L27+1
 1438 0214 F1020000 		.word	.L27+1
 1439 0218 3D020000 		.word	.L49+1
 1440 021c 79020000 		.word	.L50+1
 1441 0220 A3020000 		.word	.L51+1
 1442 0224 B1020000 		.word	.L52+1
 1443 0228 CD020000 		.word	.L53+1
 1444 022c BF020000 		.word	.L54+1
 1445 0230 DB020000 		.word	.L55+1
 1446              		.p2align 1
 1447              	.L47:
 349:.\main.c      **** 		        case 0:                     
 350:.\main.c      **** 					lado2.dir=0xFF;
 1448              		.loc 1 350 0
 1449 0234 334B     		ldr	r3, .L57+4
 1450 0236 FF22     		movs	r2, #255
 1451 0238 1A70     		strb	r2, [r3]
 351:.\main.c      **** 				break;	
 1452              		.loc 1 351 0
 1453 023a 59E0     		b	.L27
 1454              	.L49:
 352:.\main.c      **** 				case 0x06:
 353:.\main.c      **** 					venta(lado2.dir);
 1455              		.loc 1 353 0
 1456 023c 314B     		ldr	r3, .L57+4
ARM GAS  C:\Users\RECEPC~1\AppData\Local\Temp\cckIP3O9.s 			page 33


 1457 023e 1B78     		ldrb	r3, [r3]
 1458 0240 DBB2     		uxtb	r3, r3
 1459 0242 1846     		mov	r0, r3
 1460 0244 FFF7FEFF 		bl	venta
 354:.\main.c      **** 					CyDelay(50);		
 1461              		.loc 1 354 0
 1462 0248 3220     		movs	r0, #50
 1463 024a FFF7FEFF 		bl	CyDelay
 355:.\main.c      **** 					totales(lado2.dir, lado2.mangueras);
 1464              		.loc 1 355 0
 1465 024e 2D4B     		ldr	r3, .L57+4
 1466 0250 1B78     		ldrb	r3, [r3]
 1467 0252 DAB2     		uxtb	r2, r3
 1468 0254 2B4B     		ldr	r3, .L57+4
 1469 0256 93F85C30 		ldrb	r3, [r3, #92]
 1470 025a DBB2     		uxtb	r3, r3
 1471 025c 1046     		mov	r0, r2
 1472 025e 1946     		mov	r1, r3
 1473 0260 FFF7FEFF 		bl	totales
 356:.\main.c      **** 					CyDelay(50);	
 1474              		.loc 1 356 0
 1475 0264 3220     		movs	r0, #50
 1476 0266 FFF7FEFF 		bl	CyDelay
 357:.\main.c      **** 					flujo_LCD2=0;				
 1477              		.loc 1 357 0
 1478 026a 274B     		ldr	r3, .L57+8
 1479 026c 0022     		movs	r2, #0
 1480 026e 1A70     		strb	r2, [r3]
 358:.\main.c      **** 					ok++;
 1481              		.loc 1 358 0
 1482 0270 FB79     		ldrb	r3, [r7, #7]	@ zero_extendqisi2
 1483 0272 0133     		adds	r3, r3, #1
 1484 0274 FB71     		strb	r3, [r7, #7]
 359:.\main.c      **** 				break;
 1485              		.loc 1 359 0
 1486 0276 3BE0     		b	.L27
 1487              	.L50:
 360:.\main.c      **** 				case 0x07:	
 361:.\main.c      **** 					totales(lado2.dir, lado2.mangueras);
 1488              		.loc 1 361 0
 1489 0278 224B     		ldr	r3, .L57+4
 1490 027a 1B78     		ldrb	r3, [r3]
 1491 027c DAB2     		uxtb	r2, r3
 1492 027e 214B     		ldr	r3, .L57+4
 1493 0280 93F85C30 		ldrb	r3, [r3, #92]
 1494 0284 DBB2     		uxtb	r3, r3
 1495 0286 1046     		mov	r0, r2
 1496 0288 1946     		mov	r1, r3
 1497 028a FFF7FEFF 		bl	totales
 362:.\main.c      **** 					CyDelay(50);	
 1498              		.loc 1 362 0
 1499 028e 3220     		movs	r0, #50
 1500 0290 FFF7FEFF 		bl	CyDelay
 363:.\main.c      **** 					flujo_LCD2=0;					
 1501              		.loc 1 363 0
 1502 0294 1C4B     		ldr	r3, .L57+8
 1503 0296 0022     		movs	r2, #0
ARM GAS  C:\Users\RECEPC~1\AppData\Local\Temp\cckIP3O9.s 			page 34


 1504 0298 1A70     		strb	r2, [r3]
 364:.\main.c      **** 					ok++;
 1505              		.loc 1 364 0
 1506 029a FB79     		ldrb	r3, [r7, #7]	@ zero_extendqisi2
 1507 029c 0133     		adds	r3, r3, #1
 1508 029e FB71     		strb	r3, [r7, #7]
 365:.\main.c      **** 				break;
 1509              		.loc 1 365 0
 1510 02a0 26E0     		b	.L27
 1511              	.L51:
 366:.\main.c      **** 				case 0x08:
 367:.\main.c      **** 			     	flujo_LCD2=11;
 1512              		.loc 1 367 0
 1513 02a2 194B     		ldr	r3, .L57+8
 1514 02a4 0B22     		movs	r2, #11
 1515 02a6 1A70     		strb	r2, [r3]
 368:.\main.c      **** 				 	//set_imagen(2,8);
 369:.\main.c      **** 					ok++;
 1516              		.loc 1 369 0
 1517 02a8 FB79     		ldrb	r3, [r7, #7]	@ zero_extendqisi2
 1518 02aa 0133     		adds	r3, r3, #1
 1519 02ac FB71     		strb	r3, [r7, #7]
 370:.\main.c      **** 				break;
 1520              		.loc 1 370 0
 1521 02ae 1FE0     		b	.L27
 1522              	.L52:
 371:.\main.c      **** 				case 0x09:
 372:.\main.c      **** 			     	flujo_LCD2=11;
 1523              		.loc 1 372 0
 1524 02b0 154B     		ldr	r3, .L57+8
 1525 02b2 0B22     		movs	r2, #11
 1526 02b4 1A70     		strb	r2, [r3]
 373:.\main.c      **** 				 	//set_imagen(2,8);
 374:.\main.c      **** 					ok++;
 1527              		.loc 1 374 0
 1528 02b6 FB79     		ldrb	r3, [r7, #7]	@ zero_extendqisi2
 1529 02b8 0133     		adds	r3, r3, #1
 1530 02ba FB71     		strb	r3, [r7, #7]
 375:.\main.c      **** 				break;
 1531              		.loc 1 375 0
 1532 02bc 18E0     		b	.L27
 1533              	.L54:
 376:.\main.c      **** 		        case 0x0B:                     //Termino venta
 377:.\main.c      **** 					flujo_LCD2=12;
 1534              		.loc 1 377 0
 1535 02be 124B     		ldr	r3, .L57+8
 1536 02c0 0C22     		movs	r2, #12
 1537 02c2 1A70     		strb	r2, [r3]
 378:.\main.c      **** 					ok++;
 1538              		.loc 1 378 0
 1539 02c4 FB79     		ldrb	r3, [r7, #7]	@ zero_extendqisi2
 1540 02c6 0133     		adds	r3, r3, #1
 1541 02c8 FB71     		strb	r3, [r7, #7]
 379:.\main.c      **** 				break;	
 1542              		.loc 1 379 0
 1543 02ca 11E0     		b	.L27
 1544              	.L53:
ARM GAS  C:\Users\RECEPC~1\AppData\Local\Temp\cckIP3O9.s 			page 35


 380:.\main.c      **** 		        case 0x0A:						//Termino venta
 381:.\main.c      **** 					flujo_LCD2=12;
 1545              		.loc 1 381 0
 1546 02cc 0E4B     		ldr	r3, .L57+8
 1547 02ce 0C22     		movs	r2, #12
 1548 02d0 1A70     		strb	r2, [r3]
 382:.\main.c      **** 					ok++;
 1549              		.loc 1 382 0
 1550 02d2 FB79     		ldrb	r3, [r7, #7]	@ zero_extendqisi2
 1551 02d4 0133     		adds	r3, r3, #1
 1552 02d6 FB71     		strb	r3, [r7, #7]
 383:.\main.c      **** 				break;
 1553              		.loc 1 383 0
 1554 02d8 0AE0     		b	.L27
 1555              	.L55:
 384:.\main.c      **** 		        case 0x0C:						//Bloqueado por surtiendo al iniciar
 385:.\main.c      **** 			     	flujo_LCD2=11;
 1556              		.loc 1 385 0
 1557 02da 0B4B     		ldr	r3, .L57+8
 1558 02dc 0B22     		movs	r2, #11
 1559 02de 1A70     		strb	r2, [r3]
 386:.\main.c      **** 				 	set_imagen(2,8);
 1560              		.loc 1 386 0
 1561 02e0 0220     		movs	r0, #2
 1562 02e2 0821     		movs	r1, #8
 1563 02e4 FFF7FEFF 		bl	set_imagen
 387:.\main.c      **** 					ok++;
 1564              		.loc 1 387 0
 1565 02e8 FB79     		ldrb	r3, [r7, #7]	@ zero_extendqisi2
 1566 02ea 0133     		adds	r3, r3, #1
 1567 02ec FB71     		strb	r3, [r7, #7]
 388:.\main.c      **** 				break;										
 1568              		.loc 1 388 0
 1569 02ee 00BF     		nop
 1570              	.L27:
 281:.\main.c      **** 		ok=0;
 1571              		.loc 1 281 0
 1572 02f0 FB79     		ldrb	r3, [r7, #7]	@ zero_extendqisi2
 1573 02f2 022B     		cmp	r3, #2
 1574 02f4 7FF48AAE 		bne	.L56
 389:.\main.c      **** 			}			
 390:.\main.c      **** 		}
 391:.\main.c      **** 	}
 392:.\main.c      **** }
 1575              		.loc 1 392 0
 1576 02f8 0837     		adds	r7, r7, #8
 1577              		.cfi_def_cfa_offset 8
 1578 02fa BD46     		mov	sp, r7
 1579              		.cfi_def_cfa_register 13
 1580              		@ sp needed
 1581 02fc 80BD     		pop	{r7, pc}
 1582              	.L58:
 1583 02fe 00BF     		.align	2
 1584              	.L57:
 1585 0300 00000000 		.word	lado1
 1586 0304 00000000 		.word	lado2
 1587 0308 00000000 		.word	flujo_LCD2
ARM GAS  C:\Users\RECEPC~1\AppData\Local\Temp\cckIP3O9.s 			page 36


 1588 030c 00000000 		.word	flujo_LCD1
 1589              		.cfi_endproc
 1590              	.LFE66:
 1591              		.size	init_surt, .-init_surt
 1592              		.section	.text.polling_rf,"ax",%progbits
 1593              		.align	2
 1594              		.global	polling_rf
 1595              		.thumb
 1596              		.thumb_func
 1597              		.type	polling_rf, %function
 1598              	polling_rf:
 1599              	.LFB67:
 393:.\main.c      **** 
 394:.\main.c      **** /*
 395:.\main.c      **** ***************************************************************************************************
 396:.\main.c      **** *                                         uint8 polling_rf(void)
 397:.\main.c      **** *
 398:.\main.c      **** * Description : 
 399:.\main.c      **** *               
 400:.\main.c      **** *
 401:.\main.c      **** * Argument(s) : none
 402:.\main.c      **** *
 403:.\main.c      **** * Return(s)   : none
 404:.\main.c      **** *
 405:.\main.c      **** * Caller(s)   : 
 406:.\main.c      **** *
 407:.\main.c      **** * Note(s)     : none.
 408:.\main.c      **** ***************************************************************************************************
 409:.\main.c      **** */
 410:.\main.c      **** void polling_rf(void){
 1600              		.loc 1 410 0
 1601              		.cfi_startproc
 1602              		@ args = 0, pretend = 0, frame = 24
 1603              		@ frame_needed = 1, uses_anonymous_args = 0
 1604 0000 80B5     		push	{r7, lr}
 1605              		.cfi_def_cfa_offset 8
 1606              		.cfi_offset 7, -8
 1607              		.cfi_offset 14, -4
 1608 0002 86B0     		sub	sp, sp, #24
 1609              		.cfi_def_cfa_offset 32
 1610 0004 00AF     		add	r7, sp, #0
 1611              		.cfi_def_cfa_register 7
 411:.\main.c      **** 	uint16 status1, status2,size,x,t_preset;
 412:.\main.c      **** 	uint8  precio[5],preset[8];
 413:.\main.c      ****     
 414:.\main.c      **** 	if(PC_GetRxBufferSize()>=6){
 1612              		.loc 1 414 0
 1613 0006 FFF7FEFF 		bl	PC_GetRxBufferSize
 1614 000a 0346     		mov	r3, r0
 1615 000c 052B     		cmp	r3, #5
 1616 000e 40F29F85 		bls	.L59
 415:.\main.c      **** 		status1=PC_GetRxBufferSize();
 1617              		.loc 1 415 0
 1618 0012 FFF7FEFF 		bl	PC_GetRxBufferSize
 1619 0016 0346     		mov	r3, r0
 1620 0018 3B82     		strh	r3, [r7, #16]	@ movhi
 416:.\main.c      **** 		CyDelay(10);
ARM GAS  C:\Users\RECEPC~1\AppData\Local\Temp\cckIP3O9.s 			page 37


 1621              		.loc 1 416 0
 1622 001a 0A20     		movs	r0, #10
 1623 001c FFF7FEFF 		bl	CyDelay
 417:.\main.c      **** 		status2=PC_GetRxBufferSize();
 1624              		.loc 1 417 0
 1625 0020 FFF7FEFF 		bl	PC_GetRxBufferSize
 1626 0024 0346     		mov	r3, r0
 1627 0026 FB81     		strh	r3, [r7, #14]	@ movhi
 418:.\main.c      **** 		if(status1==status2){		
 1628              		.loc 1 418 0
 1629 0028 3A8A     		ldrh	r2, [r7, #16]
 1630 002a FB89     		ldrh	r3, [r7, #14]
 1631 002c 9A42     		cmp	r2, r3
 1632 002e 40F08F85 		bne	.L59
 419:.\main.c      **** 			if((PC_rxBuffer[0]=='B')&&(PC_rxBuffer[1]=='B')&&(PC_rxBuffer[2]=='B')){
 1633              		.loc 1 419 0
 1634 0032 954B     		ldr	r3, .L136
 1635 0034 1B78     		ldrb	r3, [r3]
 1636 0036 DBB2     		uxtb	r3, r3
 1637 0038 422B     		cmp	r3, #66
 1638 003a 40F08185 		bne	.L61
 1639              		.loc 1 419 0 is_stmt 0 discriminator 1
 1640 003e 924B     		ldr	r3, .L136
 1641 0040 5B78     		ldrb	r3, [r3, #1]
 1642 0042 DBB2     		uxtb	r3, r3
 1643 0044 422B     		cmp	r3, #66
 1644 0046 40F07B85 		bne	.L61
 1645              		.loc 1 419 0 discriminator 2
 1646 004a 8F4B     		ldr	r3, .L136
 1647 004c 9B78     		ldrb	r3, [r3, #2]
 1648 004e DBB2     		uxtb	r3, r3
 1649 0050 422B     		cmp	r3, #66
 1650 0052 40F07585 		bne	.L61
 420:.\main.c      **** 				ok_datosRF=0;   
 1651              		.loc 1 420 0 is_stmt 1
 1652 0056 8D4B     		ldr	r3, .L136+4
 1653 0058 0022     		movs	r2, #0
 1654 005a 1A70     		strb	r2, [r3]
 421:.\main.c      **** 				switch(PC_rxBuffer[3]){
 1655              		.loc 1 421 0
 1656 005c 8A4B     		ldr	r3, .L136
 1657 005e DB78     		ldrb	r3, [r3, #3]
 1658 0060 DBB2     		uxtb	r3, r3
 1659 0062 312B     		cmp	r3, #49
 1660 0064 00F08A84 		beq	.L63
 1661 0068 452B     		cmp	r3, #69
 1662 006a 00F0F084 		beq	.L64
 1663 006e 302B     		cmp	r3, #48
 1664 0070 40F05285 		bne	.L62
 422:.\main.c      **** 					case cautorizar:
 423:.\main.c      ****                         if(PC_rxBuffer[4]=='1'){
 1665              		.loc 1 423 0
 1666 0074 844B     		ldr	r3, .L136
 1667 0076 1B79     		ldrb	r3, [r3, #4]
 1668 0078 DBB2     		uxtb	r3, r3
 1669 007a 312B     		cmp	r3, #49
 1670 007c 40F03982 		bne	.L66
ARM GAS  C:\Users\RECEPC~1\AppData\Local\Temp\cckIP3O9.s 			page 38


 424:.\main.c      ****     						if(PC_rxBuffer[5]=='N'){			//No autorizo el servidor		
 1671              		.loc 1 424 0
 1672 0080 814B     		ldr	r3, .L136
 1673 0082 5B79     		ldrb	r3, [r3, #5]
 1674 0084 DBB2     		uxtb	r3, r3
 1675 0086 4E2B     		cmp	r3, #78
 1676 0088 0BD1     		bne	.L67
 425:.\main.c      ****     							error_op((PC_rxBuffer[4] & 0x0F),28);
 1677              		.loc 1 425 0
 1678 008a 7F4B     		ldr	r3, .L136
 1679 008c 1B79     		ldrb	r3, [r3, #4]
 1680 008e DBB2     		uxtb	r3, r3
 1681 0090 03F00F03 		and	r3, r3, #15
 1682 0094 DBB2     		uxtb	r3, r3
 1683 0096 1846     		mov	r0, r3
 1684 0098 1C21     		movs	r1, #28
 1685 009a FFF7FEFF 		bl	error_op
 426:.\main.c      ****     							break;
 1686              		.loc 1 426 0
 1687 009e 00F03BBD 		b	.L62
 1688              	.L67:
 427:.\main.c      ****     						}
 428:.\main.c      ****     						if(PC_rxBuffer[10]=='F'){		//Cambia precio
 1689              		.loc 1 428 0
 1690 00a2 794B     		ldr	r3, .L136
 1691 00a4 9B7A     		ldrb	r3, [r3, #10]
 1692 00a6 DBB2     		uxtb	r3, r3
 1693 00a8 462B     		cmp	r3, #70
 1694 00aa 7ED1     		bne	.L68
 429:.\main.c      ****                                 precio[0]=lado1.ppu[rventa1.manguera-1][0]&0x0f;	
 1695              		.loc 1 429 0
 1696 00ac 784B     		ldr	r3, .L136+8
 1697 00ae 9B7E     		ldrb	r3, [r3, #26]	@ zero_extendqisi2
 1698 00b0 5A1E     		subs	r2, r3, #1
 1699 00b2 7849     		ldr	r1, .L136+12
 1700 00b4 1346     		mov	r3, r2
 1701 00b6 9B00     		lsls	r3, r3, #2
 1702 00b8 1344     		add	r3, r3, r2
 1703 00ba 0B44     		add	r3, r3, r1
 1704 00bc 4833     		adds	r3, r3, #72
 1705 00be 9B78     		ldrb	r3, [r3, #2]
 1706 00c0 DBB2     		uxtb	r3, r3
 1707 00c2 03F00F03 		and	r3, r3, #15
 1708 00c6 DBB2     		uxtb	r3, r3
 1709 00c8 3B72     		strb	r3, [r7, #8]
 430:.\main.c      ****         						precio[1]=lado1.ppu[rventa1.manguera-1][1]&0x0f;
 1710              		.loc 1 430 0
 1711 00ca 714B     		ldr	r3, .L136+8
 1712 00cc 9B7E     		ldrb	r3, [r3, #26]	@ zero_extendqisi2
 1713 00ce 5A1E     		subs	r2, r3, #1
 1714 00d0 7049     		ldr	r1, .L136+12
 1715 00d2 1346     		mov	r3, r2
 1716 00d4 9B00     		lsls	r3, r3, #2
 1717 00d6 1344     		add	r3, r3, r2
 1718 00d8 0B44     		add	r3, r3, r1
 1719 00da 4933     		adds	r3, r3, #73
 1720 00dc 9B78     		ldrb	r3, [r3, #2]
ARM GAS  C:\Users\RECEPC~1\AppData\Local\Temp\cckIP3O9.s 			page 39


 1721 00de DBB2     		uxtb	r3, r3
 1722 00e0 03F00F03 		and	r3, r3, #15
 1723 00e4 DBB2     		uxtb	r3, r3
 1724 00e6 7B72     		strb	r3, [r7, #9]
 431:.\main.c      ****         						precio[2]=lado1.ppu[rventa1.manguera-1][2]&0x0f;
 1725              		.loc 1 431 0
 1726 00e8 694B     		ldr	r3, .L136+8
 1727 00ea 9B7E     		ldrb	r3, [r3, #26]	@ zero_extendqisi2
 1728 00ec 5A1E     		subs	r2, r3, #1
 1729 00ee 6949     		ldr	r1, .L136+12
 1730 00f0 1346     		mov	r3, r2
 1731 00f2 9B00     		lsls	r3, r3, #2
 1732 00f4 1344     		add	r3, r3, r2
 1733 00f6 0B44     		add	r3, r3, r1
 1734 00f8 4A33     		adds	r3, r3, #74
 1735 00fa 9B78     		ldrb	r3, [r3, #2]
 1736 00fc DBB2     		uxtb	r3, r3
 1737 00fe 03F00F03 		and	r3, r3, #15
 1738 0102 DBB2     		uxtb	r3, r3
 1739 0104 BB72     		strb	r3, [r7, #10]
 432:.\main.c      ****         						precio[3]=lado1.ppu[rventa1.manguera-1][3]&0x0f;
 1740              		.loc 1 432 0
 1741 0106 624B     		ldr	r3, .L136+8
 1742 0108 9B7E     		ldrb	r3, [r3, #26]	@ zero_extendqisi2
 1743 010a 5A1E     		subs	r2, r3, #1
 1744 010c 6149     		ldr	r1, .L136+12
 1745 010e 1346     		mov	r3, r2
 1746 0110 9B00     		lsls	r3, r3, #2
 1747 0112 1344     		add	r3, r3, r2
 1748 0114 0B44     		add	r3, r3, r1
 1749 0116 4B33     		adds	r3, r3, #75
 1750 0118 9B78     		ldrb	r3, [r3, #2]
 1751 011a DBB2     		uxtb	r3, r3
 1752 011c 03F00F03 		and	r3, r3, #15
 1753 0120 DBB2     		uxtb	r3, r3
 1754 0122 FB72     		strb	r3, [r7, #11]
 433:.\main.c      ****         						precio[4]=lado1.ppu[rventa1.manguera-1][4]&0x0f;
 1755              		.loc 1 433 0
 1756 0124 5A4B     		ldr	r3, .L136+8
 1757 0126 9B7E     		ldrb	r3, [r3, #26]	@ zero_extendqisi2
 1758 0128 5A1E     		subs	r2, r3, #1
 1759 012a 5A49     		ldr	r1, .L136+12
 1760 012c 1346     		mov	r3, r2
 1761 012e 9B00     		lsls	r3, r3, #2
 1762 0130 1344     		add	r3, r3, r2
 1763 0132 0B44     		add	r3, r3, r1
 1764 0134 4C33     		adds	r3, r3, #76
 1765 0136 9B78     		ldrb	r3, [r3, #2]
 1766 0138 DBB2     		uxtb	r3, r3
 1767 013a 03F00F03 		and	r3, r3, #15
 1768 013e DBB2     		uxtb	r3, r3
 1769 0140 3B73     		strb	r3, [r7, #12]
 434:.\main.c      ****                             	if(cambiar_precio((lado1.dir & 0x0F),precio,rventa1.manguera)==0){
 1770              		.loc 1 434 0
 1771 0142 544B     		ldr	r3, .L136+12
 1772 0144 1B78     		ldrb	r3, [r3]
 1773 0146 DBB2     		uxtb	r3, r3
ARM GAS  C:\Users\RECEPC~1\AppData\Local\Temp\cckIP3O9.s 			page 40


 1774 0148 03F00F03 		and	r3, r3, #15
 1775 014c D9B2     		uxtb	r1, r3
 1776 014e 504B     		ldr	r3, .L136+8
 1777 0150 9B7E     		ldrb	r3, [r3, #26]	@ zero_extendqisi2
 1778 0152 07F10802 		add	r2, r7, #8
 1779 0156 0846     		mov	r0, r1
 1780 0158 1146     		mov	r1, r2
 1781 015a 1A46     		mov	r2, r3
 1782 015c FFF7FEFF 		bl	cambiar_precio
 1783 0160 0346     		mov	r3, r0
 1784 0162 002B     		cmp	r3, #0
 1785 0164 40F09C80 		bne	.L69
 435:.\main.c      ****     								rf_mod[0]='M';
 1786              		.loc 1 435 0
 1787 0168 4B4B     		ldr	r3, .L136+16
 1788 016a 4D22     		movs	r2, #77
 1789 016c 1A70     		strb	r2, [r3]
 436:.\main.c      ****     								rf_mod[1]='U';
 1790              		.loc 1 436 0
 1791 016e 4A4B     		ldr	r3, .L136+16
 1792 0170 5522     		movs	r2, #85
 1793 0172 5A70     		strb	r2, [r3, #1]
 437:.\main.c      ****     								rf_mod[2]='X';
 1794              		.loc 1 437 0
 1795 0174 484B     		ldr	r3, .L136+16
 1796 0176 5822     		movs	r2, #88
 1797 0178 9A70     		strb	r2, [r3, #2]
 438:.\main.c      ****     								rf_mod[3]=creset;
 1798              		.loc 1 438 0
 1799 017a 474B     		ldr	r3, .L136+16
 1800 017c 4522     		movs	r2, #69
 1801 017e DA70     		strb	r2, [r3, #3]
 439:.\main.c      ****     								rf_mod[4]=cautorizar;
 1802              		.loc 1 439 0
 1803 0180 454B     		ldr	r3, .L136+16
 1804 0182 3022     		movs	r2, #48
 1805 0184 1A71     		strb	r2, [r3, #4]
 440:.\main.c      ****     								rf_mod[5]=PC_rxBuffer[4];
 1806              		.loc 1 440 0
 1807 0186 404B     		ldr	r3, .L136
 1808 0188 1B79     		ldrb	r3, [r3, #4]
 1809 018a DAB2     		uxtb	r2, r3
 1810 018c 424B     		ldr	r3, .L136+16
 1811 018e 5A71     		strb	r2, [r3, #5]
 441:.\main.c      ****     								rf_mod[6]='1';
 1812              		.loc 1 441 0
 1813 0190 414B     		ldr	r3, .L136+16
 1814 0192 3122     		movs	r2, #49
 1815 0194 9A71     		strb	r2, [r3, #6]
 442:.\main.c      ****     								rf_mod[7]='*';
 1816              		.loc 1 442 0
 1817 0196 404B     		ldr	r3, .L136+16
 1818 0198 2A22     		movs	r2, #42
 1819 019a DA71     		strb	r2, [r3, #7]
 443:.\main.c      ****     								size=8;
 1820              		.loc 1 443 0
 1821 019c 0823     		movs	r3, #8
ARM GAS  C:\Users\RECEPC~1\AppData\Local\Temp\cckIP3O9.s 			page 41


 1822 019e FB82     		strh	r3, [r7, #22]	@ movhi
 444:.\main.c      ****     								ok_datosRF=1;
 1823              		.loc 1 444 0
 1824 01a0 3A4B     		ldr	r3, .L136+4
 1825 01a2 0122     		movs	r2, #1
 1826 01a4 1A70     		strb	r2, [r3]
 445:.\main.c      ****     								break;
 1827              		.loc 1 445 0
 1828 01a6 00F0B7BC 		b	.L62
 1829              	.L68:
 446:.\main.c      ****     							}                                                      
 447:.\main.c      ****       						}
 448:.\main.c      ****                             else{
 449:.\main.c      ****     							totales(lado1.dir, lado1.mangueras);
 1830              		.loc 1 449 0
 1831 01aa 3A4B     		ldr	r3, .L136+12
 1832 01ac 1B78     		ldrb	r3, [r3]
 1833 01ae DAB2     		uxtb	r2, r3
 1834 01b0 384B     		ldr	r3, .L136+12
 1835 01b2 93F85C30 		ldrb	r3, [r3, #92]
 1836 01b6 DBB2     		uxtb	r3, r3
 1837 01b8 1046     		mov	r0, r2
 1838 01ba 1946     		mov	r1, r3
 1839 01bc FFF7FEFF 		bl	totales
 450:.\main.c      ****                                 if(ppux10==1){
 1840              		.loc 1 450 0
 1841 01c0 364B     		ldr	r3, .L136+20
 1842 01c2 1B78     		ldrb	r3, [r3]
 1843 01c4 DBB2     		uxtb	r3, r3
 1844 01c6 012B     		cmp	r3, #1
 1845 01c8 11D1     		bne	.L70
 451:.\main.c      ****         							precio[0]=PC_rxBuffer[9];	
 1846              		.loc 1 451 0
 1847 01ca 2F4B     		ldr	r3, .L136
 1848 01cc 5B7A     		ldrb	r3, [r3, #9]
 1849 01ce DBB2     		uxtb	r3, r3
 1850 01d0 3B72     		strb	r3, [r7, #8]
 452:.\main.c      ****         							precio[1]=PC_rxBuffer[8];
 1851              		.loc 1 452 0
 1852 01d2 2D4B     		ldr	r3, .L136
 1853 01d4 1B7A     		ldrb	r3, [r3, #8]
 1854 01d6 DBB2     		uxtb	r3, r3
 1855 01d8 7B72     		strb	r3, [r7, #9]
 453:.\main.c      ****         							precio[2]=PC_rxBuffer[7];
 1856              		.loc 1 453 0
 1857 01da 2B4B     		ldr	r3, .L136
 1858 01dc DB79     		ldrb	r3, [r3, #7]
 1859 01de DBB2     		uxtb	r3, r3
 1860 01e0 BB72     		strb	r3, [r7, #10]
 454:.\main.c      ****         							precio[3]=PC_rxBuffer[6];
 1861              		.loc 1 454 0
 1862 01e2 294B     		ldr	r3, .L136
 1863 01e4 9B79     		ldrb	r3, [r3, #6]
 1864 01e6 DBB2     		uxtb	r3, r3
 1865 01e8 FB72     		strb	r3, [r7, #11]
 455:.\main.c      ****         							precio[4]=0;			
 1866              		.loc 1 455 0
ARM GAS  C:\Users\RECEPC~1\AppData\Local\Temp\cckIP3O9.s 			page 42


 1867 01ea 0023     		movs	r3, #0
 1868 01ec 3B73     		strb	r3, [r7, #12]
 1869              	.L70:
 456:.\main.c      ****                                 }
 457:.\main.c      ****                                 if(ppux10==0){
 1870              		.loc 1 457 0
 1871 01ee 2B4B     		ldr	r3, .L136+20
 1872 01f0 1B78     		ldrb	r3, [r3]
 1873 01f2 DBB2     		uxtb	r3, r3
 1874 01f4 002B     		cmp	r3, #0
 1875 01f6 13D1     		bne	.L71
 458:.\main.c      ****         							precio[0]=PC_rxBuffer[10];	
 1876              		.loc 1 458 0
 1877 01f8 234B     		ldr	r3, .L136
 1878 01fa 9B7A     		ldrb	r3, [r3, #10]
 1879 01fc DBB2     		uxtb	r3, r3
 1880 01fe 3B72     		strb	r3, [r7, #8]
 459:.\main.c      ****         							precio[1]=PC_rxBuffer[9];
 1881              		.loc 1 459 0
 1882 0200 214B     		ldr	r3, .L136
 1883 0202 5B7A     		ldrb	r3, [r3, #9]
 1884 0204 DBB2     		uxtb	r3, r3
 1885 0206 7B72     		strb	r3, [r7, #9]
 460:.\main.c      ****         							precio[2]=PC_rxBuffer[8];
 1886              		.loc 1 460 0
 1887 0208 1F4B     		ldr	r3, .L136
 1888 020a 1B7A     		ldrb	r3, [r3, #8]
 1889 020c DBB2     		uxtb	r3, r3
 1890 020e BB72     		strb	r3, [r7, #10]
 461:.\main.c      ****         							precio[3]=PC_rxBuffer[7];
 1891              		.loc 1 461 0
 1892 0210 1D4B     		ldr	r3, .L136
 1893 0212 DB79     		ldrb	r3, [r3, #7]
 1894 0214 DBB2     		uxtb	r3, r3
 1895 0216 FB72     		strb	r3, [r7, #11]
 462:.\main.c      ****         							precio[4]=PC_rxBuffer[6];                            
 1896              		.loc 1 462 0
 1897 0218 1B4B     		ldr	r3, .L136
 1898 021a 9B79     		ldrb	r3, [r3, #6]
 1899 021c DBB2     		uxtb	r3, r3
 1900 021e 3B73     		strb	r3, [r7, #12]
 1901              	.L71:
 463:.\main.c      ****                                 }
 464:.\main.c      ****     							if(cambiar_precio((lado1.dir & 0x0F),precio,rventa1.manguera)==0){
 1902              		.loc 1 464 0
 1903 0220 1C4B     		ldr	r3, .L136+12
 1904 0222 1B78     		ldrb	r3, [r3]
 1905 0224 DBB2     		uxtb	r3, r3
 1906 0226 03F00F03 		and	r3, r3, #15
 1907 022a D9B2     		uxtb	r1, r3
 1908 022c 184B     		ldr	r3, .L136+8
 1909 022e 9B7E     		ldrb	r3, [r3, #26]	@ zero_extendqisi2
 1910 0230 07F10802 		add	r2, r7, #8
 1911 0234 0846     		mov	r0, r1
 1912 0236 1146     		mov	r1, r2
 1913 0238 1A46     		mov	r2, r3
 1914 023a FFF7FEFF 		bl	cambiar_precio
ARM GAS  C:\Users\RECEPC~1\AppData\Local\Temp\cckIP3O9.s 			page 43


 1915 023e 0346     		mov	r3, r0
 1916 0240 002B     		cmp	r3, #0
 1917 0242 2DD1     		bne	.L69
 465:.\main.c      ****     								rf_mod[0]='M';
 1918              		.loc 1 465 0
 1919 0244 144B     		ldr	r3, .L136+16
 1920 0246 4D22     		movs	r2, #77
 1921 0248 1A70     		strb	r2, [r3]
 466:.\main.c      ****     								rf_mod[1]='U';
 1922              		.loc 1 466 0
 1923 024a 134B     		ldr	r3, .L136+16
 1924 024c 5522     		movs	r2, #85
 1925 024e 5A70     		strb	r2, [r3, #1]
 467:.\main.c      ****     								rf_mod[2]='X';
 1926              		.loc 1 467 0
 1927 0250 114B     		ldr	r3, .L136+16
 1928 0252 5822     		movs	r2, #88
 1929 0254 9A70     		strb	r2, [r3, #2]
 468:.\main.c      ****     								rf_mod[3]=creset;
 1930              		.loc 1 468 0
 1931 0256 104B     		ldr	r3, .L136+16
 1932 0258 4522     		movs	r2, #69
 1933 025a DA70     		strb	r2, [r3, #3]
 469:.\main.c      ****     								rf_mod[4]=cautorizar;
 1934              		.loc 1 469 0
 1935 025c 0E4B     		ldr	r3, .L136+16
 1936 025e 3022     		movs	r2, #48
 1937 0260 1A71     		strb	r2, [r3, #4]
 470:.\main.c      ****     								rf_mod[5]=PC_rxBuffer[4];
 1938              		.loc 1 470 0
 1939 0262 094B     		ldr	r3, .L136
 1940 0264 1B79     		ldrb	r3, [r3, #4]
 1941 0266 DAB2     		uxtb	r2, r3
 1942 0268 0B4B     		ldr	r3, .L136+16
 1943 026a 5A71     		strb	r2, [r3, #5]
 471:.\main.c      ****     								rf_mod[6]='1';
 1944              		.loc 1 471 0
 1945 026c 0A4B     		ldr	r3, .L136+16
 1946 026e 3122     		movs	r2, #49
 1947 0270 9A71     		strb	r2, [r3, #6]
 472:.\main.c      ****     								rf_mod[7]='*';
 1948              		.loc 1 472 0
 1949 0272 094B     		ldr	r3, .L136+16
 1950 0274 2A22     		movs	r2, #42
 1951 0276 DA71     		strb	r2, [r3, #7]
 473:.\main.c      ****     								size=8;
 1952              		.loc 1 473 0
 1953 0278 0823     		movs	r3, #8
 1954 027a FB82     		strh	r3, [r7, #22]	@ movhi
 474:.\main.c      ****     								ok_datosRF=1;
 1955              		.loc 1 474 0
 1956 027c 034B     		ldr	r3, .L136+4
 1957 027e 0122     		movs	r2, #1
 1958 0280 1A70     		strb	r2, [r3]
 475:.\main.c      ****     								break;
 1959              		.loc 1 475 0
 1960 0282 00F049BC 		b	.L62
ARM GAS  C:\Users\RECEPC~1\AppData\Local\Temp\cckIP3O9.s 			page 44


 1961              	.L137:
 1962 0286 00BF     		.align	2
 1963              	.L136:
 1964 0288 00000000 		.word	PC_rxBuffer
 1965 028c 00000000 		.word	ok_datosRF
 1966 0290 00000000 		.word	rventa1
 1967 0294 00000000 		.word	lado1
 1968 0298 00000000 		.word	rf_mod
 1969 029c 00000000 		.word	ppux10
 1970              	.L69:
 476:.\main.c      ****     							}
 477:.\main.c      ****                             }
 478:.\main.c      ****     						preset[1]=PC_rxBuffer[17];				//Preset
 1971              		.loc 1 478 0
 1972 02a0 9C4B     		ldr	r3, .L138
 1973 02a2 5B7C     		ldrb	r3, [r3, #17]
 1974 02a4 DBB2     		uxtb	r3, r3
 1975 02a6 7B70     		strb	r3, [r7, #1]
 479:.\main.c      ****     						if(PC_rxBuffer[17]!=','){
 1976              		.loc 1 479 0
 1977 02a8 9A4B     		ldr	r3, .L138
 1978 02aa 5B7C     		ldrb	r3, [r3, #17]
 1979 02ac DBB2     		uxtb	r3, r3
 1980 02ae 2C2B     		cmp	r3, #44
 1981 02b0 06D0     		beq	.L72
 480:.\main.c      ****     							preset[1]=PC_rxBuffer[17] & 0x0F;
 1982              		.loc 1 480 0
 1983 02b2 984B     		ldr	r3, .L138
 1984 02b4 5B7C     		ldrb	r3, [r3, #17]
 1985 02b6 DBB2     		uxtb	r3, r3
 1986 02b8 03F00F03 		and	r3, r3, #15
 1987 02bc DBB2     		uxtb	r3, r3
 1988 02be 7B70     		strb	r3, [r7, #1]
 1989              	.L72:
 481:.\main.c      ****     						}
 482:.\main.c      ****     						preset[2]=PC_rxBuffer[16];
 1990              		.loc 1 482 0
 1991 02c0 944B     		ldr	r3, .L138
 1992 02c2 1B7C     		ldrb	r3, [r3, #16]
 1993 02c4 DBB2     		uxtb	r3, r3
 1994 02c6 BB70     		strb	r3, [r7, #2]
 483:.\main.c      ****     						if(PC_rxBuffer[16]!=','){
 1995              		.loc 1 483 0
 1996 02c8 924B     		ldr	r3, .L138
 1997 02ca 1B7C     		ldrb	r3, [r3, #16]
 1998 02cc DBB2     		uxtb	r3, r3
 1999 02ce 2C2B     		cmp	r3, #44
 2000 02d0 06D0     		beq	.L73
 484:.\main.c      ****     							preset[2]=PC_rxBuffer[16] & 0x0F;
 2001              		.loc 1 484 0
 2002 02d2 904B     		ldr	r3, .L138
 2003 02d4 1B7C     		ldrb	r3, [r3, #16]
 2004 02d6 DBB2     		uxtb	r3, r3
 2005 02d8 03F00F03 		and	r3, r3, #15
 2006 02dc DBB2     		uxtb	r3, r3
 2007 02de BB70     		strb	r3, [r7, #2]
 2008              	.L73:
ARM GAS  C:\Users\RECEPC~1\AppData\Local\Temp\cckIP3O9.s 			page 45


 485:.\main.c      ****     						}
 486:.\main.c      ****     						preset[3]=PC_rxBuffer[15];
 2009              		.loc 1 486 0
 2010 02e0 8C4B     		ldr	r3, .L138
 2011 02e2 DB7B     		ldrb	r3, [r3, #15]
 2012 02e4 DBB2     		uxtb	r3, r3
 2013 02e6 FB70     		strb	r3, [r7, #3]
 487:.\main.c      ****     						if(PC_rxBuffer[15]!=','){
 2014              		.loc 1 487 0
 2015 02e8 8A4B     		ldr	r3, .L138
 2016 02ea DB7B     		ldrb	r3, [r3, #15]
 2017 02ec DBB2     		uxtb	r3, r3
 2018 02ee 2C2B     		cmp	r3, #44
 2019 02f0 06D0     		beq	.L74
 488:.\main.c      ****     							preset[3]=PC_rxBuffer[15] & 0x0F;
 2020              		.loc 1 488 0
 2021 02f2 884B     		ldr	r3, .L138
 2022 02f4 DB7B     		ldrb	r3, [r3, #15]
 2023 02f6 DBB2     		uxtb	r3, r3
 2024 02f8 03F00F03 		and	r3, r3, #15
 2025 02fc DBB2     		uxtb	r3, r3
 2026 02fe FB70     		strb	r3, [r7, #3]
 2027              	.L74:
 489:.\main.c      ****     						}
 490:.\main.c      ****     						preset[4]=PC_rxBuffer[14];
 2028              		.loc 1 490 0
 2029 0300 844B     		ldr	r3, .L138
 2030 0302 9B7B     		ldrb	r3, [r3, #14]
 2031 0304 DBB2     		uxtb	r3, r3
 2032 0306 3B71     		strb	r3, [r7, #4]
 491:.\main.c      ****     						if(PC_rxBuffer[14]!=','){
 2033              		.loc 1 491 0
 2034 0308 824B     		ldr	r3, .L138
 2035 030a 9B7B     		ldrb	r3, [r3, #14]
 2036 030c DBB2     		uxtb	r3, r3
 2037 030e 2C2B     		cmp	r3, #44
 2038 0310 06D0     		beq	.L75
 492:.\main.c      ****     							preset[4]=PC_rxBuffer[14] & 0x0F;
 2039              		.loc 1 492 0
 2040 0312 804B     		ldr	r3, .L138
 2041 0314 9B7B     		ldrb	r3, [r3, #14]
 2042 0316 DBB2     		uxtb	r3, r3
 2043 0318 03F00F03 		and	r3, r3, #15
 2044 031c DBB2     		uxtb	r3, r3
 2045 031e 3B71     		strb	r3, [r7, #4]
 2046              	.L75:
 493:.\main.c      ****     						}
 494:.\main.c      ****     						preset[5]=PC_rxBuffer[13];
 2047              		.loc 1 494 0
 2048 0320 7C4B     		ldr	r3, .L138
 2049 0322 5B7B     		ldrb	r3, [r3, #13]
 2050 0324 DBB2     		uxtb	r3, r3
 2051 0326 7B71     		strb	r3, [r7, #5]
 495:.\main.c      ****     						if(PC_rxBuffer[13]!=','){
 2052              		.loc 1 495 0
 2053 0328 7A4B     		ldr	r3, .L138
 2054 032a 5B7B     		ldrb	r3, [r3, #13]
ARM GAS  C:\Users\RECEPC~1\AppData\Local\Temp\cckIP3O9.s 			page 46


 2055 032c DBB2     		uxtb	r3, r3
 2056 032e 2C2B     		cmp	r3, #44
 2057 0330 06D0     		beq	.L76
 496:.\main.c      ****     							preset[5]=PC_rxBuffer[13] & 0x0F;
 2058              		.loc 1 496 0
 2059 0332 784B     		ldr	r3, .L138
 2060 0334 5B7B     		ldrb	r3, [r3, #13]
 2061 0336 DBB2     		uxtb	r3, r3
 2062 0338 03F00F03 		and	r3, r3, #15
 2063 033c DBB2     		uxtb	r3, r3
 2064 033e 7B71     		strb	r3, [r7, #5]
 2065              	.L76:
 497:.\main.c      ****     						}
 498:.\main.c      ****     						preset[6]=PC_rxBuffer[12];
 2066              		.loc 1 498 0
 2067 0340 744B     		ldr	r3, .L138
 2068 0342 1B7B     		ldrb	r3, [r3, #12]
 2069 0344 DBB2     		uxtb	r3, r3
 2070 0346 BB71     		strb	r3, [r7, #6]
 499:.\main.c      ****     						if(PC_rxBuffer[12]!=','){
 2071              		.loc 1 499 0
 2072 0348 724B     		ldr	r3, .L138
 2073 034a 1B7B     		ldrb	r3, [r3, #12]
 2074 034c DBB2     		uxtb	r3, r3
 2075 034e 2C2B     		cmp	r3, #44
 2076 0350 06D0     		beq	.L77
 500:.\main.c      ****     							preset[6]=PC_rxBuffer[12] & 0x0F;
 2077              		.loc 1 500 0
 2078 0352 704B     		ldr	r3, .L138
 2079 0354 1B7B     		ldrb	r3, [r3, #12]
 2080 0356 DBB2     		uxtb	r3, r3
 2081 0358 03F00F03 		and	r3, r3, #15
 2082 035c DBB2     		uxtb	r3, r3
 2083 035e BB71     		strb	r3, [r7, #6]
 2084              	.L77:
 501:.\main.c      ****     						}
 502:.\main.c      ****     						preset[7]=PC_rxBuffer[11];
 2085              		.loc 1 502 0
 2086 0360 6C4B     		ldr	r3, .L138
 2087 0362 DB7A     		ldrb	r3, [r3, #11]
 2088 0364 DBB2     		uxtb	r3, r3
 2089 0366 FB71     		strb	r3, [r7, #7]
 503:.\main.c      ****     						if(PC_rxBuffer[11]!=','){
 2090              		.loc 1 503 0
 2091 0368 6A4B     		ldr	r3, .L138
 2092 036a DB7A     		ldrb	r3, [r3, #11]
 2093 036c DBB2     		uxtb	r3, r3
 2094 036e 2C2B     		cmp	r3, #44
 2095 0370 06D0     		beq	.L78
 504:.\main.c      ****     							preset[7]=PC_rxBuffer[11] & 0x0F;
 2096              		.loc 1 504 0
 2097 0372 684B     		ldr	r3, .L138
 2098 0374 DB7A     		ldrb	r3, [r3, #11]
 2099 0376 DBB2     		uxtb	r3, r3
 2100 0378 03F00F03 		and	r3, r3, #15
 2101 037c DBB2     		uxtb	r3, r3
 2102 037e FB71     		strb	r3, [r7, #7]
ARM GAS  C:\Users\RECEPC~1\AppData\Local\Temp\cckIP3O9.s 			page 47


 2103              	.L78:
 505:.\main.c      ****     						}
 506:.\main.c      ****     						t_preset=PC_rxBuffer[18];
 2104              		.loc 1 506 0
 2105 0380 644B     		ldr	r3, .L138
 2106 0382 9B7C     		ldrb	r3, [r3, #18]
 2107 0384 DBB2     		uxtb	r3, r3
 2108 0386 7B82     		strh	r3, [r7, #18]	@ movhi
 507:.\main.c      ****     						if(t_preset=='1'){
 2109              		.loc 1 507 0
 2110 0388 7B8A     		ldrh	r3, [r7, #18]
 2111 038a 312B     		cmp	r3, #49
 2112 038c 02D1     		bne	.L79
 508:.\main.c      ****     							t_preset=2;
 2113              		.loc 1 508 0
 2114 038e 0223     		movs	r3, #2
 2115 0390 7B82     		strh	r3, [r7, #18]	@ movhi
 2116 0392 01E0     		b	.L80
 2117              	.L79:
 509:.\main.c      ****     						}
 510:.\main.c      ****     						else{
 511:.\main.c      ****     							t_preset=1;
 2118              		.loc 1 511 0
 2119 0394 0123     		movs	r3, #1
 2120 0396 7B82     		strh	r3, [r7, #18]	@ movhi
 2121              	.L80:
 512:.\main.c      ****     						}
 513:.\main.c      ****     						if(programar((lado1.dir & 0x0F),rventa1.manguera,preset,t_preset)==1){		//Programar
 2122              		.loc 1 513 0
 2123 0398 5F4B     		ldr	r3, .L138+4
 2124 039a 1B78     		ldrb	r3, [r3]
 2125 039c DBB2     		uxtb	r3, r3
 2126 039e 03F00F03 		and	r3, r3, #15
 2127 03a2 D8B2     		uxtb	r0, r3
 2128 03a4 5D4B     		ldr	r3, .L138+8
 2129 03a6 997E     		ldrb	r1, [r3, #26]	@ zero_extendqisi2
 2130 03a8 7B8A     		ldrh	r3, [r7, #18]	@ movhi
 2131 03aa DBB2     		uxtb	r3, r3
 2132 03ac 3A46     		mov	r2, r7
 2133 03ae FFF7FEFF 		bl	programar
 2134 03b2 0346     		mov	r3, r0
 2135 03b4 012B     		cmp	r3, #1
 2136 03b6 7CD1     		bne	.L81
 514:.\main.c      ****                                 if(ppuinicial==0){                          
 2137              		.loc 1 514 0
 2138 03b8 594B     		ldr	r3, .L138+12
 2139 03ba 1B78     		ldrb	r3, [r3]	@ zero_extendqisi2
 2140 03bc 002B     		cmp	r3, #0
 2141 03be 5CD1     		bne	.L82
 515:.\main.c      ****                                     for(x=0;x<=4;x++){
 2142              		.loc 1 515 0
 2143 03c0 0023     		movs	r3, #0
 2144 03c2 BB82     		strh	r3, [r7, #20]	@ movhi
 2145 03c4 0EE0     		b	.L83
 2146              	.L84:
 516:.\main.c      ****                                 	    precio[x]=lado1.ppu[0][x];	    
 2147              		.loc 1 516 0 discriminator 3
ARM GAS  C:\Users\RECEPC~1\AppData\Local\Temp\cckIP3O9.s 			page 48


 2148 03c6 BB8A     		ldrh	r3, [r7, #20]
 2149 03c8 BA8A     		ldrh	r2, [r7, #20]
 2150 03ca 5349     		ldr	r1, .L138+4
 2151 03cc 0A44     		add	r2, r2, r1
 2152 03ce 92F84A20 		ldrb	r2, [r2, #74]
 2153 03d2 D2B2     		uxtb	r2, r2
 2154 03d4 07F11801 		add	r1, r7, #24
 2155 03d8 0B44     		add	r3, r3, r1
 2156 03da 03F8102C 		strb	r2, [r3, #-16]
 515:.\main.c      ****                                     for(x=0;x<=4;x++){
 2157              		.loc 1 515 0 discriminator 3
 2158 03de BB8A     		ldrh	r3, [r7, #20]
 2159 03e0 0133     		adds	r3, r3, #1
 2160 03e2 BB82     		strh	r3, [r7, #20]	@ movhi
 2161              	.L83:
 515:.\main.c      ****                                     for(x=0;x<=4;x++){
 2162              		.loc 1 515 0 is_stmt 0 discriminator 1
 2163 03e4 BB8A     		ldrh	r3, [r7, #20]
 2164 03e6 042B     		cmp	r3, #4
 2165 03e8 EDD9     		bls	.L84
 517:.\main.c      ****                                     }
 518:.\main.c      ****                                     cambiar_precio(lado1.dir,precio,1);    
 2166              		.loc 1 518 0 is_stmt 1
 2167 03ea 4B4B     		ldr	r3, .L138+4
 2168 03ec 1B78     		ldrb	r3, [r3]
 2169 03ee DAB2     		uxtb	r2, r3
 2170 03f0 07F10803 		add	r3, r7, #8
 2171 03f4 1046     		mov	r0, r2
 2172 03f6 1946     		mov	r1, r3
 2173 03f8 0122     		movs	r2, #1
 2174 03fa FFF7FEFF 		bl	cambiar_precio
 519:.\main.c      ****                                     for(x=0;x<=4;x++){
 2175              		.loc 1 519 0
 2176 03fe 0023     		movs	r3, #0
 2177 0400 BB82     		strh	r3, [r7, #20]	@ movhi
 2178 0402 0EE0     		b	.L85
 2179              	.L86:
 520:.\main.c      ****                                 	    precio[x]=lado1.ppu[1][x];	    
 2180              		.loc 1 520 0 discriminator 3
 2181 0404 BB8A     		ldrh	r3, [r7, #20]
 2182 0406 BA8A     		ldrh	r2, [r7, #20]
 2183 0408 4349     		ldr	r1, .L138+4
 2184 040a 0A44     		add	r2, r2, r1
 2185 040c 92F84F20 		ldrb	r2, [r2, #79]
 2186 0410 D2B2     		uxtb	r2, r2
 2187 0412 07F11801 		add	r1, r7, #24
 2188 0416 0B44     		add	r3, r3, r1
 2189 0418 03F8102C 		strb	r2, [r3, #-16]
 519:.\main.c      ****                                     for(x=0;x<=4;x++){
 2190              		.loc 1 519 0 discriminator 3
 2191 041c BB8A     		ldrh	r3, [r7, #20]
 2192 041e 0133     		adds	r3, r3, #1
 2193 0420 BB82     		strh	r3, [r7, #20]	@ movhi
 2194              	.L85:
 519:.\main.c      ****                                     for(x=0;x<=4;x++){
 2195              		.loc 1 519 0 is_stmt 0 discriminator 1
 2196 0422 BB8A     		ldrh	r3, [r7, #20]
ARM GAS  C:\Users\RECEPC~1\AppData\Local\Temp\cckIP3O9.s 			page 49


 2197 0424 042B     		cmp	r3, #4
 2198 0426 EDD9     		bls	.L86
 521:.\main.c      ****                                     }    
 522:.\main.c      ****                                     cambiar_precio(lado1.dir,precio,2);
 2199              		.loc 1 522 0 is_stmt 1
 2200 0428 3B4B     		ldr	r3, .L138+4
 2201 042a 1B78     		ldrb	r3, [r3]
 2202 042c DAB2     		uxtb	r2, r3
 2203 042e 07F10803 		add	r3, r7, #8
 2204 0432 1046     		mov	r0, r2
 2205 0434 1946     		mov	r1, r3
 2206 0436 0222     		movs	r2, #2
 2207 0438 FFF7FEFF 		bl	cambiar_precio
 523:.\main.c      ****                                     for(x=0;x<=4;x++){
 2208              		.loc 1 523 0
 2209 043c 0023     		movs	r3, #0
 2210 043e BB82     		strh	r3, [r7, #20]	@ movhi
 2211 0440 0EE0     		b	.L87
 2212              	.L88:
 524:.\main.c      ****                                 	    precio[x]=lado1.ppu[2][x];	    
 2213              		.loc 1 524 0 discriminator 3
 2214 0442 BB8A     		ldrh	r3, [r7, #20]
 2215 0444 BA8A     		ldrh	r2, [r7, #20]
 2216 0446 3449     		ldr	r1, .L138+4
 2217 0448 0A44     		add	r2, r2, r1
 2218 044a 92F85420 		ldrb	r2, [r2, #84]
 2219 044e D2B2     		uxtb	r2, r2
 2220 0450 07F11801 		add	r1, r7, #24
 2221 0454 0B44     		add	r3, r3, r1
 2222 0456 03F8102C 		strb	r2, [r3, #-16]
 523:.\main.c      ****                                     for(x=0;x<=4;x++){
 2223              		.loc 1 523 0 discriminator 3
 2224 045a BB8A     		ldrh	r3, [r7, #20]
 2225 045c 0133     		adds	r3, r3, #1
 2226 045e BB82     		strh	r3, [r7, #20]	@ movhi
 2227              	.L87:
 523:.\main.c      ****                                     for(x=0;x<=4;x++){
 2228              		.loc 1 523 0 is_stmt 0 discriminator 1
 2229 0460 BB8A     		ldrh	r3, [r7, #20]
 2230 0462 042B     		cmp	r3, #4
 2231 0464 EDD9     		bls	.L88
 525:.\main.c      ****                                     }
 526:.\main.c      ****                                     cambiar_precio(lado1.dir,precio,3);       
 2232              		.loc 1 526 0 is_stmt 1
 2233 0466 2C4B     		ldr	r3, .L138+4
 2234 0468 1B78     		ldrb	r3, [r3]
 2235 046a DAB2     		uxtb	r2, r3
 2236 046c 07F10803 		add	r3, r7, #8
 2237 0470 1046     		mov	r0, r2
 2238 0472 1946     		mov	r1, r3
 2239 0474 0322     		movs	r2, #3
 2240 0476 FFF7FEFF 		bl	cambiar_precio
 2241              	.L82:
 527:.\main.c      ****                                 }
 528:.\main.c      ****                                 CyDelay(10);
 2242              		.loc 1 528 0
 2243 047a 0A20     		movs	r0, #10
ARM GAS  C:\Users\RECEPC~1\AppData\Local\Temp\cckIP3O9.s 			page 50


 2244 047c FFF7FEFF 		bl	CyDelay
 529:.\main.c      ****     							Surtidor_PutChar(0x10|(lado1.dir & 0x0F));							
 2245              		.loc 1 529 0
 2246 0480 254B     		ldr	r3, .L138+4
 2247 0482 1B78     		ldrb	r3, [r3]
 2248 0484 DBB2     		uxtb	r3, r3
 2249 0486 DBB2     		uxtb	r3, r3
 2250 0488 03F00F03 		and	r3, r3, #15
 2251 048c DBB2     		uxtb	r3, r3
 2252 048e 43F01003 		orr	r3, r3, #16
 2253 0492 DBB2     		uxtb	r3, r3
 2254 0494 DBB2     		uxtb	r3, r3
 2255 0496 1846     		mov	r0, r3
 2256 0498 FFF7FEFF 		bl	Surtidor_PutChar
 530:.\main.c      ****     							lado1.estado=tanqueo;
 2257              		.loc 1 530 0
 2258 049c 1E4B     		ldr	r3, .L138+4
 2259 049e 0622     		movs	r2, #6
 2260 04a0 5A70     		strb	r2, [r3, #1]
 531:.\main.c      ****     							flujo_LCD1=11;
 2261              		.loc 1 531 0
 2262 04a2 204B     		ldr	r3, .L138+16
 2263 04a4 0B22     		movs	r2, #11
 2264 04a6 1A70     		strb	r2, [r3]
 532:.\main.c      ****     							set_imagen(1,8);
 2265              		.loc 1 532 0
 2266 04a8 0120     		movs	r0, #1
 2267 04aa 0821     		movs	r1, #8
 2268 04ac FFF7FEFF 		bl	set_imagen
 2269 04b0 63E2     		b	.L90
 2270              	.L81:
 533:.\main.c      ****     						}
 534:.\main.c      ****     						else{
 535:.\main.c      ****     							rf_mod[0]='M';
 2271              		.loc 1 535 0
 2272 04b2 1D4B     		ldr	r3, .L138+20
 2273 04b4 4D22     		movs	r2, #77
 2274 04b6 1A70     		strb	r2, [r3]
 536:.\main.c      ****     							rf_mod[1]='U';
 2275              		.loc 1 536 0
 2276 04b8 1B4B     		ldr	r3, .L138+20
 2277 04ba 5522     		movs	r2, #85
 2278 04bc 5A70     		strb	r2, [r3, #1]
 537:.\main.c      ****     							rf_mod[2]='X';
 2279              		.loc 1 537 0
 2280 04be 1A4B     		ldr	r3, .L138+20
 2281 04c0 5822     		movs	r2, #88
 2282 04c2 9A70     		strb	r2, [r3, #2]
 538:.\main.c      ****     							rf_mod[3]=creset;
 2283              		.loc 1 538 0
 2284 04c4 184B     		ldr	r3, .L138+20
 2285 04c6 4522     		movs	r2, #69
 2286 04c8 DA70     		strb	r2, [r3, #3]
 539:.\main.c      ****     							rf_mod[4]=cautorizar;
 2287              		.loc 1 539 0
 2288 04ca 174B     		ldr	r3, .L138+20
 2289 04cc 3022     		movs	r2, #48
ARM GAS  C:\Users\RECEPC~1\AppData\Local\Temp\cckIP3O9.s 			page 51


 2290 04ce 1A71     		strb	r2, [r3, #4]
 540:.\main.c      ****     							rf_mod[5]=PC_rxBuffer[4];
 2291              		.loc 1 540 0
 2292 04d0 104B     		ldr	r3, .L138
 2293 04d2 1B79     		ldrb	r3, [r3, #4]
 2294 04d4 DAB2     		uxtb	r2, r3
 2295 04d6 144B     		ldr	r3, .L138+20
 2296 04d8 5A71     		strb	r2, [r3, #5]
 541:.\main.c      ****     							rf_mod[6]='2';
 2297              		.loc 1 541 0
 2298 04da 134B     		ldr	r3, .L138+20
 2299 04dc 3222     		movs	r2, #50
 2300 04de 9A71     		strb	r2, [r3, #6]
 542:.\main.c      ****     							rf_mod[7]='*';
 2301              		.loc 1 542 0
 2302 04e0 114B     		ldr	r3, .L138+20
 2303 04e2 2A22     		movs	r2, #42
 2304 04e4 DA71     		strb	r2, [r3, #7]
 543:.\main.c      ****     							size=8;
 2305              		.loc 1 543 0
 2306 04e6 0823     		movs	r3, #8
 2307 04e8 FB82     		strh	r3, [r7, #22]	@ movhi
 544:.\main.c      ****     							ok_datosRF=1;							
 2308              		.loc 1 544 0
 2309 04ea 104B     		ldr	r3, .L138+24
 2310 04ec 0122     		movs	r2, #1
 2311 04ee 1A70     		strb	r2, [r3]
 545:.\main.c      ****     						}
 546:.\main.c      ****                         }else{////                        
 547:.\main.c      ****     						if(PC_rxBuffer[5]=='N'){			//No autorizo el servidor		
 548:.\main.c      ****     							error_op((PC_rxBuffer[4] & 0x0F),28);
 549:.\main.c      ****     							break;
 550:.\main.c      ****     						}
 551:.\main.c      ****     						if(PC_rxBuffer[10]=='F'){		//Cambia precio
 552:.\main.c      ****                                 precio[0]=lado2.ppu[rventa2.manguera-1][0]&0x0f;	
 553:.\main.c      ****         						precio[1]=lado2.ppu[rventa2.manguera-1][1]&0x0f;
 554:.\main.c      ****         						precio[2]=lado2.ppu[rventa2.manguera-1][2]&0x0f;
 555:.\main.c      ****         						precio[3]=lado2.ppu[rventa2.manguera-1][3]&0x0f;
 556:.\main.c      ****         						precio[4]=lado2.ppu[rventa2.manguera-1][4]&0x0f;
 557:.\main.c      ****                             	if(cambiar_precio((lado2.dir & 0x0F),precio,rventa2.manguera)==0){
 558:.\main.c      ****     								rf_mod[0]='M';
 559:.\main.c      ****     								rf_mod[1]='U';
 560:.\main.c      ****     								rf_mod[2]='X';
 561:.\main.c      ****     								rf_mod[3]=creset;
 562:.\main.c      ****     								rf_mod[4]=cautorizar;
 563:.\main.c      ****     								rf_mod[5]=PC_rxBuffer[4];
 564:.\main.c      ****     								rf_mod[6]='1';
 565:.\main.c      ****     								rf_mod[7]='*';
 566:.\main.c      ****     								size=8;
 567:.\main.c      ****     								ok_datosRF=1;
 568:.\main.c      ****     								break;
 569:.\main.c      ****     							}                                                      
 570:.\main.c      ****       						}
 571:.\main.c      ****                             else{
 572:.\main.c      ****     							totales(lado2.dir, lado2.mangueras);
 573:.\main.c      ****                                 if(ppux10==1){
 574:.\main.c      ****         							precio[0]=PC_rxBuffer[9];	
ARM GAS  C:\Users\RECEPC~1\AppData\Local\Temp\cckIP3O9.s 			page 52


 575:.\main.c      ****         							precio[1]=PC_rxBuffer[8];
 576:.\main.c      ****         							precio[2]=PC_rxBuffer[7];
 577:.\main.c      ****         							precio[3]=PC_rxBuffer[6];
 578:.\main.c      ****         							precio[4]=0;			
 579:.\main.c      ****                                 }
 580:.\main.c      ****                                 if(ppux10==0){
 581:.\main.c      ****         							precio[0]=PC_rxBuffer[10];	
 582:.\main.c      ****         							precio[1]=PC_rxBuffer[9];
 583:.\main.c      ****         							precio[2]=PC_rxBuffer[8];
 584:.\main.c      ****         							precio[3]=PC_rxBuffer[7];
 585:.\main.c      ****         							precio[4]=PC_rxBuffer[6];                            
 586:.\main.c      ****                                 }
 587:.\main.c      ****     							if(cambiar_precio((lado2.dir & 0x0F),precio,rventa2.manguera)==0){
 588:.\main.c      ****     								rf_mod[0]='M';
 589:.\main.c      ****     								rf_mod[1]='U';
 590:.\main.c      ****     								rf_mod[2]='X';
 591:.\main.c      ****     								rf_mod[3]=creset;
 592:.\main.c      ****     								rf_mod[4]=cautorizar;
 593:.\main.c      ****     								rf_mod[5]=PC_rxBuffer[4];
 594:.\main.c      ****     								rf_mod[6]='1';
 595:.\main.c      ****     								rf_mod[7]='*';
 596:.\main.c      ****     								size=8;
 597:.\main.c      ****     								ok_datosRF=1;
 598:.\main.c      ****     								break;
 599:.\main.c      ****     							}
 600:.\main.c      ****                             }
 601:.\main.c      ****     						preset[1]=PC_rxBuffer[17];				//Preset
 602:.\main.c      ****     						if(PC_rxBuffer[17]!=','){
 603:.\main.c      ****     							preset[1]=PC_rxBuffer[17] & 0x0F;
 604:.\main.c      ****     						}
 605:.\main.c      ****     						preset[2]=PC_rxBuffer[16];
 606:.\main.c      ****     						if(PC_rxBuffer[16]!=','){
 607:.\main.c      ****     							preset[2]=PC_rxBuffer[16] & 0x0F;
 608:.\main.c      ****     						}
 609:.\main.c      ****     						preset[3]=PC_rxBuffer[15];
 610:.\main.c      ****     						if(PC_rxBuffer[15]!=','){
 611:.\main.c      ****     							preset[3]=PC_rxBuffer[15] & 0x0F;
 612:.\main.c      ****     						}
 613:.\main.c      ****     						preset[4]=PC_rxBuffer[14];
 614:.\main.c      ****     						if(PC_rxBuffer[14]!=','){
 615:.\main.c      ****     							preset[4]=PC_rxBuffer[14] & 0x0F;
 616:.\main.c      ****     						}
 617:.\main.c      ****     						preset[5]=PC_rxBuffer[13];
 618:.\main.c      ****     						if(PC_rxBuffer[13]!=','){
 619:.\main.c      ****     							preset[5]=PC_rxBuffer[13] & 0x0F;
 620:.\main.c      ****     						}
 621:.\main.c      ****     						preset[6]=PC_rxBuffer[12];
 622:.\main.c      ****     						if(PC_rxBuffer[12]!=','){
 623:.\main.c      ****     							preset[6]=PC_rxBuffer[12] & 0x0F;
 624:.\main.c      ****     						}
 625:.\main.c      ****     						preset[7]=PC_rxBuffer[11];
 626:.\main.c      ****     						if(PC_rxBuffer[11]!=','){
 627:.\main.c      ****     							preset[7]=PC_rxBuffer[11] & 0x0F;
 628:.\main.c      ****     						}
 629:.\main.c      ****     						t_preset=PC_rxBuffer[18];
 630:.\main.c      ****     						if(t_preset=='1'){
 631:.\main.c      ****     							t_preset=2;
ARM GAS  C:\Users\RECEPC~1\AppData\Local\Temp\cckIP3O9.s 			page 53


 632:.\main.c      ****     						}
 633:.\main.c      ****     						else{
 634:.\main.c      ****     							t_preset=1;
 635:.\main.c      ****     						}
 636:.\main.c      ****     						if(programar((lado2.dir & 0x0F),rventa2.manguera,preset,t_preset)==1){		//Programar
 637:.\main.c      ****                                 if(ppuinicial==0){                          
 638:.\main.c      ****                                     for(x=0;x<=4;x++){
 639:.\main.c      ****                                 	    precio[x]=lado2.ppu[0][x];	    
 640:.\main.c      ****                                     }
 641:.\main.c      ****                                     cambiar_precio(lado2.dir,precio,1);    
 642:.\main.c      ****                                     for(x=0;x<=4;x++){
 643:.\main.c      ****                                 	    precio[x]=lado2.ppu[1][x];	    
 644:.\main.c      ****                                     }    
 645:.\main.c      ****                                     cambiar_precio(lado2.dir,precio,2);
 646:.\main.c      ****                                     for(x=0;x<=4;x++){
 647:.\main.c      ****                                 	    precio[x]=lado2.ppu[2][x];	    
 648:.\main.c      ****                                     }
 649:.\main.c      ****                                     cambiar_precio(lado2.dir,precio,3);       
 650:.\main.c      ****                                 }
 651:.\main.c      ****                                 CyDelay(10);
 652:.\main.c      ****     							Surtidor_PutChar(0x10|(lado2.dir & 0x0F));							
 653:.\main.c      ****     							lado2.estado=tanqueo;
 654:.\main.c      ****     							flujo_LCD2=11;
 655:.\main.c      ****     							set_imagen(2,8);
 656:.\main.c      ****     						}
 657:.\main.c      ****     						else{
 658:.\main.c      ****     							rf_mod[0]='M';
 659:.\main.c      ****     							rf_mod[1]='U';
 660:.\main.c      ****     							rf_mod[2]='X';
 661:.\main.c      ****     							rf_mod[3]=creset;
 662:.\main.c      ****     							rf_mod[4]=cautorizar;
 663:.\main.c      ****     							rf_mod[5]=PC_rxBuffer[4];
 664:.\main.c      ****     							rf_mod[6]='2';
 665:.\main.c      ****     							rf_mod[7]='*';
 666:.\main.c      ****     							size=8;
 667:.\main.c      ****     							ok_datosRF=1;							
 668:.\main.c      ****     						}                        
 669:.\main.c      ****                         }         
 670:.\main.c      **** 					break;
 2312              		.loc 1 670 0
 2313 04f0 12E3     		b	.L62
 2314              	.L66:
 547:.\main.c      ****     							error_op((PC_rxBuffer[4] & 0x0F),28);
 2315              		.loc 1 547 0
 2316 04f2 084B     		ldr	r3, .L138
 2317 04f4 5B79     		ldrb	r3, [r3, #5]
 2318 04f6 DBB2     		uxtb	r3, r3
 2319 04f8 4E2B     		cmp	r3, #78
 2320 04fa 19D1     		bne	.L91
 548:.\main.c      ****     							break;
 2321              		.loc 1 548 0
 2322 04fc 054B     		ldr	r3, .L138
 2323 04fe 1B79     		ldrb	r3, [r3, #4]
 2324 0500 DBB2     		uxtb	r3, r3
 2325 0502 03F00F03 		and	r3, r3, #15
 2326 0506 DBB2     		uxtb	r3, r3
 2327 0508 1846     		mov	r0, r3
ARM GAS  C:\Users\RECEPC~1\AppData\Local\Temp\cckIP3O9.s 			page 54


 2328 050a 1C21     		movs	r1, #28
 2329 050c FFF7FEFF 		bl	error_op
 549:.\main.c      ****     						}
 2330              		.loc 1 549 0
 2331 0510 02E3     		b	.L62
 2332              	.L139:
 2333 0512 00BF     		.align	2
 2334              	.L138:
 2335 0514 00000000 		.word	PC_rxBuffer
 2336 0518 00000000 		.word	lado1
 2337 051c 00000000 		.word	rventa1
 2338 0520 00000000 		.word	ppuinicial
 2339 0524 00000000 		.word	flujo_LCD1
 2340 0528 00000000 		.word	rf_mod
 2341 052c 00000000 		.word	ok_datosRF
 2342              	.L91:
 551:.\main.c      ****                                 precio[0]=lado2.ppu[rventa2.manguera-1][0]&0x0f;	
 2343              		.loc 1 551 0
 2344 0530 774B     		ldr	r3, .L140
 2345 0532 9B7A     		ldrb	r3, [r3, #10]
 2346 0534 DBB2     		uxtb	r3, r3
 2347 0536 462B     		cmp	r3, #70
 2348 0538 7DD1     		bne	.L92
 552:.\main.c      ****         						precio[1]=lado2.ppu[rventa2.manguera-1][1]&0x0f;
 2349              		.loc 1 552 0
 2350 053a 764B     		ldr	r3, .L140+4
 2351 053c 9B7E     		ldrb	r3, [r3, #26]	@ zero_extendqisi2
 2352 053e 5A1E     		subs	r2, r3, #1
 2353 0540 7549     		ldr	r1, .L140+8
 2354 0542 1346     		mov	r3, r2
 2355 0544 9B00     		lsls	r3, r3, #2
 2356 0546 1344     		add	r3, r3, r2
 2357 0548 0B44     		add	r3, r3, r1
 2358 054a 4833     		adds	r3, r3, #72
 2359 054c 9B78     		ldrb	r3, [r3, #2]
 2360 054e DBB2     		uxtb	r3, r3
 2361 0550 03F00F03 		and	r3, r3, #15
 2362 0554 DBB2     		uxtb	r3, r3
 2363 0556 3B72     		strb	r3, [r7, #8]
 553:.\main.c      ****         						precio[2]=lado2.ppu[rventa2.manguera-1][2]&0x0f;
 2364              		.loc 1 553 0
 2365 0558 6E4B     		ldr	r3, .L140+4
 2366 055a 9B7E     		ldrb	r3, [r3, #26]	@ zero_extendqisi2
 2367 055c 5A1E     		subs	r2, r3, #1
 2368 055e 6E49     		ldr	r1, .L140+8
 2369 0560 1346     		mov	r3, r2
 2370 0562 9B00     		lsls	r3, r3, #2
 2371 0564 1344     		add	r3, r3, r2
 2372 0566 0B44     		add	r3, r3, r1
 2373 0568 4933     		adds	r3, r3, #73
 2374 056a 9B78     		ldrb	r3, [r3, #2]
 2375 056c DBB2     		uxtb	r3, r3
 2376 056e 03F00F03 		and	r3, r3, #15
 2377 0572 DBB2     		uxtb	r3, r3
 2378 0574 7B72     		strb	r3, [r7, #9]
 554:.\main.c      ****         						precio[3]=lado2.ppu[rventa2.manguera-1][3]&0x0f;
 2379              		.loc 1 554 0
ARM GAS  C:\Users\RECEPC~1\AppData\Local\Temp\cckIP3O9.s 			page 55


 2380 0576 674B     		ldr	r3, .L140+4
 2381 0578 9B7E     		ldrb	r3, [r3, #26]	@ zero_extendqisi2
 2382 057a 5A1E     		subs	r2, r3, #1
 2383 057c 6649     		ldr	r1, .L140+8
 2384 057e 1346     		mov	r3, r2
 2385 0580 9B00     		lsls	r3, r3, #2
 2386 0582 1344     		add	r3, r3, r2
 2387 0584 0B44     		add	r3, r3, r1
 2388 0586 4A33     		adds	r3, r3, #74
 2389 0588 9B78     		ldrb	r3, [r3, #2]
 2390 058a DBB2     		uxtb	r3, r3
 2391 058c 03F00F03 		and	r3, r3, #15
 2392 0590 DBB2     		uxtb	r3, r3
 2393 0592 BB72     		strb	r3, [r7, #10]
 555:.\main.c      ****         						precio[4]=lado2.ppu[rventa2.manguera-1][4]&0x0f;
 2394              		.loc 1 555 0
 2395 0594 5F4B     		ldr	r3, .L140+4
 2396 0596 9B7E     		ldrb	r3, [r3, #26]	@ zero_extendqisi2
 2397 0598 5A1E     		subs	r2, r3, #1
 2398 059a 5F49     		ldr	r1, .L140+8
 2399 059c 1346     		mov	r3, r2
 2400 059e 9B00     		lsls	r3, r3, #2
 2401 05a0 1344     		add	r3, r3, r2
 2402 05a2 0B44     		add	r3, r3, r1
 2403 05a4 4B33     		adds	r3, r3, #75
 2404 05a6 9B78     		ldrb	r3, [r3, #2]
 2405 05a8 DBB2     		uxtb	r3, r3
 2406 05aa 03F00F03 		and	r3, r3, #15
 2407 05ae DBB2     		uxtb	r3, r3
 2408 05b0 FB72     		strb	r3, [r7, #11]
 556:.\main.c      ****                             	if(cambiar_precio((lado2.dir & 0x0F),precio,rventa2.manguera)==0){
 2409              		.loc 1 556 0
 2410 05b2 584B     		ldr	r3, .L140+4
 2411 05b4 9B7E     		ldrb	r3, [r3, #26]	@ zero_extendqisi2
 2412 05b6 5A1E     		subs	r2, r3, #1
 2413 05b8 5749     		ldr	r1, .L140+8
 2414 05ba 1346     		mov	r3, r2
 2415 05bc 9B00     		lsls	r3, r3, #2
 2416 05be 1344     		add	r3, r3, r2
 2417 05c0 0B44     		add	r3, r3, r1
 2418 05c2 4C33     		adds	r3, r3, #76
 2419 05c4 9B78     		ldrb	r3, [r3, #2]
 2420 05c6 DBB2     		uxtb	r3, r3
 2421 05c8 03F00F03 		and	r3, r3, #15
 2422 05cc DBB2     		uxtb	r3, r3
 2423 05ce 3B73     		strb	r3, [r7, #12]
 557:.\main.c      ****     								rf_mod[0]='M';
 2424              		.loc 1 557 0
 2425 05d0 514B     		ldr	r3, .L140+8
 2426 05d2 1B78     		ldrb	r3, [r3]
 2427 05d4 DBB2     		uxtb	r3, r3
 2428 05d6 03F00F03 		and	r3, r3, #15
 2429 05da D9B2     		uxtb	r1, r3
 2430 05dc 4D4B     		ldr	r3, .L140+4
 2431 05de 9B7E     		ldrb	r3, [r3, #26]	@ zero_extendqisi2
 2432 05e0 07F10802 		add	r2, r7, #8
 2433 05e4 0846     		mov	r0, r1
ARM GAS  C:\Users\RECEPC~1\AppData\Local\Temp\cckIP3O9.s 			page 56


 2434 05e6 1146     		mov	r1, r2
 2435 05e8 1A46     		mov	r2, r3
 2436 05ea FFF7FEFF 		bl	cambiar_precio
 2437 05ee 0346     		mov	r3, r0
 2438 05f0 002B     		cmp	r3, #0
 2439 05f2 40F09980 		bne	.L93
 558:.\main.c      ****     								rf_mod[1]='U';
 2440              		.loc 1 558 0
 2441 05f6 494B     		ldr	r3, .L140+12
 2442 05f8 4D22     		movs	r2, #77
 2443 05fa 1A70     		strb	r2, [r3]
 559:.\main.c      ****     								rf_mod[2]='X';
 2444              		.loc 1 559 0
 2445 05fc 474B     		ldr	r3, .L140+12
 2446 05fe 5522     		movs	r2, #85
 2447 0600 5A70     		strb	r2, [r3, #1]
 560:.\main.c      ****     								rf_mod[3]=creset;
 2448              		.loc 1 560 0
 2449 0602 464B     		ldr	r3, .L140+12
 2450 0604 5822     		movs	r2, #88
 2451 0606 9A70     		strb	r2, [r3, #2]
 561:.\main.c      ****     								rf_mod[4]=cautorizar;
 2452              		.loc 1 561 0
 2453 0608 444B     		ldr	r3, .L140+12
 2454 060a 4522     		movs	r2, #69
 2455 060c DA70     		strb	r2, [r3, #3]
 562:.\main.c      ****     								rf_mod[5]=PC_rxBuffer[4];
 2456              		.loc 1 562 0
 2457 060e 434B     		ldr	r3, .L140+12
 2458 0610 3022     		movs	r2, #48
 2459 0612 1A71     		strb	r2, [r3, #4]
 563:.\main.c      ****     								rf_mod[6]='1';
 2460              		.loc 1 563 0
 2461 0614 3E4B     		ldr	r3, .L140
 2462 0616 1B79     		ldrb	r3, [r3, #4]
 2463 0618 DAB2     		uxtb	r2, r3
 2464 061a 404B     		ldr	r3, .L140+12
 2465 061c 5A71     		strb	r2, [r3, #5]
 564:.\main.c      ****     								rf_mod[7]='*';
 2466              		.loc 1 564 0
 2467 061e 3F4B     		ldr	r3, .L140+12
 2468 0620 3122     		movs	r2, #49
 2469 0622 9A71     		strb	r2, [r3, #6]
 565:.\main.c      ****     								size=8;
 2470              		.loc 1 565 0
 2471 0624 3D4B     		ldr	r3, .L140+12
 2472 0626 2A22     		movs	r2, #42
 2473 0628 DA71     		strb	r2, [r3, #7]
 566:.\main.c      ****     								ok_datosRF=1;
 2474              		.loc 1 566 0
 2475 062a 0823     		movs	r3, #8
 2476 062c FB82     		strh	r3, [r7, #22]	@ movhi
 567:.\main.c      ****     								break;
 2477              		.loc 1 567 0
 2478 062e 3C4B     		ldr	r3, .L140+16
 2479 0630 0122     		movs	r2, #1
 2480 0632 1A70     		strb	r2, [r3]
ARM GAS  C:\Users\RECEPC~1\AppData\Local\Temp\cckIP3O9.s 			page 57


 568:.\main.c      ****     							}                                                      
 2481              		.loc 1 568 0
 2482 0634 70E2     		b	.L62
 2483              	.L92:
 572:.\main.c      ****                                 if(ppux10==1){
 2484              		.loc 1 572 0
 2485 0636 384B     		ldr	r3, .L140+8
 2486 0638 1B78     		ldrb	r3, [r3]
 2487 063a DAB2     		uxtb	r2, r3
 2488 063c 364B     		ldr	r3, .L140+8
 2489 063e 93F85C30 		ldrb	r3, [r3, #92]
 2490 0642 DBB2     		uxtb	r3, r3
 2491 0644 1046     		mov	r0, r2
 2492 0646 1946     		mov	r1, r3
 2493 0648 FFF7FEFF 		bl	totales
 573:.\main.c      ****         							precio[0]=PC_rxBuffer[9];	
 2494              		.loc 1 573 0
 2495 064c 354B     		ldr	r3, .L140+20
 2496 064e 1B78     		ldrb	r3, [r3]
 2497 0650 DBB2     		uxtb	r3, r3
 2498 0652 012B     		cmp	r3, #1
 2499 0654 11D1     		bne	.L94
 574:.\main.c      ****         							precio[1]=PC_rxBuffer[8];
 2500              		.loc 1 574 0
 2501 0656 2E4B     		ldr	r3, .L140
 2502 0658 5B7A     		ldrb	r3, [r3, #9]
 2503 065a DBB2     		uxtb	r3, r3
 2504 065c 3B72     		strb	r3, [r7, #8]
 575:.\main.c      ****         							precio[2]=PC_rxBuffer[7];
 2505              		.loc 1 575 0
 2506 065e 2C4B     		ldr	r3, .L140
 2507 0660 1B7A     		ldrb	r3, [r3, #8]
 2508 0662 DBB2     		uxtb	r3, r3
 2509 0664 7B72     		strb	r3, [r7, #9]
 576:.\main.c      ****         							precio[3]=PC_rxBuffer[6];
 2510              		.loc 1 576 0
 2511 0666 2A4B     		ldr	r3, .L140
 2512 0668 DB79     		ldrb	r3, [r3, #7]
 2513 066a DBB2     		uxtb	r3, r3
 2514 066c BB72     		strb	r3, [r7, #10]
 577:.\main.c      ****         							precio[4]=0;			
 2515              		.loc 1 577 0
 2516 066e 284B     		ldr	r3, .L140
 2517 0670 9B79     		ldrb	r3, [r3, #6]
 2518 0672 DBB2     		uxtb	r3, r3
 2519 0674 FB72     		strb	r3, [r7, #11]
 578:.\main.c      ****                                 }
 2520              		.loc 1 578 0
 2521 0676 0023     		movs	r3, #0
 2522 0678 3B73     		strb	r3, [r7, #12]
 2523              	.L94:
 580:.\main.c      ****         							precio[0]=PC_rxBuffer[10];	
 2524              		.loc 1 580 0
 2525 067a 2A4B     		ldr	r3, .L140+20
 2526 067c 1B78     		ldrb	r3, [r3]
 2527 067e DBB2     		uxtb	r3, r3
 2528 0680 002B     		cmp	r3, #0
ARM GAS  C:\Users\RECEPC~1\AppData\Local\Temp\cckIP3O9.s 			page 58


 2529 0682 13D1     		bne	.L95
 581:.\main.c      ****         							precio[1]=PC_rxBuffer[9];
 2530              		.loc 1 581 0
 2531 0684 224B     		ldr	r3, .L140
 2532 0686 9B7A     		ldrb	r3, [r3, #10]
 2533 0688 DBB2     		uxtb	r3, r3
 2534 068a 3B72     		strb	r3, [r7, #8]
 582:.\main.c      ****         							precio[2]=PC_rxBuffer[8];
 2535              		.loc 1 582 0
 2536 068c 204B     		ldr	r3, .L140
 2537 068e 5B7A     		ldrb	r3, [r3, #9]
 2538 0690 DBB2     		uxtb	r3, r3
 2539 0692 7B72     		strb	r3, [r7, #9]
 583:.\main.c      ****         							precio[3]=PC_rxBuffer[7];
 2540              		.loc 1 583 0
 2541 0694 1E4B     		ldr	r3, .L140
 2542 0696 1B7A     		ldrb	r3, [r3, #8]
 2543 0698 DBB2     		uxtb	r3, r3
 2544 069a BB72     		strb	r3, [r7, #10]
 584:.\main.c      ****         							precio[4]=PC_rxBuffer[6];                            
 2545              		.loc 1 584 0
 2546 069c 1C4B     		ldr	r3, .L140
 2547 069e DB79     		ldrb	r3, [r3, #7]
 2548 06a0 DBB2     		uxtb	r3, r3
 2549 06a2 FB72     		strb	r3, [r7, #11]
 585:.\main.c      ****                                 }
 2550              		.loc 1 585 0
 2551 06a4 1A4B     		ldr	r3, .L140
 2552 06a6 9B79     		ldrb	r3, [r3, #6]
 2553 06a8 DBB2     		uxtb	r3, r3
 2554 06aa 3B73     		strb	r3, [r7, #12]
 2555              	.L95:
 587:.\main.c      ****     								rf_mod[0]='M';
 2556              		.loc 1 587 0
 2557 06ac 1A4B     		ldr	r3, .L140+8
 2558 06ae 1B78     		ldrb	r3, [r3]
 2559 06b0 DBB2     		uxtb	r3, r3
 2560 06b2 03F00F03 		and	r3, r3, #15
 2561 06b6 D9B2     		uxtb	r1, r3
 2562 06b8 164B     		ldr	r3, .L140+4
 2563 06ba 9B7E     		ldrb	r3, [r3, #26]	@ zero_extendqisi2
 2564 06bc 07F10802 		add	r2, r7, #8
 2565 06c0 0846     		mov	r0, r1
 2566 06c2 1146     		mov	r1, r2
 2567 06c4 1A46     		mov	r2, r3
 2568 06c6 FFF7FEFF 		bl	cambiar_precio
 2569 06ca 0346     		mov	r3, r0
 2570 06cc 002B     		cmp	r3, #0
 2571 06ce 2BD1     		bne	.L93
 588:.\main.c      ****     								rf_mod[1]='U';
 2572              		.loc 1 588 0
 2573 06d0 124B     		ldr	r3, .L140+12
 2574 06d2 4D22     		movs	r2, #77
 2575 06d4 1A70     		strb	r2, [r3]
 589:.\main.c      ****     								rf_mod[2]='X';
 2576              		.loc 1 589 0
 2577 06d6 114B     		ldr	r3, .L140+12
ARM GAS  C:\Users\RECEPC~1\AppData\Local\Temp\cckIP3O9.s 			page 59


 2578 06d8 5522     		movs	r2, #85
 2579 06da 5A70     		strb	r2, [r3, #1]
 590:.\main.c      ****     								rf_mod[3]=creset;
 2580              		.loc 1 590 0
 2581 06dc 0F4B     		ldr	r3, .L140+12
 2582 06de 5822     		movs	r2, #88
 2583 06e0 9A70     		strb	r2, [r3, #2]
 591:.\main.c      ****     								rf_mod[4]=cautorizar;
 2584              		.loc 1 591 0
 2585 06e2 0E4B     		ldr	r3, .L140+12
 2586 06e4 4522     		movs	r2, #69
 2587 06e6 DA70     		strb	r2, [r3, #3]
 592:.\main.c      ****     								rf_mod[5]=PC_rxBuffer[4];
 2588              		.loc 1 592 0
 2589 06e8 0C4B     		ldr	r3, .L140+12
 2590 06ea 3022     		movs	r2, #48
 2591 06ec 1A71     		strb	r2, [r3, #4]
 593:.\main.c      ****     								rf_mod[6]='1';
 2592              		.loc 1 593 0
 2593 06ee 084B     		ldr	r3, .L140
 2594 06f0 1B79     		ldrb	r3, [r3, #4]
 2595 06f2 DAB2     		uxtb	r2, r3
 2596 06f4 094B     		ldr	r3, .L140+12
 2597 06f6 5A71     		strb	r2, [r3, #5]
 594:.\main.c      ****     								rf_mod[7]='*';
 2598              		.loc 1 594 0
 2599 06f8 084B     		ldr	r3, .L140+12
 2600 06fa 3122     		movs	r2, #49
 2601 06fc 9A71     		strb	r2, [r3, #6]
 595:.\main.c      ****     								size=8;
 2602              		.loc 1 595 0
 2603 06fe 074B     		ldr	r3, .L140+12
 2604 0700 2A22     		movs	r2, #42
 2605 0702 DA71     		strb	r2, [r3, #7]
 596:.\main.c      ****     								ok_datosRF=1;
 2606              		.loc 1 596 0
 2607 0704 0823     		movs	r3, #8
 2608 0706 FB82     		strh	r3, [r7, #22]	@ movhi
 597:.\main.c      ****     								break;
 2609              		.loc 1 597 0
 2610 0708 054B     		ldr	r3, .L140+16
 2611 070a 0122     		movs	r2, #1
 2612 070c 1A70     		strb	r2, [r3]
 598:.\main.c      ****     							}
 2613              		.loc 1 598 0
 2614 070e 03E2     		b	.L62
 2615              	.L141:
 2616              		.align	2
 2617              	.L140:
 2618 0710 00000000 		.word	PC_rxBuffer
 2619 0714 00000000 		.word	rventa2
 2620 0718 00000000 		.word	lado2
 2621 071c 00000000 		.word	rf_mod
 2622 0720 00000000 		.word	ok_datosRF
 2623 0724 00000000 		.word	ppux10
 2624              	.L93:
 601:.\main.c      ****     						if(PC_rxBuffer[17]!=','){
ARM GAS  C:\Users\RECEPC~1\AppData\Local\Temp\cckIP3O9.s 			page 60


 2625              		.loc 1 601 0
 2626 0728 AB4B     		ldr	r3, .L142
 2627 072a 5B7C     		ldrb	r3, [r3, #17]
 2628 072c DBB2     		uxtb	r3, r3
 2629 072e 7B70     		strb	r3, [r7, #1]
 602:.\main.c      ****     							preset[1]=PC_rxBuffer[17] & 0x0F;
 2630              		.loc 1 602 0
 2631 0730 A94B     		ldr	r3, .L142
 2632 0732 5B7C     		ldrb	r3, [r3, #17]
 2633 0734 DBB2     		uxtb	r3, r3
 2634 0736 2C2B     		cmp	r3, #44
 2635 0738 06D0     		beq	.L96
 603:.\main.c      ****     						}
 2636              		.loc 1 603 0
 2637 073a A74B     		ldr	r3, .L142
 2638 073c 5B7C     		ldrb	r3, [r3, #17]
 2639 073e DBB2     		uxtb	r3, r3
 2640 0740 03F00F03 		and	r3, r3, #15
 2641 0744 DBB2     		uxtb	r3, r3
 2642 0746 7B70     		strb	r3, [r7, #1]
 2643              	.L96:
 605:.\main.c      ****     						if(PC_rxBuffer[16]!=','){
 2644              		.loc 1 605 0
 2645 0748 A34B     		ldr	r3, .L142
 2646 074a 1B7C     		ldrb	r3, [r3, #16]
 2647 074c DBB2     		uxtb	r3, r3
 2648 074e BB70     		strb	r3, [r7, #2]
 606:.\main.c      ****     							preset[2]=PC_rxBuffer[16] & 0x0F;
 2649              		.loc 1 606 0
 2650 0750 A14B     		ldr	r3, .L142
 2651 0752 1B7C     		ldrb	r3, [r3, #16]
 2652 0754 DBB2     		uxtb	r3, r3
 2653 0756 2C2B     		cmp	r3, #44
 2654 0758 06D0     		beq	.L97
 607:.\main.c      ****     						}
 2655              		.loc 1 607 0
 2656 075a 9F4B     		ldr	r3, .L142
 2657 075c 1B7C     		ldrb	r3, [r3, #16]
 2658 075e DBB2     		uxtb	r3, r3
 2659 0760 03F00F03 		and	r3, r3, #15
 2660 0764 DBB2     		uxtb	r3, r3
 2661 0766 BB70     		strb	r3, [r7, #2]
 2662              	.L97:
 609:.\main.c      ****     						if(PC_rxBuffer[15]!=','){
 2663              		.loc 1 609 0
 2664 0768 9B4B     		ldr	r3, .L142
 2665 076a DB7B     		ldrb	r3, [r3, #15]
 2666 076c DBB2     		uxtb	r3, r3
 2667 076e FB70     		strb	r3, [r7, #3]
 610:.\main.c      ****     							preset[3]=PC_rxBuffer[15] & 0x0F;
 2668              		.loc 1 610 0
 2669 0770 994B     		ldr	r3, .L142
 2670 0772 DB7B     		ldrb	r3, [r3, #15]
 2671 0774 DBB2     		uxtb	r3, r3
 2672 0776 2C2B     		cmp	r3, #44
 2673 0778 06D0     		beq	.L98
 611:.\main.c      ****     						}
ARM GAS  C:\Users\RECEPC~1\AppData\Local\Temp\cckIP3O9.s 			page 61


 2674              		.loc 1 611 0
 2675 077a 974B     		ldr	r3, .L142
 2676 077c DB7B     		ldrb	r3, [r3, #15]
 2677 077e DBB2     		uxtb	r3, r3
 2678 0780 03F00F03 		and	r3, r3, #15
 2679 0784 DBB2     		uxtb	r3, r3
 2680 0786 FB70     		strb	r3, [r7, #3]
 2681              	.L98:
 613:.\main.c      ****     						if(PC_rxBuffer[14]!=','){
 2682              		.loc 1 613 0
 2683 0788 934B     		ldr	r3, .L142
 2684 078a 9B7B     		ldrb	r3, [r3, #14]
 2685 078c DBB2     		uxtb	r3, r3
 2686 078e 3B71     		strb	r3, [r7, #4]
 614:.\main.c      ****     							preset[4]=PC_rxBuffer[14] & 0x0F;
 2687              		.loc 1 614 0
 2688 0790 914B     		ldr	r3, .L142
 2689 0792 9B7B     		ldrb	r3, [r3, #14]
 2690 0794 DBB2     		uxtb	r3, r3
 2691 0796 2C2B     		cmp	r3, #44
 2692 0798 06D0     		beq	.L99
 615:.\main.c      ****     						}
 2693              		.loc 1 615 0
 2694 079a 8F4B     		ldr	r3, .L142
 2695 079c 9B7B     		ldrb	r3, [r3, #14]
 2696 079e DBB2     		uxtb	r3, r3
 2697 07a0 03F00F03 		and	r3, r3, #15
 2698 07a4 DBB2     		uxtb	r3, r3
 2699 07a6 3B71     		strb	r3, [r7, #4]
 2700              	.L99:
 617:.\main.c      ****     						if(PC_rxBuffer[13]!=','){
 2701              		.loc 1 617 0
 2702 07a8 8B4B     		ldr	r3, .L142
 2703 07aa 5B7B     		ldrb	r3, [r3, #13]
 2704 07ac DBB2     		uxtb	r3, r3
 2705 07ae 7B71     		strb	r3, [r7, #5]
 618:.\main.c      ****     							preset[5]=PC_rxBuffer[13] & 0x0F;
 2706              		.loc 1 618 0
 2707 07b0 894B     		ldr	r3, .L142
 2708 07b2 5B7B     		ldrb	r3, [r3, #13]
 2709 07b4 DBB2     		uxtb	r3, r3
 2710 07b6 2C2B     		cmp	r3, #44
 2711 07b8 06D0     		beq	.L100
 619:.\main.c      ****     						}
 2712              		.loc 1 619 0
 2713 07ba 874B     		ldr	r3, .L142
 2714 07bc 5B7B     		ldrb	r3, [r3, #13]
 2715 07be DBB2     		uxtb	r3, r3
 2716 07c0 03F00F03 		and	r3, r3, #15
 2717 07c4 DBB2     		uxtb	r3, r3
 2718 07c6 7B71     		strb	r3, [r7, #5]
 2719              	.L100:
 621:.\main.c      ****     						if(PC_rxBuffer[12]!=','){
 2720              		.loc 1 621 0
 2721 07c8 834B     		ldr	r3, .L142
 2722 07ca 1B7B     		ldrb	r3, [r3, #12]
 2723 07cc DBB2     		uxtb	r3, r3
ARM GAS  C:\Users\RECEPC~1\AppData\Local\Temp\cckIP3O9.s 			page 62


 2724 07ce BB71     		strb	r3, [r7, #6]
 622:.\main.c      ****     							preset[6]=PC_rxBuffer[12] & 0x0F;
 2725              		.loc 1 622 0
 2726 07d0 814B     		ldr	r3, .L142
 2727 07d2 1B7B     		ldrb	r3, [r3, #12]
 2728 07d4 DBB2     		uxtb	r3, r3
 2729 07d6 2C2B     		cmp	r3, #44
 2730 07d8 06D0     		beq	.L101
 623:.\main.c      ****     						}
 2731              		.loc 1 623 0
 2732 07da 7F4B     		ldr	r3, .L142
 2733 07dc 1B7B     		ldrb	r3, [r3, #12]
 2734 07de DBB2     		uxtb	r3, r3
 2735 07e0 03F00F03 		and	r3, r3, #15
 2736 07e4 DBB2     		uxtb	r3, r3
 2737 07e6 BB71     		strb	r3, [r7, #6]
 2738              	.L101:
 625:.\main.c      ****     						if(PC_rxBuffer[11]!=','){
 2739              		.loc 1 625 0
 2740 07e8 7B4B     		ldr	r3, .L142
 2741 07ea DB7A     		ldrb	r3, [r3, #11]
 2742 07ec DBB2     		uxtb	r3, r3
 2743 07ee FB71     		strb	r3, [r7, #7]
 626:.\main.c      ****     							preset[7]=PC_rxBuffer[11] & 0x0F;
 2744              		.loc 1 626 0
 2745 07f0 794B     		ldr	r3, .L142
 2746 07f2 DB7A     		ldrb	r3, [r3, #11]
 2747 07f4 DBB2     		uxtb	r3, r3
 2748 07f6 2C2B     		cmp	r3, #44
 2749 07f8 06D0     		beq	.L102
 627:.\main.c      ****     						}
 2750              		.loc 1 627 0
 2751 07fa 774B     		ldr	r3, .L142
 2752 07fc DB7A     		ldrb	r3, [r3, #11]
 2753 07fe DBB2     		uxtb	r3, r3
 2754 0800 03F00F03 		and	r3, r3, #15
 2755 0804 DBB2     		uxtb	r3, r3
 2756 0806 FB71     		strb	r3, [r7, #7]
 2757              	.L102:
 629:.\main.c      ****     						if(t_preset=='1'){
 2758              		.loc 1 629 0
 2759 0808 734B     		ldr	r3, .L142
 2760 080a 9B7C     		ldrb	r3, [r3, #18]
 2761 080c DBB2     		uxtb	r3, r3
 2762 080e 7B82     		strh	r3, [r7, #18]	@ movhi
 630:.\main.c      ****     							t_preset=2;
 2763              		.loc 1 630 0
 2764 0810 7B8A     		ldrh	r3, [r7, #18]
 2765 0812 312B     		cmp	r3, #49
 2766 0814 02D1     		bne	.L103
 631:.\main.c      ****     						}
 2767              		.loc 1 631 0
 2768 0816 0223     		movs	r3, #2
 2769 0818 7B82     		strh	r3, [r7, #18]	@ movhi
 2770 081a 01E0     		b	.L104
 2771              	.L103:
 634:.\main.c      ****     						}
ARM GAS  C:\Users\RECEPC~1\AppData\Local\Temp\cckIP3O9.s 			page 63


 2772              		.loc 1 634 0
 2773 081c 0123     		movs	r3, #1
 2774 081e 7B82     		strh	r3, [r7, #18]	@ movhi
 2775              	.L104:
 636:.\main.c      ****                                 if(ppuinicial==0){                          
 2776              		.loc 1 636 0
 2777 0820 6E4B     		ldr	r3, .L142+4
 2778 0822 1B78     		ldrb	r3, [r3]
 2779 0824 DBB2     		uxtb	r3, r3
 2780 0826 03F00F03 		and	r3, r3, #15
 2781 082a D8B2     		uxtb	r0, r3
 2782 082c 6C4B     		ldr	r3, .L142+8
 2783 082e 997E     		ldrb	r1, [r3, #26]	@ zero_extendqisi2
 2784 0830 7B8A     		ldrh	r3, [r7, #18]	@ movhi
 2785 0832 DBB2     		uxtb	r3, r3
 2786 0834 3A46     		mov	r2, r7
 2787 0836 FFF7FEFF 		bl	programar
 2788 083a 0346     		mov	r3, r0
 2789 083c 012B     		cmp	r3, #1
 2790 083e 7CD1     		bne	.L105
 637:.\main.c      ****                                     for(x=0;x<=4;x++){
 2791              		.loc 1 637 0
 2792 0840 684B     		ldr	r3, .L142+12
 2793 0842 1B78     		ldrb	r3, [r3]	@ zero_extendqisi2
 2794 0844 002B     		cmp	r3, #0
 2795 0846 5CD1     		bne	.L106
 638:.\main.c      ****                                 	    precio[x]=lado2.ppu[0][x];	    
 2796              		.loc 1 638 0
 2797 0848 0023     		movs	r3, #0
 2798 084a BB82     		strh	r3, [r7, #20]	@ movhi
 2799 084c 0EE0     		b	.L107
 2800              	.L108:
 639:.\main.c      ****                                     }
 2801              		.loc 1 639 0 discriminator 3
 2802 084e BB8A     		ldrh	r3, [r7, #20]
 2803 0850 BA8A     		ldrh	r2, [r7, #20]
 2804 0852 6249     		ldr	r1, .L142+4
 2805 0854 0A44     		add	r2, r2, r1
 2806 0856 92F84A20 		ldrb	r2, [r2, #74]
 2807 085a D2B2     		uxtb	r2, r2
 2808 085c 07F11801 		add	r1, r7, #24
 2809 0860 0B44     		add	r3, r3, r1
 2810 0862 03F8102C 		strb	r2, [r3, #-16]
 638:.\main.c      ****                                 	    precio[x]=lado2.ppu[0][x];	    
 2811              		.loc 1 638 0 discriminator 3
 2812 0866 BB8A     		ldrh	r3, [r7, #20]
 2813 0868 0133     		adds	r3, r3, #1
 2814 086a BB82     		strh	r3, [r7, #20]	@ movhi
 2815              	.L107:
 638:.\main.c      ****                                 	    precio[x]=lado2.ppu[0][x];	    
 2816              		.loc 1 638 0 is_stmt 0 discriminator 1
 2817 086c BB8A     		ldrh	r3, [r7, #20]
 2818 086e 042B     		cmp	r3, #4
 2819 0870 EDD9     		bls	.L108
 641:.\main.c      ****                                     for(x=0;x<=4;x++){
 2820              		.loc 1 641 0 is_stmt 1
 2821 0872 5A4B     		ldr	r3, .L142+4
ARM GAS  C:\Users\RECEPC~1\AppData\Local\Temp\cckIP3O9.s 			page 64


 2822 0874 1B78     		ldrb	r3, [r3]
 2823 0876 DAB2     		uxtb	r2, r3
 2824 0878 07F10803 		add	r3, r7, #8
 2825 087c 1046     		mov	r0, r2
 2826 087e 1946     		mov	r1, r3
 2827 0880 0122     		movs	r2, #1
 2828 0882 FFF7FEFF 		bl	cambiar_precio
 642:.\main.c      ****                                 	    precio[x]=lado2.ppu[1][x];	    
 2829              		.loc 1 642 0
 2830 0886 0023     		movs	r3, #0
 2831 0888 BB82     		strh	r3, [r7, #20]	@ movhi
 2832 088a 0EE0     		b	.L109
 2833              	.L110:
 643:.\main.c      ****                                     }    
 2834              		.loc 1 643 0 discriminator 3
 2835 088c BB8A     		ldrh	r3, [r7, #20]
 2836 088e BA8A     		ldrh	r2, [r7, #20]
 2837 0890 5249     		ldr	r1, .L142+4
 2838 0892 0A44     		add	r2, r2, r1
 2839 0894 92F84F20 		ldrb	r2, [r2, #79]
 2840 0898 D2B2     		uxtb	r2, r2
 2841 089a 07F11801 		add	r1, r7, #24
 2842 089e 0B44     		add	r3, r3, r1
 2843 08a0 03F8102C 		strb	r2, [r3, #-16]
 642:.\main.c      ****                                 	    precio[x]=lado2.ppu[1][x];	    
 2844              		.loc 1 642 0 discriminator 3
 2845 08a4 BB8A     		ldrh	r3, [r7, #20]
 2846 08a6 0133     		adds	r3, r3, #1
 2847 08a8 BB82     		strh	r3, [r7, #20]	@ movhi
 2848              	.L109:
 642:.\main.c      ****                                 	    precio[x]=lado2.ppu[1][x];	    
 2849              		.loc 1 642 0 is_stmt 0 discriminator 1
 2850 08aa BB8A     		ldrh	r3, [r7, #20]
 2851 08ac 042B     		cmp	r3, #4
 2852 08ae EDD9     		bls	.L110
 645:.\main.c      ****                                     for(x=0;x<=4;x++){
 2853              		.loc 1 645 0 is_stmt 1
 2854 08b0 4A4B     		ldr	r3, .L142+4
 2855 08b2 1B78     		ldrb	r3, [r3]
 2856 08b4 DAB2     		uxtb	r2, r3
 2857 08b6 07F10803 		add	r3, r7, #8
 2858 08ba 1046     		mov	r0, r2
 2859 08bc 1946     		mov	r1, r3
 2860 08be 0222     		movs	r2, #2
 2861 08c0 FFF7FEFF 		bl	cambiar_precio
 646:.\main.c      ****                                 	    precio[x]=lado2.ppu[2][x];	    
 2862              		.loc 1 646 0
 2863 08c4 0023     		movs	r3, #0
 2864 08c6 BB82     		strh	r3, [r7, #20]	@ movhi
 2865 08c8 0EE0     		b	.L111
 2866              	.L112:
 647:.\main.c      ****                                     }
 2867              		.loc 1 647 0 discriminator 3
 2868 08ca BB8A     		ldrh	r3, [r7, #20]
 2869 08cc BA8A     		ldrh	r2, [r7, #20]
 2870 08ce 4349     		ldr	r1, .L142+4
 2871 08d0 0A44     		add	r2, r2, r1
ARM GAS  C:\Users\RECEPC~1\AppData\Local\Temp\cckIP3O9.s 			page 65


 2872 08d2 92F85420 		ldrb	r2, [r2, #84]
 2873 08d6 D2B2     		uxtb	r2, r2
 2874 08d8 07F11801 		add	r1, r7, #24
 2875 08dc 0B44     		add	r3, r3, r1
 2876 08de 03F8102C 		strb	r2, [r3, #-16]
 646:.\main.c      ****                                 	    precio[x]=lado2.ppu[2][x];	    
 2877              		.loc 1 646 0 discriminator 3
 2878 08e2 BB8A     		ldrh	r3, [r7, #20]
 2879 08e4 0133     		adds	r3, r3, #1
 2880 08e6 BB82     		strh	r3, [r7, #20]	@ movhi
 2881              	.L111:
 646:.\main.c      ****                                 	    precio[x]=lado2.ppu[2][x];	    
 2882              		.loc 1 646 0 is_stmt 0 discriminator 1
 2883 08e8 BB8A     		ldrh	r3, [r7, #20]
 2884 08ea 042B     		cmp	r3, #4
 2885 08ec EDD9     		bls	.L112
 649:.\main.c      ****                                 }
 2886              		.loc 1 649 0 is_stmt 1
 2887 08ee 3B4B     		ldr	r3, .L142+4
 2888 08f0 1B78     		ldrb	r3, [r3]
 2889 08f2 DAB2     		uxtb	r2, r3
 2890 08f4 07F10803 		add	r3, r7, #8
 2891 08f8 1046     		mov	r0, r2
 2892 08fa 1946     		mov	r1, r3
 2893 08fc 0322     		movs	r2, #3
 2894 08fe FFF7FEFF 		bl	cambiar_precio
 2895              	.L106:
 651:.\main.c      ****     							Surtidor_PutChar(0x10|(lado2.dir & 0x0F));							
 2896              		.loc 1 651 0
 2897 0902 0A20     		movs	r0, #10
 2898 0904 FFF7FEFF 		bl	CyDelay
 652:.\main.c      ****     							lado2.estado=tanqueo;
 2899              		.loc 1 652 0
 2900 0908 344B     		ldr	r3, .L142+4
 2901 090a 1B78     		ldrb	r3, [r3]
 2902 090c DBB2     		uxtb	r3, r3
 2903 090e DBB2     		uxtb	r3, r3
 2904 0910 03F00F03 		and	r3, r3, #15
 2905 0914 DBB2     		uxtb	r3, r3
 2906 0916 43F01003 		orr	r3, r3, #16
 2907 091a DBB2     		uxtb	r3, r3
 2908 091c DBB2     		uxtb	r3, r3
 2909 091e 1846     		mov	r0, r3
 2910 0920 FFF7FEFF 		bl	Surtidor_PutChar
 653:.\main.c      ****     							flujo_LCD2=11;
 2911              		.loc 1 653 0
 2912 0924 2D4B     		ldr	r3, .L142+4
 2913 0926 0622     		movs	r2, #6
 2914 0928 5A70     		strb	r2, [r3, #1]
 654:.\main.c      ****     							set_imagen(2,8);
 2915              		.loc 1 654 0
 2916 092a 2F4B     		ldr	r3, .L142+16
 2917 092c 0B22     		movs	r2, #11
 2918 092e 1A70     		strb	r2, [r3]
 655:.\main.c      ****     						}
 2919              		.loc 1 655 0
 2920 0930 0220     		movs	r0, #2
ARM GAS  C:\Users\RECEPC~1\AppData\Local\Temp\cckIP3O9.s 			page 66


 2921 0932 0821     		movs	r1, #8
 2922 0934 FFF7FEFF 		bl	set_imagen
 2923 0938 1FE0     		b	.L90
 2924              	.L105:
 658:.\main.c      ****     							rf_mod[1]='U';
 2925              		.loc 1 658 0
 2926 093a 2C4B     		ldr	r3, .L142+20
 2927 093c 4D22     		movs	r2, #77
 2928 093e 1A70     		strb	r2, [r3]
 659:.\main.c      ****     							rf_mod[2]='X';
 2929              		.loc 1 659 0
 2930 0940 2A4B     		ldr	r3, .L142+20
 2931 0942 5522     		movs	r2, #85
 2932 0944 5A70     		strb	r2, [r3, #1]
 660:.\main.c      ****     							rf_mod[3]=creset;
 2933              		.loc 1 660 0
 2934 0946 294B     		ldr	r3, .L142+20
 2935 0948 5822     		movs	r2, #88
 2936 094a 9A70     		strb	r2, [r3, #2]
 661:.\main.c      ****     							rf_mod[4]=cautorizar;
 2937              		.loc 1 661 0
 2938 094c 274B     		ldr	r3, .L142+20
 2939 094e 4522     		movs	r2, #69
 2940 0950 DA70     		strb	r2, [r3, #3]
 662:.\main.c      ****     							rf_mod[5]=PC_rxBuffer[4];
 2941              		.loc 1 662 0
 2942 0952 264B     		ldr	r3, .L142+20
 2943 0954 3022     		movs	r2, #48
 2944 0956 1A71     		strb	r2, [r3, #4]
 663:.\main.c      ****     							rf_mod[6]='2';
 2945              		.loc 1 663 0
 2946 0958 1F4B     		ldr	r3, .L142
 2947 095a 1B79     		ldrb	r3, [r3, #4]
 2948 095c DAB2     		uxtb	r2, r3
 2949 095e 234B     		ldr	r3, .L142+20
 2950 0960 5A71     		strb	r2, [r3, #5]
 664:.\main.c      ****     							rf_mod[7]='*';
 2951              		.loc 1 664 0
 2952 0962 224B     		ldr	r3, .L142+20
 2953 0964 3222     		movs	r2, #50
 2954 0966 9A71     		strb	r2, [r3, #6]
 665:.\main.c      ****     							size=8;
 2955              		.loc 1 665 0
 2956 0968 204B     		ldr	r3, .L142+20
 2957 096a 2A22     		movs	r2, #42
 2958 096c DA71     		strb	r2, [r3, #7]
 666:.\main.c      ****     							ok_datosRF=1;							
 2959              		.loc 1 666 0
 2960 096e 0823     		movs	r3, #8
 2961 0970 FB82     		strh	r3, [r7, #22]	@ movhi
 667:.\main.c      ****     						}                        
 2962              		.loc 1 667 0
 2963 0972 1F4B     		ldr	r3, .L142+24
 2964 0974 0122     		movs	r2, #1
 2965 0976 1A70     		strb	r2, [r3]
 2966              		.loc 1 670 0
 2967 0978 CEE0     		b	.L62
ARM GAS  C:\Users\RECEPC~1\AppData\Local\Temp\cckIP3O9.s 			page 67


 2968              	.L90:
 2969              		.loc 1 670 0 is_stmt 0 discriminator 1
 2970 097a CDE0     		b	.L62
 2971              	.L63:
 671:.\main.c      **** 					case cimprimir:
 672:.\main.c      ****                         if(PC_rxBuffer[4]=='1'){   
 2972              		.loc 1 672 0 is_stmt 1
 2973 097c 164B     		ldr	r3, .L142
 2974 097e 1B79     		ldrb	r3, [r3, #4]
 2975 0980 DBB2     		uxtb	r3, r3
 2976 0982 312B     		cmp	r3, #49
 2977 0984 3AD1     		bne	.L113
 673:.\main.c      ****     						set_imagen(1,55);					
 2978              		.loc 1 673 0
 2979 0986 0120     		movs	r0, #1
 2980 0988 3721     		movs	r1, #55
 2981 098a FFF7FEFF 		bl	set_imagen
 674:.\main.c      ****     						if(lado1.dir==(lado1.dir & 0x0F)){
 2982              		.loc 1 674 0
 2983 098e 194B     		ldr	r3, .L142+28
 2984 0990 1B78     		ldrb	r3, [r3]
 2985 0992 DBB2     		uxtb	r3, r3
 2986 0994 1A46     		mov	r2, r3
 2987 0996 174B     		ldr	r3, .L142+28
 2988 0998 1B78     		ldrb	r3, [r3]
 2989 099a DBB2     		uxtb	r3, r3
 2990 099c 03F00F03 		and	r3, r3, #15
 2991 09a0 9A42     		cmp	r2, r3
 2992 09a2 06D1     		bne	.L114
 675:.\main.c      ****     							lado1.estado=libre;
 2993              		.loc 1 675 0
 2994 09a4 134B     		ldr	r3, .L142+28
 2995 09a6 0122     		movs	r2, #1
 2996 09a8 5A70     		strb	r2, [r3, #1]
 676:.\main.c      ****     							flujo_LCD1=0;
 2997              		.loc 1 676 0
 2998 09aa 134B     		ldr	r3, .L142+32
 2999 09ac 0022     		movs	r2, #0
 3000 09ae 1A70     		strb	r2, [r3]
 3001 09b0 4CE0     		b	.L116
 3002              	.L114:
 677:.\main.c      ****     						}
 678:.\main.c      ****     						else if(lado2.dir==(PC_rxBuffer[4] & 0x0F)){
 3003              		.loc 1 678 0
 3004 09b2 0A4B     		ldr	r3, .L142+4
 3005 09b4 1B78     		ldrb	r3, [r3]
 3006 09b6 DBB2     		uxtb	r3, r3
 3007 09b8 1A46     		mov	r2, r3
 3008 09ba 074B     		ldr	r3, .L142
 3009 09bc 1B79     		ldrb	r3, [r3, #4]
 3010 09be DBB2     		uxtb	r3, r3
 3011 09c0 03F00F03 		and	r3, r3, #15
 3012 09c4 9A42     		cmp	r2, r3
 3013 09c6 41D1     		bne	.L116
 679:.\main.c      ****     							lado2.estado=libre;
 3014              		.loc 1 679 0
 3015 09c8 044B     		ldr	r3, .L142+4
ARM GAS  C:\Users\RECEPC~1\AppData\Local\Temp\cckIP3O9.s 			page 68


 3016 09ca 0122     		movs	r2, #1
 3017 09cc 5A70     		strb	r2, [r3, #1]
 680:.\main.c      ****     							flujo_LCD1=0;
 3018              		.loc 1 680 0
 3019 09ce 0A4B     		ldr	r3, .L142+32
 3020 09d0 0022     		movs	r2, #0
 3021 09d2 1A70     		strb	r2, [r3]
 681:.\main.c      ****     						}
 682:.\main.c      ****                         }else{
 683:.\main.c      ****     						set_imagen(2,55);					
 684:.\main.c      ****     						if(lado2.dir==(lado2.dir & 0x0F)){
 685:.\main.c      ****     							lado2.estado=libre;
 686:.\main.c      ****     							flujo_LCD2=0;
 687:.\main.c      ****     						}
 688:.\main.c      ****     						else if(lado1.dir==(PC_rxBuffer[4] & 0x0F)){
 689:.\main.c      ****     							lado1.estado=libre;
 690:.\main.c      ****     							flujo_LCD2=0;
 691:.\main.c      ****     						}                        
 692:.\main.c      ****                         }
 693:.\main.c      **** 					break;
 3022              		.loc 1 693 0
 3023 09d4 A0E0     		b	.L62
 3024              	.L143:
 3025 09d6 00BF     		.align	2
 3026              	.L142:
 3027 09d8 00000000 		.word	PC_rxBuffer
 3028 09dc 00000000 		.word	lado2
 3029 09e0 00000000 		.word	rventa2
 3030 09e4 00000000 		.word	ppuinicial
 3031 09e8 00000000 		.word	flujo_LCD2
 3032 09ec 00000000 		.word	rf_mod
 3033 09f0 00000000 		.word	ok_datosRF
 3034 09f4 00000000 		.word	lado1
 3035 09f8 00000000 		.word	flujo_LCD1
 3036              	.L113:
 683:.\main.c      ****     						if(lado2.dir==(lado2.dir & 0x0F)){
 3037              		.loc 1 683 0
 3038 09fc 0220     		movs	r0, #2
 3039 09fe 3721     		movs	r1, #55
 3040 0a00 FFF7FEFF 		bl	set_imagen
 684:.\main.c      ****     							lado2.estado=libre;
 3041              		.loc 1 684 0
 3042 0a04 544B     		ldr	r3, .L144
 3043 0a06 1B78     		ldrb	r3, [r3]
 3044 0a08 DBB2     		uxtb	r3, r3
 3045 0a0a 1A46     		mov	r2, r3
 3046 0a0c 524B     		ldr	r3, .L144
 3047 0a0e 1B78     		ldrb	r3, [r3]
 3048 0a10 DBB2     		uxtb	r3, r3
 3049 0a12 03F00F03 		and	r3, r3, #15
 3050 0a16 9A42     		cmp	r2, r3
 3051 0a18 06D1     		bne	.L117
 685:.\main.c      ****     							flujo_LCD2=0;
 3052              		.loc 1 685 0
 3053 0a1a 4F4B     		ldr	r3, .L144
 3054 0a1c 0122     		movs	r2, #1
 3055 0a1e 5A70     		strb	r2, [r3, #1]
ARM GAS  C:\Users\RECEPC~1\AppData\Local\Temp\cckIP3O9.s 			page 69


 686:.\main.c      ****     						}
 3056              		.loc 1 686 0
 3057 0a20 4E4B     		ldr	r3, .L144+4
 3058 0a22 0022     		movs	r2, #0
 3059 0a24 1A70     		strb	r2, [r3]
 3060 0a26 11E0     		b	.L116
 3061              	.L117:
 688:.\main.c      ****     							lado1.estado=libre;
 3062              		.loc 1 688 0
 3063 0a28 4D4B     		ldr	r3, .L144+8
 3064 0a2a 1B78     		ldrb	r3, [r3]
 3065 0a2c DBB2     		uxtb	r3, r3
 3066 0a2e 1A46     		mov	r2, r3
 3067 0a30 4C4B     		ldr	r3, .L144+12
 3068 0a32 1B79     		ldrb	r3, [r3, #4]
 3069 0a34 DBB2     		uxtb	r3, r3
 3070 0a36 03F00F03 		and	r3, r3, #15
 3071 0a3a 9A42     		cmp	r2, r3
 3072 0a3c 06D1     		bne	.L116
 689:.\main.c      ****     							flujo_LCD2=0;
 3073              		.loc 1 689 0
 3074 0a3e 484B     		ldr	r3, .L144+8
 3075 0a40 0122     		movs	r2, #1
 3076 0a42 5A70     		strb	r2, [r3, #1]
 690:.\main.c      ****     						}                        
 3077              		.loc 1 690 0
 3078 0a44 454B     		ldr	r3, .L144+4
 3079 0a46 0022     		movs	r2, #0
 3080 0a48 1A70     		strb	r2, [r3]
 3081              		.loc 1 693 0
 3082 0a4a 65E0     		b	.L62
 3083              	.L116:
 3084              		.loc 1 693 0 is_stmt 0 discriminator 2
 3085 0a4c 64E0     		b	.L62
 3086              	.L64:
 694:.\main.c      **** 					case creset:     
 695:.\main.c      ****                         if(PC_rxBuffer[4]=='1'){                          
 3087              		.loc 1 695 0 is_stmt 1
 3088 0a4e 454B     		ldr	r3, .L144+12
 3089 0a50 1B79     		ldrb	r3, [r3, #4]
 3090 0a52 DBB2     		uxtb	r3, r3
 3091 0a54 312B     		cmp	r3, #49
 3092 0a56 2FD1     		bne	.L118
 696:.\main.c      ****                             if(estado_tanqueando==0){
 3093              		.loc 1 696 0
 3094 0a58 434B     		ldr	r3, .L144+16
 3095 0a5a 1B78     		ldrb	r3, [r3]	@ zero_extendqisi2
 3096 0a5c 002B     		cmp	r3, #0
 3097 0a5e 5AD1     		bne	.L125
 697:.\main.c      ****         						switch(PC_rxBuffer[5]){
 3098              		.loc 1 697 0
 3099 0a60 404B     		ldr	r3, .L144+12
 3100 0a62 5B79     		ldrb	r3, [r3, #5]
 3101 0a64 DBB2     		uxtb	r3, r3
 3102 0a66 313B     		subs	r3, r3, #49
 3103 0a68 032B     		cmp	r3, #3
 3104 0a6a 54D8     		bhi	.L125
ARM GAS  C:\Users\RECEPC~1\AppData\Local\Temp\cckIP3O9.s 			page 70


 3105 0a6c 01A2     		adr	r2, .L121
 3106 0a6e 52F823F0 		ldr	pc, [r2, r3, lsl #2]
 3107 0a72 00BF     		.p2align 2
 3108              	.L121:
 3109 0a74 850A0000 		.word	.L120+1
 3110 0a78 950A0000 		.word	.L122+1
 3111 0a7c A50A0000 		.word	.L123+1
 3112 0a80 B50A0000 		.word	.L133+1
 3113              		.p2align 1
 3114              	.L120:
 698:.\main.c      ****         							case '1':														
 699:.\main.c      ****         								lado1.estado=libre;
 3115              		.loc 1 699 0
 3116 0a84 364B     		ldr	r3, .L144+8
 3117 0a86 0122     		movs	r2, #1
 3118 0a88 5A70     		strb	r2, [r3, #1]
 700:.\main.c      ****         								error_op(1,28);					 //Error de id					
 3119              		.loc 1 700 0
 3120 0a8a 0120     		movs	r0, #1
 3121 0a8c 1C21     		movs	r1, #28
 3122 0a8e FFF7FEFF 		bl	error_op
 701:.\main.c      ****         							break;
 3123              		.loc 1 701 0
 3124 0a92 10E0     		b	.L119
 3125              	.L122:
 702:.\main.c      ****         								
 703:.\main.c      ****         							case '2':
 704:.\main.c      ****         								lado1.estado=libre;
 3126              		.loc 1 704 0
 3127 0a94 324B     		ldr	r3, .L144+8
 3128 0a96 0122     		movs	r2, #1
 3129 0a98 5A70     		strb	r2, [r3, #1]
 705:.\main.c      ****         								error_op(1,12);					//Gracias por su compra
 3130              		.loc 1 705 0
 3131 0a9a 0120     		movs	r0, #1
 3132 0a9c 0C21     		movs	r1, #12
 3133 0a9e FFF7FEFF 		bl	error_op
 706:.\main.c      ****         							break;
 3134              		.loc 1 706 0
 3135 0aa2 08E0     		b	.L119
 3136              	.L123:
 707:.\main.c      ****         								
 708:.\main.c      ****         							case '3':
 709:.\main.c      ****         								lado1.estado=libre;
 3137              		.loc 1 709 0
 3138 0aa4 2E4B     		ldr	r3, .L144+8
 3139 0aa6 0122     		movs	r2, #1
 3140 0aa8 5A70     		strb	r2, [r3, #1]
 710:.\main.c      ****         								error_op(1,85);					//Error de Operacion
 3141              		.loc 1 710 0
 3142 0aaa 0120     		movs	r0, #1
 3143 0aac 5521     		movs	r1, #85
 3144 0aae FFF7FEFF 		bl	error_op
 711:.\main.c      ****         							break;
 3145              		.loc 1 711 0
 3146 0ab2 00E0     		b	.L119
 3147              	.L133:
ARM GAS  C:\Users\RECEPC~1\AppData\Local\Temp\cckIP3O9.s 			page 71


 712:.\main.c      ****         								
 713:.\main.c      ****         							case '4':
 714:.\main.c      ****     //    								lado1.estado=libre;//
 715:.\main.c      ****     //    								error_op(1,12);		//			//Fin Corte
 716:.\main.c      ****         							break;									
 3148              		.loc 1 716 0
 3149 0ab4 00BF     		nop
 3150              	.L119:
 3151 0ab6 2EE0     		b	.L125
 3152              	.L118:
 717:.\main.c      ****         						}
 718:.\main.c      ****                             }
 719:.\main.c      ****                         }else{
 720:.\main.c      ****                             if(estado_tanqueando2==0){
 3153              		.loc 1 720 0
 3154 0ab8 2C4B     		ldr	r3, .L144+20
 3155 0aba 1B78     		ldrb	r3, [r3]	@ zero_extendqisi2
 3156 0abc 002B     		cmp	r3, #0
 3157 0abe 2AD1     		bne	.L125
 721:.\main.c      ****         						switch(PC_rxBuffer[5]){
 3158              		.loc 1 721 0
 3159 0ac0 284B     		ldr	r3, .L144+12
 3160 0ac2 5B79     		ldrb	r3, [r3, #5]
 3161 0ac4 DBB2     		uxtb	r3, r3
 3162 0ac6 313B     		subs	r3, r3, #49
 3163 0ac8 032B     		cmp	r3, #3
 3164 0aca 24D8     		bhi	.L134
 3165 0acc 01A2     		adr	r2, .L127
 3166 0ace 52F823F0 		ldr	pc, [r2, r3, lsl #2]
 3167 0ad2 00BF     		.p2align 2
 3168              	.L127:
 3169 0ad4 E50A0000 		.word	.L126+1
 3170 0ad8 F50A0000 		.word	.L128+1
 3171 0adc 050B0000 		.word	.L129+1
 3172 0ae0 150B0000 		.word	.L135+1
 3173              		.p2align 1
 3174              	.L126:
 722:.\main.c      ****         							case '1':														
 723:.\main.c      ****         								lado2.estado=libre;
 3175              		.loc 1 723 0
 3176 0ae4 1C4B     		ldr	r3, .L144
 3177 0ae6 0122     		movs	r2, #1
 3178 0ae8 5A70     		strb	r2, [r3, #1]
 724:.\main.c      ****         								error_op(2,28);					 //Error de id					
 3179              		.loc 1 724 0
 3180 0aea 0220     		movs	r0, #2
 3181 0aec 1C21     		movs	r1, #28
 3182 0aee FFF7FEFF 		bl	error_op
 725:.\main.c      ****         							break;
 3183              		.loc 1 725 0
 3184 0af2 10E0     		b	.L125
 3185              	.L128:
 726:.\main.c      ****         								
 727:.\main.c      ****         							case '2':
 728:.\main.c      ****         								lado2.estado=libre;
 3186              		.loc 1 728 0
 3187 0af4 184B     		ldr	r3, .L144
ARM GAS  C:\Users\RECEPC~1\AppData\Local\Temp\cckIP3O9.s 			page 72


 3188 0af6 0122     		movs	r2, #1
 3189 0af8 5A70     		strb	r2, [r3, #1]
 729:.\main.c      ****         								error_op(2,12);					//Gracias por su compra
 3190              		.loc 1 729 0
 3191 0afa 0220     		movs	r0, #2
 3192 0afc 0C21     		movs	r1, #12
 3193 0afe FFF7FEFF 		bl	error_op
 730:.\main.c      ****         							break;
 3194              		.loc 1 730 0
 3195 0b02 08E0     		b	.L125
 3196              	.L129:
 731:.\main.c      ****         								
 732:.\main.c      ****         							case '3':
 733:.\main.c      ****         								lado2.estado=libre;
 3197              		.loc 1 733 0
 3198 0b04 144B     		ldr	r3, .L144
 3199 0b06 0122     		movs	r2, #1
 3200 0b08 5A70     		strb	r2, [r3, #1]
 734:.\main.c      ****         								error_op(2,85);					//Error de Operacion
 3201              		.loc 1 734 0
 3202 0b0a 0220     		movs	r0, #2
 3203 0b0c 5521     		movs	r1, #85
 3204 0b0e FFF7FEFF 		bl	error_op
 735:.\main.c      ****         							break;
 3205              		.loc 1 735 0
 3206 0b12 00E0     		b	.L125
 3207              	.L135:
 736:.\main.c      ****         								
 737:.\main.c      ****         							case '4':
 738:.\main.c      ****     //    								lado2.estado=libre;//
 739:.\main.c      ****     //    								error_op(2,12);		//			//Fin Corte
 740:.\main.c      ****         							break;									
 3208              		.loc 1 740 0
 3209 0b14 00BF     		nop
 3210              	.L125:
 3211              	.L134:
 741:.\main.c      ****         						}
 742:.\main.c      ****                             }                        
 743:.\main.c      ****                         }
 744:.\main.c      **** 					break;
 3212              		.loc 1 744 0
 3213 0b16 00BF     		nop
 3214              	.L62:
 745:.\main.c      **** 				}
 746:.\main.c      **** 				if(ok_datosRF==1){
 3215              		.loc 1 746 0
 3216 0b18 154B     		ldr	r3, .L144+24
 3217 0b1a 1B78     		ldrb	r3, [r3]	@ zero_extendqisi2
 3218 0b1c 012B     		cmp	r3, #1
 3219 0b1e 0FD1     		bne	.L61
 747:.\main.c      **** 				    for(x=0;x<size;x++){
 3220              		.loc 1 747 0
 3221 0b20 0023     		movs	r3, #0
 3222 0b22 BB82     		strh	r3, [r7, #20]	@ movhi
 3223 0b24 08E0     		b	.L131
 3224              	.L132:
 748:.\main.c      **** 					   PC_PutChar(rf_mod[x]);
ARM GAS  C:\Users\RECEPC~1\AppData\Local\Temp\cckIP3O9.s 			page 73


 3225              		.loc 1 748 0 discriminator 3
 3226 0b26 BB8A     		ldrh	r3, [r7, #20]
 3227 0b28 124A     		ldr	r2, .L144+28
 3228 0b2a D35C     		ldrb	r3, [r2, r3]	@ zero_extendqisi2
 3229 0b2c 1846     		mov	r0, r3
 3230 0b2e FFF7FEFF 		bl	PC_PutChar
 747:.\main.c      **** 				    for(x=0;x<size;x++){
 3231              		.loc 1 747 0 discriminator 3
 3232 0b32 BB8A     		ldrh	r3, [r7, #20]
 3233 0b34 0133     		adds	r3, r3, #1
 3234 0b36 BB82     		strh	r3, [r7, #20]	@ movhi
 3235              	.L131:
 747:.\main.c      **** 				    for(x=0;x<size;x++){
 3236              		.loc 1 747 0 is_stmt 0 discriminator 1
 3237 0b38 BA8A     		ldrh	r2, [r7, #20]
 3238 0b3a FB8A     		ldrh	r3, [r7, #22]
 3239 0b3c 9A42     		cmp	r2, r3
 3240 0b3e F2D3     		bcc	.L132
 3241              	.L61:
 749:.\main.c      **** 				    }	               
 750:.\main.c      **** 				}
 751:.\main.c      **** 			}
 752:.\main.c      **** 			PC_ClearRxBuffer();
 3242              		.loc 1 752 0 is_stmt 1
 3243 0b40 FFF7FEFF 		bl	PC_ClearRxBuffer
 753:.\main.c      ****             Surtidor_ClearRxBuffer();
 3244              		.loc 1 753 0
 3245 0b44 FFF7FEFF 		bl	Surtidor_ClearRxBuffer
 754:.\main.c      **** 			status1=0;
 3246              		.loc 1 754 0
 3247 0b48 0023     		movs	r3, #0
 3248 0b4a 3B82     		strh	r3, [r7, #16]	@ movhi
 755:.\main.c      **** 			status2=0;			
 3249              		.loc 1 755 0
 3250 0b4c 0023     		movs	r3, #0
 3251 0b4e FB81     		strh	r3, [r7, #14]	@ movhi
 3252              	.L59:
 756:.\main.c      **** 		}		
 757:.\main.c      **** 	}
 758:.\main.c      **** }
 3253              		.loc 1 758 0
 3254 0b50 1837     		adds	r7, r7, #24
 3255              		.cfi_def_cfa_offset 8
 3256 0b52 BD46     		mov	sp, r7
 3257              		.cfi_def_cfa_register 13
 3258              		@ sp needed
 3259 0b54 80BD     		pop	{r7, pc}
 3260              	.L145:
 3261 0b56 00BF     		.align	2
 3262              	.L144:
 3263 0b58 00000000 		.word	lado2
 3264 0b5c 00000000 		.word	flujo_LCD2
 3265 0b60 00000000 		.word	lado1
 3266 0b64 00000000 		.word	PC_rxBuffer
 3267 0b68 00000000 		.word	estado_tanqueando
 3268 0b6c 00000000 		.word	estado_tanqueando2
 3269 0b70 00000000 		.word	ok_datosRF
ARM GAS  C:\Users\RECEPC~1\AppData\Local\Temp\cckIP3O9.s 			page 74


 3270 0b74 00000000 		.word	rf_mod
 3271              		.cfi_endproc
 3272              	.LFE67:
 3273              		.size	polling_rf, .-polling_rf
 3274              		.section	.text.polling_surt,"ax",%progbits
 3275              		.align	2
 3276              		.global	polling_surt
 3277              		.thumb
 3278              		.thumb_func
 3279              		.type	polling_surt, %function
 3280              	polling_surt:
 3281              	.LFB68:
 759:.\main.c      **** 
 760:.\main.c      **** /*
 761:.\main.c      **** ***************************************************************************************************
 762:.\main.c      **** *                                         uint8 polling_surt(void)
 763:.\main.c      **** *
 764:.\main.c      **** * Description : 
 765:.\main.c      **** *               
 766:.\main.c      **** *
 767:.\main.c      **** * Argument(s) : none
 768:.\main.c      **** *
 769:.\main.c      **** * Return(s)   : none
 770:.\main.c      **** *
 771:.\main.c      **** * Caller(s)   : 
 772:.\main.c      **** *
 773:.\main.c      **** * Note(s)     : none.
 774:.\main.c      **** ***************************************************************************************************
 775:.\main.c      **** */
 776:.\main.c      **** void polling_surt(void){
 3282              		.loc 1 776 0
 3283              		.cfi_startproc
 3284              		@ args = 0, pretend = 0, frame = 0
 3285              		@ frame_needed = 1, uses_anonymous_args = 0
 3286 0000 80B5     		push	{r7, lr}
 3287              		.cfi_def_cfa_offset 8
 3288              		.cfi_offset 7, -8
 3289              		.cfi_offset 14, -4
 3290 0002 00AF     		add	r7, sp, #0
 3291              		.cfi_def_cfa_register 7
 777:.\main.c      **** 
 778:.\main.c      **** 	if((lado1.estado==libre && lado2.estado==libre) ){     
 3292              		.loc 1 778 0
 3293 0004 144B     		ldr	r3, .L149
 3294 0006 5B78     		ldrb	r3, [r3, #1]
 3295 0008 DBB2     		uxtb	r3, r3
 3296 000a 012B     		cmp	r3, #1
 3297 000c 14D1     		bne	.L147
 3298              		.loc 1 778 0 is_stmt 0 discriminator 1
 3299 000e 134B     		ldr	r3, .L149+4
 3300 0010 5B78     		ldrb	r3, [r3, #1]
 3301 0012 DBB2     		uxtb	r3, r3
 3302 0014 012B     		cmp	r3, #1
 3303 0016 0FD1     		bne	.L147
 779:.\main.c      ****         Pin_1_Write(0);
 3304              		.loc 1 779 0 is_stmt 1
 3305 0018 0020     		movs	r0, #0
ARM GAS  C:\Users\RECEPC~1\AppData\Local\Temp\cckIP3O9.s 			page 75


 3306 001a FFF7FEFF 		bl	Pin_1_Write
 780:.\main.c      ****         Pin_2_Write(0);
 3307              		.loc 1 780 0
 3308 001e 0020     		movs	r0, #0
 3309 0020 FFF7FEFF 		bl	Pin_2_Write
 781:.\main.c      ****         Pin_3_Write(0);
 3310              		.loc 1 781 0
 3311 0024 0020     		movs	r0, #0
 3312 0026 FFF7FEFF 		bl	Pin_3_Write
 782:.\main.c      ****         Pin_4_Write(1);
 3313              		.loc 1 782 0
 3314 002a 0120     		movs	r0, #1
 3315 002c FFF7FEFF 		bl	Pin_4_Write
 783:.\main.c      ****         Pin_5_Write(1);        
 3316              		.loc 1 783 0
 3317 0030 0120     		movs	r0, #1
 3318 0032 FFF7FEFF 		bl	Pin_5_Write
 3319 0036 0EE0     		b	.L146
 3320              	.L147:
 784:.\main.c      **** 	} 
 785:.\main.c      **** 	else{                          
 786:.\main.c      ****         Pin_1_Write(1);
 3321              		.loc 1 786 0
 3322 0038 0120     		movs	r0, #1
 3323 003a FFF7FEFF 		bl	Pin_1_Write
 787:.\main.c      ****         Pin_2_Write(1);
 3324              		.loc 1 787 0
 3325 003e 0120     		movs	r0, #1
 3326 0040 FFF7FEFF 		bl	Pin_2_Write
 788:.\main.c      ****         Pin_3_Write(1);
 3327              		.loc 1 788 0
 3328 0044 0120     		movs	r0, #1
 3329 0046 FFF7FEFF 		bl	Pin_3_Write
 789:.\main.c      ****         Pin_4_Write(0);
 3330              		.loc 1 789 0
 3331 004a 0020     		movs	r0, #0
 3332 004c FFF7FEFF 		bl	Pin_4_Write
 790:.\main.c      ****         Pin_5_Write(0);         
 3333              		.loc 1 790 0
 3334 0050 0020     		movs	r0, #0
 3335 0052 FFF7FEFF 		bl	Pin_5_Write
 3336              	.L146:
 791:.\main.c      **** 	}       
 792:.\main.c      **** }
 3337              		.loc 1 792 0
 3338 0056 80BD     		pop	{r7, pc}
 3339              	.L150:
 3340              		.align	2
 3341              	.L149:
 3342 0058 00000000 		.word	lado1
 3343 005c 00000000 		.word	lado2
 3344              		.cfi_endproc
 3345              	.LFE68:
 3346              		.size	polling_surt, .-polling_surt
 3347              		.global	__aeabi_dcmpge
 3348              		.global	__aeabi_dcmple
 3349              		.global	__aeabi_dcmpgt
ARM GAS  C:\Users\RECEPC~1\AppData\Local\Temp\cckIP3O9.s 			page 76


 3350              		.section	.text.polling_LCD1,"ax",%progbits
 3351              		.align	2
 3352              		.global	polling_LCD1
 3353              		.thumb
 3354              		.thumb_func
 3355              		.type	polling_LCD1, %function
 3356              	polling_LCD1:
 3357              	.LFB69:
 793:.\main.c      **** 
 794:.\main.c      **** /*
 795:.\main.c      **** ***************************************************************************************************
 796:.\main.c      **** *                                         void polling_LCD1(void)
 797:.\main.c      **** *
 798:.\main.c      **** * Description : 
 799:.\main.c      **** *               
 800:.\main.c      **** *
 801:.\main.c      **** * Argument(s) : none
 802:.\main.c      **** *
 803:.\main.c      **** * Return(s)   : none
 804:.\main.c      **** *
 805:.\main.c      **** * Caller(s)   : 
 806:.\main.c      **** *
 807:.\main.c      **** * Note(s)     : none.
 808:.\main.c      **** ***************************************************************************************************
 809:.\main.c      **** */
 810:.\main.c      **** 
 811:.\main.c      **** void polling_LCD1(void){
 3358              		.loc 1 811 0
 3359              		.cfi_startproc
 3360              		@ args = 0, pretend = 0, frame = 56
 3361              		@ frame_needed = 1, uses_anonymous_args = 0
 3362 0000 B0B5     		push	{r4, r5, r7, lr}
 3363              		.cfi_def_cfa_offset 16
 3364              		.cfi_offset 4, -16
 3365              		.cfi_offset 5, -12
 3366              		.cfi_offset 7, -8
 3367              		.cfi_offset 14, -4
 3368 0002 90B0     		sub	sp, sp, #64
 3369              		.cfi_def_cfa_offset 80
 3370 0004 02AF     		add	r7, sp, #8
 3371              		.cfi_def_cfa 7, 72
 812:.\main.c      **** 	uint8 x,y,aux[10],precio[5],x_1;
 813:.\main.c      ****     uint8 h_preset;
 814:.\main.c      ****     uint8 preset_local[8];
 815:.\main.c      **** 	char numero[8];
 816:.\main.c      **** 	double num_decimal;
 817:.\main.c      **** 	switch(flujo_LCD1){
 3372              		.loc 1 817 0
 3373 0006 B04B     		ldr	r3, .L497
 3374 0008 1B78     		ldrb	r3, [r3]
 3375 000a DBB2     		uxtb	r3, r3
 3376 000c 662B     		cmp	r3, #102
 3377 000e 03F25B80 		bhi	.L151
 3378 0012 01A2     		adr	r2, .L154
 3379 0014 52F823F0 		ldr	pc, [r2, r3, lsl #2]
 3380              		.p2align 2
 3381              	.L154:
ARM GAS  C:\Users\RECEPC~1\AppData\Local\Temp\cckIP3O9.s 			page 77


 3382 0018 B5010000 		.word	.L153+1
 3383 001c D5010000 		.word	.L155+1
 3384 0020 E1020000 		.word	.L156+1
 3385 0024 C10D0000 		.word	.L157+1
 3386 0028 330F0000 		.word	.L158+1
 3387 002c 0D110000 		.word	.L159+1
 3388 0030 C9300000 		.word	.L151+1
 3389 0034 23120000 		.word	.L160+1
 3390 0038 A5120000 		.word	.L161+1
 3391 003c F7120000 		.word	.L162+1
 3392 0040 31190000 		.word	.L163+1
 3393 0044 6B190000 		.word	.L164+1
 3394 0048 D11A0000 		.word	.L165+1
 3395 004c 43200000 		.word	.L166+1
 3396 0050 91250000 		.word	.L167+1
 3397 0054 B1270000 		.word	.L168+1
 3398 0058 D9280000 		.word	.L169+1
 3399 005c C9290000 		.word	.L170+1
 3400 0060 632A0000 		.word	.L171+1
 3401 0064 B12E0000 		.word	.L172+1
 3402 0068 C9300000 		.word	.L151+1
 3403 006c C9300000 		.word	.L151+1
 3404 0070 C9300000 		.word	.L151+1
 3405 0074 C9300000 		.word	.L151+1
 3406 0078 C9300000 		.word	.L151+1
 3407 007c C9300000 		.word	.L151+1
 3408 0080 C9300000 		.word	.L151+1
 3409 0084 C9300000 		.word	.L151+1
 3410 0088 C9300000 		.word	.L151+1
 3411 008c C9300000 		.word	.L151+1
 3412 0090 C9300000 		.word	.L151+1
 3413 0094 C9300000 		.word	.L151+1
 3414 0098 C9300000 		.word	.L151+1
 3415 009c C9300000 		.word	.L151+1
 3416 00a0 C9300000 		.word	.L151+1
 3417 00a4 C9300000 		.word	.L151+1
 3418 00a8 C9300000 		.word	.L151+1
 3419 00ac C9300000 		.word	.L151+1
 3420 00b0 C9300000 		.word	.L151+1
 3421 00b4 C9300000 		.word	.L151+1
 3422 00b8 C9300000 		.word	.L151+1
 3423 00bc C9300000 		.word	.L151+1
 3424 00c0 C9300000 		.word	.L151+1
 3425 00c4 C9300000 		.word	.L151+1
 3426 00c8 C9300000 		.word	.L151+1
 3427 00cc C9300000 		.word	.L151+1
 3428 00d0 C9300000 		.word	.L151+1
 3429 00d4 C9300000 		.word	.L151+1
 3430 00d8 C9300000 		.word	.L151+1
 3431 00dc C9300000 		.word	.L151+1
 3432 00e0 C9300000 		.word	.L151+1
 3433 00e4 C9300000 		.word	.L151+1
 3434 00e8 C9300000 		.word	.L151+1
 3435 00ec C9300000 		.word	.L151+1
 3436 00f0 C9300000 		.word	.L151+1
 3437 00f4 C9300000 		.word	.L151+1
 3438 00f8 C9300000 		.word	.L151+1
ARM GAS  C:\Users\RECEPC~1\AppData\Local\Temp\cckIP3O9.s 			page 78


 3439 00fc C9300000 		.word	.L151+1
 3440 0100 C9300000 		.word	.L151+1
 3441 0104 C9300000 		.word	.L151+1
 3442 0108 C9300000 		.word	.L151+1
 3443 010c C9300000 		.word	.L151+1
 3444 0110 C9300000 		.word	.L151+1
 3445 0114 C9300000 		.word	.L151+1
 3446 0118 C9300000 		.word	.L151+1
 3447 011c C9300000 		.word	.L151+1
 3448 0120 C9300000 		.word	.L151+1
 3449 0124 C9300000 		.word	.L151+1
 3450 0128 C9300000 		.word	.L151+1
 3451 012c C9300000 		.word	.L151+1
 3452 0130 C9300000 		.word	.L151+1
 3453 0134 C9300000 		.word	.L151+1
 3454 0138 C9300000 		.word	.L151+1
 3455 013c C9300000 		.word	.L151+1
 3456 0140 C9300000 		.word	.L151+1
 3457 0144 C9300000 		.word	.L151+1
 3458 0148 C9300000 		.word	.L151+1
 3459 014c C9300000 		.word	.L151+1
 3460 0150 C9300000 		.word	.L151+1
 3461 0154 C9300000 		.word	.L151+1
 3462 0158 C9300000 		.word	.L151+1
 3463 015c C9300000 		.word	.L151+1
 3464 0160 C9300000 		.word	.L151+1
 3465 0164 C9300000 		.word	.L151+1
 3466 0168 C9300000 		.word	.L151+1
 3467 016c C9300000 		.word	.L151+1
 3468 0170 C9300000 		.word	.L151+1
 3469 0174 C9300000 		.word	.L151+1
 3470 0178 C9300000 		.word	.L151+1
 3471 017c C9300000 		.word	.L151+1
 3472 0180 C9300000 		.word	.L151+1
 3473 0184 C9300000 		.word	.L151+1
 3474 0188 C9300000 		.word	.L151+1
 3475 018c C9300000 		.word	.L151+1
 3476 0190 C9300000 		.word	.L151+1
 3477 0194 C9300000 		.word	.L151+1
 3478 0198 C9300000 		.word	.L151+1
 3479 019c C9300000 		.word	.L151+1
 3480 01a0 C9300000 		.word	.L151+1
 3481 01a4 C9300000 		.word	.L151+1
 3482 01a8 A9300000 		.word	.L173+1
 3483 01ac 73300000 		.word	.L174+1
 3484 01b0 C9300000 		.word	.L151+1
 3485              		.p2align 1
 3486              	.L153:
 818:.\main.c      ****         case 0:
 819:.\main.c      ****          isr_3_StartEx(animacion); 
 3487              		.loc 1 819 0
 3488 01b4 4548     		ldr	r0, .L497+4
 3489 01b6 FFF7FEFF 		bl	isr_3_StartEx
 820:.\main.c      ****          Timer_Animacion_Start();
 3490              		.loc 1 820 0
 3491 01ba FFF7FEFF 		bl	Timer_Animacion_Start
 821:.\main.c      ****          count_protector=0;
ARM GAS  C:\Users\RECEPC~1\AppData\Local\Temp\cckIP3O9.s 			page 79


 3492              		.loc 1 821 0
 3493 01be 444B     		ldr	r3, .L497+8
 3494 01c0 0022     		movs	r2, #0
 3495 01c2 1A70     		strb	r2, [r3]
 822:.\main.c      ****          flujo_LCD1=1;	
 3496              		.loc 1 822 0
 3497 01c4 404B     		ldr	r3, .L497
 3498 01c6 0122     		movs	r2, #1
 3499 01c8 1A70     		strb	r2, [r3]
 823:.\main.c      ****          Side1State = witeSide1; 
 3500              		.loc 1 823 0
 3501 01ca 424B     		ldr	r3, .L497+12
 3502 01cc 0A22     		movs	r2, #10
 3503 01ce 1A70     		strb	r2, [r3]
 824:.\main.c      ****         break;
 3504              		.loc 1 824 0
 3505 01d0 02F07ABF 		b	.L151
 3506              	.L155:
 825:.\main.c      **** 		
 826:.\main.c      ****         case 1:    
 827:.\main.c      ****          if(LCD_1_GetRxBufferSize()==8){ 
 3507              		.loc 1 827 0
 3508 01d4 FFF7FEFF 		bl	LCD_1_GetRxBufferSize
 3509 01d8 0346     		mov	r3, r0
 3510 01da 082B     		cmp	r3, #8
 3511 01dc 71D1     		bne	.L176
 828:.\main.c      ****             totales(lado1.dir, lado1.mangueras);//
 3512              		.loc 1 828 0
 3513 01de 3E4B     		ldr	r3, .L497+16
 3514 01e0 1B78     		ldrb	r3, [r3]
 3515 01e2 DAB2     		uxtb	r2, r3
 3516 01e4 3C4B     		ldr	r3, .L497+16
 3517 01e6 93F85C30 		ldrb	r3, [r3, #92]
 3518 01ea DBB2     		uxtb	r3, r3
 3519 01ec 1046     		mov	r0, r2
 3520 01ee 1946     		mov	r1, r3
 3521 01f0 FFF7FEFF 		bl	totales
 829:.\main.c      ****             CyDelay(50);    // 
 3522              		.loc 1 829 0
 3523 01f4 3220     		movs	r0, #50
 3524 01f6 FFF7FEFF 		bl	CyDelay
 830:.\main.c      ****         	rf_mod[0]='M';
 3525              		.loc 1 830 0
 3526 01fa 384B     		ldr	r3, .L497+20
 3527 01fc 4D22     		movs	r2, #77
 3528 01fe 1A70     		strb	r2, [r3]
 831:.\main.c      ****     		rf_mod[1]='U';
 3529              		.loc 1 831 0
 3530 0200 364B     		ldr	r3, .L497+20
 3531 0202 5522     		movs	r2, #85
 3532 0204 5A70     		strb	r2, [r3, #1]
 832:.\main.c      ****     		rf_mod[2]='X';
 3533              		.loc 1 832 0
 3534 0206 354B     		ldr	r3, .L497+20
 3535 0208 5822     		movs	r2, #88
 3536 020a 9A70     		strb	r2, [r3, #2]
 833:.\main.c      ****     		rf_mod[3]='H';  
ARM GAS  C:\Users\RECEPC~1\AppData\Local\Temp\cckIP3O9.s 			page 80


 3537              		.loc 1 833 0
 3538 020c 334B     		ldr	r3, .L497+20
 3539 020e 4822     		movs	r2, #72
 3540 0210 DA70     		strb	r2, [r3, #3]
 834:.\main.c      ****         	rf_mod[4]='o';
 3541              		.loc 1 834 0
 3542 0212 324B     		ldr	r3, .L497+20
 3543 0214 6F22     		movs	r2, #111
 3544 0216 1A71     		strb	r2, [r3, #4]
 835:.\main.c      ****     		rf_mod[5]='l';
 3545              		.loc 1 835 0
 3546 0218 304B     		ldr	r3, .L497+20
 3547 021a 6C22     		movs	r2, #108
 3548 021c 5A71     		strb	r2, [r3, #5]
 836:.\main.c      ****     		rf_mod[6]='a';
 3549              		.loc 1 836 0
 3550 021e 2F4B     		ldr	r3, .L497+20
 3551 0220 6122     		movs	r2, #97
 3552 0222 9A71     		strb	r2, [r3, #6]
 837:.\main.c      ****     		rf_mod[7]='*'; 
 3553              		.loc 1 837 0
 3554 0224 2D4B     		ldr	r3, .L497+20
 3555 0226 2A22     		movs	r2, #42
 3556 0228 DA71     		strb	r2, [r3, #7]
 838:.\main.c      **** 			PC_ClearRxBuffer();
 3557              		.loc 1 838 0
 3558 022a FFF7FEFF 		bl	PC_ClearRxBuffer
 839:.\main.c      **** 		    for(x=0;x<=7;x++){
 3559              		.loc 1 839 0
 3560 022e 0023     		movs	r3, #0
 3561 0230 87F83730 		strb	r3, [r7, #55]
 3562 0234 0BE0     		b	.L177
 3563              	.L178:
 840:.\main.c      **** 			   PC_PutChar(rf_mod[x]);
 3564              		.loc 1 840 0 discriminator 3
 3565 0236 97F83730 		ldrb	r3, [r7, #55]	@ zero_extendqisi2
 3566 023a 284A     		ldr	r2, .L497+20
 3567 023c D35C     		ldrb	r3, [r2, r3]	@ zero_extendqisi2
 3568 023e 1846     		mov	r0, r3
 3569 0240 FFF7FEFF 		bl	PC_PutChar
 839:.\main.c      **** 		    for(x=0;x<=7;x++){
 3570              		.loc 1 839 0 discriminator 3
 3571 0244 97F83730 		ldrb	r3, [r7, #55]	@ zero_extendqisi2
 3572 0248 0133     		adds	r3, r3, #1
 3573 024a 87F83730 		strb	r3, [r7, #55]
 3574              	.L177:
 839:.\main.c      **** 		    for(x=0;x<=7;x++){
 3575              		.loc 1 839 0 is_stmt 0 discriminator 1
 3576 024e 97F83730 		ldrb	r3, [r7, #55]	@ zero_extendqisi2
 3577 0252 072B     		cmp	r3, #7
 3578 0254 EFD9     		bls	.L178
 841:.\main.c      **** 		    }				
 842:.\main.c      **** 			CyDelay(80);            
 3579              		.loc 1 842 0 is_stmt 1
 3580 0256 5020     		movs	r0, #80
 3581 0258 FFF7FEFF 		bl	CyDelay
 843:.\main.c      ****             for(x=0;x<=11;x++){     //volumen_pro1 
ARM GAS  C:\Users\RECEPC~1\AppData\Local\Temp\cckIP3O9.s 			page 81


 3582              		.loc 1 843 0
 3583 025c 0023     		movs	r3, #0
 3584 025e 87F83730 		strb	r3, [r7, #55]
 3585 0262 2AE0     		b	.L179
 3586              	.L182:
 844:.\main.c      ****                 if(lado1.totales[0][x]!=0 || lado1.totales[1][x]!=0 || lado1.totales[2][x]!=0){
 3587              		.loc 1 844 0
 3588 0264 97F83730 		ldrb	r3, [r7, #55]	@ zero_extendqisi2
 3589 0268 1B4A     		ldr	r2, .L497+16
 3590 026a 1344     		add	r3, r3, r2
 3591 026c 9B78     		ldrb	r3, [r3, #2]
 3592 026e DBB2     		uxtb	r3, r3
 3593 0270 002B     		cmp	r3, #0
 3594 0272 10D1     		bne	.L180
 3595              		.loc 1 844 0 is_stmt 0 discriminator 1
 3596 0274 97F83730 		ldrb	r3, [r7, #55]	@ zero_extendqisi2
 3597 0278 174A     		ldr	r2, .L497+16
 3598 027a 1344     		add	r3, r3, r2
 3599 027c 9B7E     		ldrb	r3, [r3, #26]
 3600 027e DBB2     		uxtb	r3, r3
 3601 0280 002B     		cmp	r3, #0
 3602 0282 08D1     		bne	.L180
 3603              		.loc 1 844 0 discriminator 2
 3604 0284 97F83730 		ldrb	r3, [r7, #55]	@ zero_extendqisi2
 3605 0288 134A     		ldr	r2, .L497+16
 3606 028a 1344     		add	r3, r3, r2
 3607 028c 93F83230 		ldrb	r3, [r3, #50]
 3608 0290 DBB2     		uxtb	r3, r3
 3609 0292 002B     		cmp	r3, #0
 3610 0294 0CD0     		beq	.L181
 3611              	.L180:
 845:.\main.c      ****                     isr_3_Stop(); 
 3612              		.loc 1 845 0 is_stmt 1
 3613 0296 FFF7FEFF 		bl	isr_3_Stop
 846:.\main.c      ****                     Timer_Animacion_Stop(); 
 3614              		.loc 1 846 0
 3615 029a FFF7FEFF 		bl	Timer_Animacion_Stop
 847:.\main.c      ****         	        flujo_LCD1=13;
 3616              		.loc 1 847 0
 3617 029e 0A4B     		ldr	r3, .L497
 3618 02a0 0D22     		movs	r2, #13
 3619 02a2 1A70     		strb	r2, [r3]
 848:.\main.c      ****         	        set_imagen(1,99);				
 3620              		.loc 1 848 0
 3621 02a4 0120     		movs	r0, #1
 3622 02a6 6321     		movs	r1, #99
 3623 02a8 FFF7FEFF 		bl	set_imagen
 849:.\main.c      ****                     LCD_1_ClearRxBuffer();
 3624              		.loc 1 849 0
 3625 02ac FFF7FEFF 		bl	LCD_1_ClearRxBuffer
 3626              	.L181:
 843:.\main.c      ****                 if(lado1.totales[0][x]!=0 || lado1.totales[1][x]!=0 || lado1.totales[2][x]!=0){
 3627              		.loc 1 843 0 discriminator 2
 3628 02b0 97F83730 		ldrb	r3, [r7, #55]	@ zero_extendqisi2
 3629 02b4 0133     		adds	r3, r3, #1
 3630 02b6 87F83730 		strb	r3, [r7, #55]
 3631              	.L179:
ARM GAS  C:\Users\RECEPC~1\AppData\Local\Temp\cckIP3O9.s 			page 82


 843:.\main.c      ****                 if(lado1.totales[0][x]!=0 || lado1.totales[1][x]!=0 || lado1.totales[2][x]!=0){
 3632              		.loc 1 843 0 is_stmt 0 discriminator 1
 3633 02ba 97F83730 		ldrb	r3, [r7, #55]	@ zero_extendqisi2
 3634 02be 0B2B     		cmp	r3, #11
 3635 02c0 D0D9     		bls	.L182
 3636              	.L176:
 850:.\main.c      ****                 }                                
 851:.\main.c      ****             }             
 852:.\main.c      ****          }
 853:.\main.c      ****         break;
 3637              		.loc 1 853 0 is_stmt 1
 3638 02c2 02F001BF 		b	.L151
 3639              	.L498:
 3640 02c6 00BF     		.align	2
 3641              	.L497:
 3642 02c8 00000000 		.word	flujo_LCD1
 3643 02cc 00000000 		.word	animacion
 3644 02d0 00000000 		.word	count_protector
 3645 02d4 00000000 		.word	Side1State
 3646 02d8 00000000 		.word	lado1
 3647 02dc 00000000 		.word	rf_mod
 3648              	.L156:
 854:.\main.c      **** 		
 855:.\main.c      ****         case 2: 
 856:.\main.c      ****          if(LCD_1_GetRxBufferSize()==8){
 3649              		.loc 1 856 0
 3650 02e0 FFF7FEFF 		bl	LCD_1_GetRxBufferSize
 3651 02e4 0346     		mov	r3, r0
 3652 02e6 082B     		cmp	r3, #8
 3653 02e8 40F03E85 		bne	.L183
 857:.\main.c      ****             if((LCD_1_rxBuffer[0]==0xAA) && (LCD_1_rxBuffer[6]==0xC3) && (LCD_1_rxBuffer[7]==0x3C))
 3654              		.loc 1 857 0
 3655 02ec A04B     		ldr	r3, .L499
 3656 02ee 1B78     		ldrb	r3, [r3]
 3657 02f0 DBB2     		uxtb	r3, r3
 3658 02f2 AA2B     		cmp	r3, #170
 3659 02f4 40F03685 		bne	.L184
 3660              		.loc 1 857 0 is_stmt 0 discriminator 1
 3661 02f8 9D4B     		ldr	r3, .L499
 3662 02fa 9B79     		ldrb	r3, [r3, #6]
 3663 02fc DBB2     		uxtb	r3, r3
 3664 02fe C32B     		cmp	r3, #195
 3665 0300 40F03085 		bne	.L184
 3666              		.loc 1 857 0 discriminator 2
 3667 0304 9A4B     		ldr	r3, .L499
 3668 0306 DB79     		ldrb	r3, [r3, #7]
 3669 0308 DBB2     		uxtb	r3, r3
 3670 030a 3C2B     		cmp	r3, #60
 3671 030c 40F02A85 		bne	.L184
 858:.\main.c      **** 				count_protector=0;
 3672              		.loc 1 858 0 is_stmt 1
 3673 0310 984B     		ldr	r3, .L499+4
 3674 0312 0022     		movs	r2, #0
 3675 0314 1A70     		strb	r2, [r3]
 859:.\main.c      ****                 if(count_teclas1<teclas1){									
 3676              		.loc 1 859 0
 3677 0316 984B     		ldr	r3, .L499+8
ARM GAS  C:\Users\RECEPC~1\AppData\Local\Temp\cckIP3O9.s 			page 83


 3678 0318 1B78     		ldrb	r3, [r3]
 3679 031a DAB2     		uxtb	r2, r3
 3680 031c 974B     		ldr	r3, .L499+12
 3681 031e 1B78     		ldrb	r3, [r3]
 3682 0320 DBB2     		uxtb	r3, r3
 3683 0322 9A42     		cmp	r2, r3
 3684 0324 80F0BD80 		bcs	.L185
 860:.\main.c      ****                     if(LCD_1_rxBuffer[3]<=9){								//Numero de 1-9
 3685              		.loc 1 860 0
 3686 0328 914B     		ldr	r3, .L499
 3687 032a DB78     		ldrb	r3, [r3, #3]
 3688 032c DBB2     		uxtb	r3, r3
 3689 032e 092B     		cmp	r3, #9
 3690 0330 32D8     		bhi	.L186
 861:.\main.c      ****                         count_teclas1++;
 3691              		.loc 1 861 0
 3692 0332 914B     		ldr	r3, .L499+8
 3693 0334 1B78     		ldrb	r3, [r3]
 3694 0336 DBB2     		uxtb	r3, r3
 3695 0338 0133     		adds	r3, r3, #1
 3696 033a DAB2     		uxtb	r2, r3
 3697 033c 8E4B     		ldr	r3, .L499+8
 3698 033e 1A70     		strb	r2, [r3]
 862:.\main.c      ****                         Buffer_LCD1[count_teclas1]=LCD_1_rxBuffer[3];
 3699              		.loc 1 862 0
 3700 0340 8D4B     		ldr	r3, .L499+8
 3701 0342 1B78     		ldrb	r3, [r3]
 3702 0344 DBB2     		uxtb	r3, r3
 3703 0346 1A46     		mov	r2, r3
 3704 0348 894B     		ldr	r3, .L499
 3705 034a DB78     		ldrb	r3, [r3, #3]
 3706 034c D9B2     		uxtb	r1, r3
 3707 034e 8C4B     		ldr	r3, .L499+16
 3708 0350 9954     		strb	r1, [r3, r2]
 863:.\main.c      ****                         write_LCD(1,(LCD_1_rxBuffer[3]+0x30), posy1, ((count_teclas1*(sizeletra1+1)
 3709              		.loc 1 863 0
 3710 0352 874B     		ldr	r3, .L499
 3711 0354 DB78     		ldrb	r3, [r3, #3]
 3712 0356 DBB2     		uxtb	r3, r3
 3713 0358 3033     		adds	r3, r3, #48
 3714 035a D9B2     		uxtb	r1, r3
 3715 035c 894B     		ldr	r3, .L499+20
 3716 035e 1B88     		ldrh	r3, [r3]	@ movhi
 3717 0360 9DB2     		uxth	r5, r3
 3718 0362 854B     		ldr	r3, .L499+8
 3719 0364 1B78     		ldrb	r3, [r3]
 3720 0366 DBB2     		uxtb	r3, r3
 3721 0368 9BB2     		uxth	r3, r3
 3722 036a 874A     		ldr	r2, .L499+24
 3723 036c 1288     		ldrh	r2, [r2]	@ movhi
 3724 036e 92B2     		uxth	r2, r2
 3725 0370 0132     		adds	r2, r2, #1
 3726 0372 92B2     		uxth	r2, r2
 3727 0374 02FB03F3 		mul	r3, r2, r3
 3728 0378 9AB2     		uxth	r2, r3
 3729 037a 844B     		ldr	r3, .L499+28
 3730 037c 1B88     		ldrh	r3, [r3]	@ movhi
ARM GAS  C:\Users\RECEPC~1\AppData\Local\Temp\cckIP3O9.s 			page 84


 3731 037e 9BB2     		uxth	r3, r3
 3732 0380 1344     		add	r3, r3, r2
 3733 0382 9CB2     		uxth	r4, r3
 3734 0384 804B     		ldr	r3, .L499+24
 3735 0386 1B88     		ldrh	r3, [r3]	@ movhi
 3736 0388 9BB2     		uxth	r3, r3
 3737 038a DBB2     		uxtb	r3, r3
 3738 038c 0093     		str	r3, [sp]
 3739 038e 0120     		movs	r0, #1
 3740 0390 2A46     		mov	r2, r5
 3741 0392 2346     		mov	r3, r4
 3742 0394 FFF7FEFF 		bl	write_LCD
 3743              	.L186:
 864:.\main.c      ****                     }
 865:.\main.c      ****                     if(LCD_1_rxBuffer[3]==0x0A){            				//Comando de 0
 3744              		.loc 1 865 0
 3745 0398 754B     		ldr	r3, .L499
 3746 039a DB78     		ldrb	r3, [r3, #3]
 3747 039c DBB2     		uxtb	r3, r3
 3748 039e 0A2B     		cmp	r3, #10
 3749 03a0 3CD1     		bne	.L187
 866:.\main.c      **** 						if((id_teclado1==1)&&(count_teclas1==1)&&(Buffer_LCD1[1]==0)){
 3750              		.loc 1 866 0
 3751 03a2 7B4B     		ldr	r3, .L499+32
 3752 03a4 1B78     		ldrb	r3, [r3]
 3753 03a6 DBB2     		uxtb	r3, r3
 3754 03a8 012B     		cmp	r3, #1
 3755 03aa 0AD1     		bne	.L188
 3756              		.loc 1 866 0 is_stmt 0 discriminator 1
 3757 03ac 724B     		ldr	r3, .L499+8
 3758 03ae 1B78     		ldrb	r3, [r3]
 3759 03b0 DBB2     		uxtb	r3, r3
 3760 03b2 012B     		cmp	r3, #1
 3761 03b4 05D1     		bne	.L188
 3762              		.loc 1 866 0 discriminator 2
 3763 03b6 724B     		ldr	r3, .L499+16
 3764 03b8 5B78     		ldrb	r3, [r3, #1]
 3765 03ba DBB2     		uxtb	r3, r3
 3766 03bc 002B     		cmp	r3, #0
 3767 03be 00D1     		bne	.L188
 3768              		.loc 1 866 0
 3769 03c0 2CE0     		b	.L187
 3770              	.L188:
 867:.\main.c      **** 						}
 868:.\main.c      **** 						else{
 869:.\main.c      **** 	                        count_teclas1++;
 3771              		.loc 1 869 0 is_stmt 1
 3772 03c2 6D4B     		ldr	r3, .L499+8
 3773 03c4 1B78     		ldrb	r3, [r3]
 3774 03c6 DBB2     		uxtb	r3, r3
 3775 03c8 0133     		adds	r3, r3, #1
 3776 03ca DAB2     		uxtb	r2, r3
 3777 03cc 6A4B     		ldr	r3, .L499+8
 3778 03ce 1A70     		strb	r2, [r3]
 870:.\main.c      **** 	                        Buffer_LCD1[count_teclas1]=0;
 3779              		.loc 1 870 0
 3780 03d0 694B     		ldr	r3, .L499+8
ARM GAS  C:\Users\RECEPC~1\AppData\Local\Temp\cckIP3O9.s 			page 85


 3781 03d2 1B78     		ldrb	r3, [r3]
 3782 03d4 DBB2     		uxtb	r3, r3
 3783 03d6 1A46     		mov	r2, r3
 3784 03d8 694B     		ldr	r3, .L499+16
 3785 03da 0021     		movs	r1, #0
 3786 03dc 9954     		strb	r1, [r3, r2]
 871:.\main.c      **** 							write_LCD(1,0x30, posy1, ((count_teclas1*(sizeletra1+1))+posx1), sizeletra1);
 3787              		.loc 1 871 0
 3788 03de 694B     		ldr	r3, .L499+20
 3789 03e0 1B88     		ldrh	r3, [r3]	@ movhi
 3790 03e2 9DB2     		uxth	r5, r3
 3791 03e4 644B     		ldr	r3, .L499+8
 3792 03e6 1B78     		ldrb	r3, [r3]
 3793 03e8 DBB2     		uxtb	r3, r3
 3794 03ea 9BB2     		uxth	r3, r3
 3795 03ec 664A     		ldr	r2, .L499+24
 3796 03ee 1288     		ldrh	r2, [r2]	@ movhi
 3797 03f0 92B2     		uxth	r2, r2
 3798 03f2 0132     		adds	r2, r2, #1
 3799 03f4 92B2     		uxth	r2, r2
 3800 03f6 02FB03F3 		mul	r3, r2, r3
 3801 03fa 9AB2     		uxth	r2, r3
 3802 03fc 634B     		ldr	r3, .L499+28
 3803 03fe 1B88     		ldrh	r3, [r3]	@ movhi
 3804 0400 9BB2     		uxth	r3, r3
 3805 0402 1344     		add	r3, r3, r2
 3806 0404 9CB2     		uxth	r4, r3
 3807 0406 604B     		ldr	r3, .L499+24
 3808 0408 1B88     		ldrh	r3, [r3]	@ movhi
 3809 040a 9BB2     		uxth	r3, r3
 3810 040c DBB2     		uxtb	r3, r3
 3811 040e 0093     		str	r3, [sp]
 3812 0410 0120     		movs	r0, #1
 3813 0412 3021     		movs	r1, #48
 3814 0414 2A46     		mov	r2, r5
 3815 0416 2346     		mov	r3, r4
 3816 0418 FFF7FEFF 		bl	write_LCD
 3817              	.L187:
 872:.\main.c      **** 						}
 873:.\main.c      ****                     }  
 874:.\main.c      ****                     if(LCD_1_rxBuffer[3]==0x51){            	 			//Comando de Coma
 3818              		.loc 1 874 0
 3819 041c 544B     		ldr	r3, .L499
 3820 041e DB78     		ldrb	r3, [r3, #3]
 3821 0420 DBB2     		uxtb	r3, r3
 3822 0422 512B     		cmp	r3, #81
 3823 0424 3DD1     		bne	.L185
 875:.\main.c      ****                         if(count_teclas1>=1 && comas1==0){
 3824              		.loc 1 875 0
 3825 0426 544B     		ldr	r3, .L499+8
 3826 0428 1B78     		ldrb	r3, [r3]
 3827 042a DBB2     		uxtb	r3, r3
 3828 042c 002B     		cmp	r3, #0
 3829 042e 38D0     		beq	.L185
 3830              		.loc 1 875 0 is_stmt 0 discriminator 1
 3831 0430 584B     		ldr	r3, .L499+36
 3832 0432 1B78     		ldrb	r3, [r3]
ARM GAS  C:\Users\RECEPC~1\AppData\Local\Temp\cckIP3O9.s 			page 86


 3833 0434 DBB2     		uxtb	r3, r3
 3834 0436 002B     		cmp	r3, #0
 3835 0438 33D1     		bne	.L185
 876:.\main.c      ****                             count_teclas1++;
 3836              		.loc 1 876 0 is_stmt 1
 3837 043a 4F4B     		ldr	r3, .L499+8
 3838 043c 1B78     		ldrb	r3, [r3]
 3839 043e DBB2     		uxtb	r3, r3
 3840 0440 0133     		adds	r3, r3, #1
 3841 0442 DAB2     		uxtb	r2, r3
 3842 0444 4C4B     		ldr	r3, .L499+8
 3843 0446 1A70     		strb	r2, [r3]
 877:.\main.c      ****                             Buffer_LCD1[count_teclas1]=id_coma1;
 3844              		.loc 1 877 0
 3845 0448 4B4B     		ldr	r3, .L499+8
 3846 044a 1B78     		ldrb	r3, [r3]
 3847 044c DBB2     		uxtb	r3, r3
 3848 044e 1A46     		mov	r2, r3
 3849 0450 514B     		ldr	r3, .L499+40
 3850 0452 1B78     		ldrb	r3, [r3]
 3851 0454 D9B2     		uxtb	r1, r3
 3852 0456 4A4B     		ldr	r3, .L499+16
 3853 0458 9954     		strb	r1, [r3, r2]
 878:.\main.c      **** 							write_LCD(1,id_coma1, posy1, ((count_teclas1*(sizeletra1+1))+posx1), sizeletra1);
 3854              		.loc 1 878 0
 3855 045a 4F4B     		ldr	r3, .L499+40
 3856 045c 1B78     		ldrb	r3, [r3]
 3857 045e D9B2     		uxtb	r1, r3
 3858 0460 484B     		ldr	r3, .L499+20
 3859 0462 1B88     		ldrh	r3, [r3]	@ movhi
 3860 0464 9DB2     		uxth	r5, r3
 3861 0466 444B     		ldr	r3, .L499+8
 3862 0468 1B78     		ldrb	r3, [r3]
 3863 046a DBB2     		uxtb	r3, r3
 3864 046c 9BB2     		uxth	r3, r3
 3865 046e 464A     		ldr	r2, .L499+24
 3866 0470 1288     		ldrh	r2, [r2]	@ movhi
 3867 0472 92B2     		uxth	r2, r2
 3868 0474 0132     		adds	r2, r2, #1
 3869 0476 92B2     		uxth	r2, r2
 3870 0478 02FB03F3 		mul	r3, r2, r3
 3871 047c 9AB2     		uxth	r2, r3
 3872 047e 434B     		ldr	r3, .L499+28
 3873 0480 1B88     		ldrh	r3, [r3]	@ movhi
 3874 0482 9BB2     		uxth	r3, r3
 3875 0484 1344     		add	r3, r3, r2
 3876 0486 9CB2     		uxth	r4, r3
 3877 0488 3F4B     		ldr	r3, .L499+24
 3878 048a 1B88     		ldrh	r3, [r3]	@ movhi
 3879 048c 9BB2     		uxth	r3, r3
 3880 048e DBB2     		uxtb	r3, r3
 3881 0490 0093     		str	r3, [sp]
 3882 0492 0120     		movs	r0, #1
 3883 0494 2A46     		mov	r2, r5
 3884 0496 2346     		mov	r3, r4
 3885 0498 FFF7FEFF 		bl	write_LCD
 879:.\main.c      ****                             comas1=1;
ARM GAS  C:\Users\RECEPC~1\AppData\Local\Temp\cckIP3O9.s 			page 87


 3886              		.loc 1 879 0
 3887 049c 3D4B     		ldr	r3, .L499+36
 3888 049e 0122     		movs	r2, #1
 3889 04a0 1A70     		strb	r2, [r3]
 3890              	.L185:
 880:.\main.c      ****                         }
 881:.\main.c      ****                     }                    
 882:.\main.c      ****                 }
 883:.\main.c      ****                 if(LCD_1_rxBuffer[3]==0x0B){								//Cancel
 3891              		.loc 1 883 0
 3892 04a2 334B     		ldr	r3, .L499
 3893 04a4 DB78     		ldrb	r3, [r3, #3]
 3894 04a6 DBB2     		uxtb	r3, r3
 3895 04a8 0B2B     		cmp	r3, #11
 3896 04aa 40F0B780 		bne	.L189
 884:.\main.c      ****                     if(count_teclas1==0){
 3897              		.loc 1 884 0
 3898 04ae 324B     		ldr	r3, .L499+8
 3899 04b0 1B78     		ldrb	r3, [r3]
 3900 04b2 DBB2     		uxtb	r3, r3
 3901 04b4 002B     		cmp	r3, #0
 3902 04b6 75D1     		bne	.L190
 885:.\main.c      **** 						switch(id_teclado1){
 3903              		.loc 1 885 0
 3904 04b8 354B     		ldr	r3, .L499+32
 3905 04ba 1B78     		ldrb	r3, [r3]
 3906 04bc DBB2     		uxtb	r3, r3
 3907 04be 013B     		subs	r3, r3, #1
 3908 04c0 072B     		cmp	r3, #7
 3909 04c2 00F2AB80 		bhi	.L189
 3910 04c6 01A2     		adr	r2, .L193
 3911 04c8 52F823F0 		ldr	pc, [r2, r3, lsl #2]
 3912              		.p2align 2
 3913              	.L193:
 3914 04cc ED040000 		.word	.L192+1
 3915 04d0 FD040000 		.word	.L194+1
 3916 04d4 0B050000 		.word	.L195+1
 3917 04d8 21050000 		.word	.L196+1
 3918 04dc 37050000 		.word	.L197+1
 3919 04e0 4D050000 		.word	.L198+1
 3920 04e4 1D060000 		.word	.L189+1
 3921 04e8 5D050000 		.word	.L199+1
 3922              		.p2align 1
 3923              	.L192:
 886:.\main.c      **** 							case 1:
 887:.\main.c      **** 							set_imagen(1,5);
 3924              		.loc 1 887 0
 3925 04ec 0120     		movs	r0, #1
 3926 04ee 0521     		movs	r1, #5
 3927 04f0 FFF7FEFF 		bl	set_imagen
 888:.\main.c      **** 							flujo_LCD1=4;
 3928              		.loc 1 888 0
 3929 04f4 294B     		ldr	r3, .L499+44
 3930 04f6 0422     		movs	r2, #4
 3931 04f8 1A70     		strb	r2, [r3]
 889:.\main.c      **** 							break;
 3932              		.loc 1 889 0
ARM GAS  C:\Users\RECEPC~1\AppData\Local\Temp\cckIP3O9.s 			page 88


 3933 04fa 37E0     		b	.L191
 3934              	.L194:
 890:.\main.c      **** 							case 2:
 891:.\main.c      **** 	                        flujo_LCD1=0;
 3935              		.loc 1 891 0
 3936 04fc 274B     		ldr	r3, .L499+44
 3937 04fe 0022     		movs	r2, #0
 3938 0500 1A70     		strb	r2, [r3]
 892:.\main.c      **** 							lado1.estado=libre;                            
 3939              		.loc 1 892 0
 3940 0502 274B     		ldr	r3, .L499+48
 3941 0504 0122     		movs	r2, #1
 3942 0506 5A70     		strb	r2, [r3, #1]
 893:.\main.c      **** 							break;
 3943              		.loc 1 893 0
 3944 0508 30E0     		b	.L191
 3945              	.L195:
 894:.\main.c      **** 							case 3:
 895:.\main.c      **** 							set_imagen(1,0);
 3946              		.loc 1 895 0
 3947 050a 0120     		movs	r0, #1
 3948 050c 0021     		movs	r1, #0
 3949 050e FFF7FEFF 		bl	set_imagen
 896:.\main.c      **** 							flujo_LCD1=0;
 3950              		.loc 1 896 0
 3951 0512 224B     		ldr	r3, .L499+44
 3952 0514 0022     		movs	r2, #0
 3953 0516 1A70     		strb	r2, [r3]
 897:.\main.c      **** 							lado1.estado=libre;
 3954              		.loc 1 897 0
 3955 0518 214B     		ldr	r3, .L499+48
 3956 051a 0122     		movs	r2, #1
 3957 051c 5A70     		strb	r2, [r3, #1]
 898:.\main.c      **** 							break;
 3958              		.loc 1 898 0
 3959 051e 25E0     		b	.L191
 3960              	.L196:
 899:.\main.c      **** 							case 4:
 900:.\main.c      **** 							set_imagen(1,0);
 3961              		.loc 1 900 0
 3962 0520 0120     		movs	r0, #1
 3963 0522 0021     		movs	r1, #0
 3964 0524 FFF7FEFF 		bl	set_imagen
 901:.\main.c      **** 							flujo_LCD1=0;
 3965              		.loc 1 901 0
 3966 0528 1C4B     		ldr	r3, .L499+44
 3967 052a 0022     		movs	r2, #0
 3968 052c 1A70     		strb	r2, [r3]
 902:.\main.c      **** 							lado1.estado=libre;
 3969              		.loc 1 902 0
 3970 052e 1C4B     		ldr	r3, .L499+48
 3971 0530 0122     		movs	r2, #1
 3972 0532 5A70     		strb	r2, [r3, #1]
 903:.\main.c      **** 							break;
 3973              		.loc 1 903 0
 3974 0534 1AE0     		b	.L191
 3975              	.L197:
ARM GAS  C:\Users\RECEPC~1\AppData\Local\Temp\cckIP3O9.s 			page 89


 904:.\main.c      ****                             case 5:
 905:.\main.c      **** 							set_imagen(1,0);
 3976              		.loc 1 905 0
 3977 0536 0120     		movs	r0, #1
 3978 0538 0021     		movs	r1, #0
 3979 053a FFF7FEFF 		bl	set_imagen
 906:.\main.c      **** 							flujo_LCD1=0;
 3980              		.loc 1 906 0
 3981 053e 174B     		ldr	r3, .L499+44
 3982 0540 0022     		movs	r2, #0
 3983 0542 1A70     		strb	r2, [r3]
 907:.\main.c      **** 							lado1.estado=libre;                            
 3984              		.loc 1 907 0
 3985 0544 164B     		ldr	r3, .L499+48
 3986 0546 0122     		movs	r2, #1
 3987 0548 5A70     		strb	r2, [r3, #1]
 908:.\main.c      ****                             break;
 3988              		.loc 1 908 0
 3989 054a 0FE0     		b	.L191
 3990              	.L198:
 909:.\main.c      ****                             case 6:
 910:.\main.c      ****                             flujo_LCD1=16;
 3991              		.loc 1 910 0
 3992 054c 134B     		ldr	r3, .L499+44
 3993 054e 1022     		movs	r2, #16
 3994 0550 1A70     		strb	r2, [r3]
 911:.\main.c      ****                             set_imagen(1,95);                                                      
 3995              		.loc 1 911 0
 3996 0552 0120     		movs	r0, #1
 3997 0554 5F21     		movs	r1, #95
 3998 0556 FFF7FEFF 		bl	set_imagen
 912:.\main.c      ****                             break;  
 3999              		.loc 1 912 0
 4000 055a 07E0     		b	.L191
 4001              	.L199:
 913:.\main.c      ****                             case 8:
 914:.\main.c      ****                             flujo_LCD1=16;
 4002              		.loc 1 914 0
 4003 055c 0F4B     		ldr	r3, .L499+44
 4004 055e 1022     		movs	r2, #16
 4005 0560 1A70     		strb	r2, [r3]
 915:.\main.c      ****                             set_imagen(1,95);                                                      
 4006              		.loc 1 915 0
 4007 0562 0120     		movs	r0, #1
 4008 0564 5F21     		movs	r1, #95
 4009 0566 FFF7FEFF 		bl	set_imagen
 916:.\main.c      ****                             break;                             
 4010              		.loc 1 916 0
 4011 056a 00BF     		nop
 4012              	.L191:
 4013 056c 56E0     		b	.L189
 4014              	.L500:
 4015 056e 00BF     		.align	2
 4016              	.L499:
 4017 0570 00000000 		.word	LCD_1_rxBuffer
 4018 0574 00000000 		.word	count_protector
 4019 0578 00000000 		.word	count_teclas1
ARM GAS  C:\Users\RECEPC~1\AppData\Local\Temp\cckIP3O9.s 			page 90


 4020 057c 00000000 		.word	teclas1
 4021 0580 00000000 		.word	Buffer_LCD1
 4022 0584 00000000 		.word	posy1
 4023 0588 00000000 		.word	sizeletra1
 4024 058c 00000000 		.word	posx1
 4025 0590 00000000 		.word	id_teclado1
 4026 0594 00000000 		.word	comas1
 4027 0598 00000000 		.word	id_coma1
 4028 059c 00000000 		.word	flujo_LCD1
 4029 05a0 00000000 		.word	lado1
 4030              	.L190:
 917:.\main.c      **** 						}
 918:.\main.c      ****                     }
 919:.\main.c      ****                     else{
 920:.\main.c      **** 						write_LCD(1,0x20, posy1, ((count_teclas1*(sizeletra1+1))+posx1), sizeletra1);
 4031              		.loc 1 920 0
 4032 05a4 A74B     		ldr	r3, .L501
 4033 05a6 1B88     		ldrh	r3, [r3]	@ movhi
 4034 05a8 9DB2     		uxth	r5, r3
 4035 05aa A74B     		ldr	r3, .L501+4
 4036 05ac 1B78     		ldrb	r3, [r3]
 4037 05ae DBB2     		uxtb	r3, r3
 4038 05b0 9BB2     		uxth	r3, r3
 4039 05b2 A64A     		ldr	r2, .L501+8
 4040 05b4 1288     		ldrh	r2, [r2]	@ movhi
 4041 05b6 92B2     		uxth	r2, r2
 4042 05b8 0132     		adds	r2, r2, #1
 4043 05ba 92B2     		uxth	r2, r2
 4044 05bc 02FB03F3 		mul	r3, r2, r3
 4045 05c0 9AB2     		uxth	r2, r3
 4046 05c2 A34B     		ldr	r3, .L501+12
 4047 05c4 1B88     		ldrh	r3, [r3]	@ movhi
 4048 05c6 9BB2     		uxth	r3, r3
 4049 05c8 1344     		add	r3, r3, r2
 4050 05ca 9CB2     		uxth	r4, r3
 4051 05cc 9F4B     		ldr	r3, .L501+8
 4052 05ce 1B88     		ldrh	r3, [r3]	@ movhi
 4053 05d0 9BB2     		uxth	r3, r3
 4054 05d2 DBB2     		uxtb	r3, r3
 4055 05d4 0093     		str	r3, [sp]
 4056 05d6 0120     		movs	r0, #1
 4057 05d8 2021     		movs	r1, #32
 4058 05da 2A46     		mov	r2, r5
 4059 05dc 2346     		mov	r3, r4
 4060 05de FFF7FEFF 		bl	write_LCD
 921:.\main.c      ****                         if(Buffer_LCD1[count_teclas1]==id_coma1){
 4061              		.loc 1 921 0
 4062 05e2 994B     		ldr	r3, .L501+4
 4063 05e4 1B78     		ldrb	r3, [r3]
 4064 05e6 DBB2     		uxtb	r3, r3
 4065 05e8 1A46     		mov	r2, r3
 4066 05ea 9A4B     		ldr	r3, .L501+16
 4067 05ec 9B5C     		ldrb	r3, [r3, r2]
 4068 05ee DAB2     		uxtb	r2, r3
 4069 05f0 994B     		ldr	r3, .L501+20
 4070 05f2 1B78     		ldrb	r3, [r3]
 4071 05f4 DBB2     		uxtb	r3, r3
ARM GAS  C:\Users\RECEPC~1\AppData\Local\Temp\cckIP3O9.s 			page 91


 4072 05f6 9A42     		cmp	r2, r3
 4073 05f8 02D1     		bne	.L200
 922:.\main.c      ****                             comas1=0;
 4074              		.loc 1 922 0
 4075 05fa 984B     		ldr	r3, .L501+24
 4076 05fc 0022     		movs	r2, #0
 4077 05fe 1A70     		strb	r2, [r3]
 4078              	.L200:
 923:.\main.c      ****                         }
 924:.\main.c      **** 						Buffer_LCD1[count_teclas1]=0;
 4079              		.loc 1 924 0
 4080 0600 914B     		ldr	r3, .L501+4
 4081 0602 1B78     		ldrb	r3, [r3]
 4082 0604 DBB2     		uxtb	r3, r3
 4083 0606 1A46     		mov	r2, r3
 4084 0608 924B     		ldr	r3, .L501+16
 4085 060a 0021     		movs	r1, #0
 4086 060c 9954     		strb	r1, [r3, r2]
 925:.\main.c      ****                         count_teclas1--;
 4087              		.loc 1 925 0
 4088 060e 8E4B     		ldr	r3, .L501+4
 4089 0610 1B78     		ldrb	r3, [r3]
 4090 0612 DBB2     		uxtb	r3, r3
 4091 0614 013B     		subs	r3, r3, #1
 4092 0616 DAB2     		uxtb	r2, r3
 4093 0618 8B4B     		ldr	r3, .L501+4
 4094 061a 1A70     		strb	r2, [r3]
 4095              	.L189:
 926:.\main.c      ****                     }
 927:.\main.c      ****                 }
 928:.\main.c      ****                 if(LCD_1_rxBuffer[3]==0x0C){								//Enter
 4096              		.loc 1 928 0
 4097 061c 904B     		ldr	r3, .L501+28
 4098 061e DB78     		ldrb	r3, [r3, #3]
 4099 0620 DBB2     		uxtb	r3, r3
 4100 0622 0C2B     		cmp	r3, #12
 4101 0624 40F09E83 		bne	.L184
 929:.\main.c      **** 					switch(id_teclado1){
 4102              		.loc 1 929 0
 4103 0628 8E4B     		ldr	r3, .L501+32
 4104 062a 1B78     		ldrb	r3, [r3]
 4105 062c DBB2     		uxtb	r3, r3
 4106 062e 013B     		subs	r3, r3, #1
 4107 0630 072B     		cmp	r3, #7
 4108 0632 00F29783 		bhi	.L184
 4109 0636 01A2     		adr	r2, .L202
 4110 0638 52F823F0 		ldr	pc, [r2, r3, lsl #2]
 4111              		.p2align 2
 4112              	.L202:
 4113 063c 5D060000 		.word	.L201+1
 4114 0640 C3070000 		.word	.L203+1
 4115 0644 3B080000 		.word	.L204+1
 4116 0648 EB080000 		.word	.L205+1
 4117 064c 45090000 		.word	.L206+1
 4118 0650 030A0000 		.word	.L207+1
 4119 0654 2F0A0000 		.word	.L208+1
 4120 0658 170C0000 		.word	.L209+1
ARM GAS  C:\Users\RECEPC~1\AppData\Local\Temp\cckIP3O9.s 			page 92


 4121              		.p2align 1
 4122              	.L201:
 930:.\main.c      **** 						case 1:
 931:.\main.c      **** 							for(x=0;x<=7;x++){
 4123              		.loc 1 931 0
 4124 065c 0023     		movs	r3, #0
 4125 065e 87F83730 		strb	r3, [r7, #55]
 4126 0662 0CE0     		b	.L210
 4127              	.L211:
 932:.\main.c      **** 								numero[x]=0;
 4128              		.loc 1 932 0 discriminator 3
 4129 0664 97F83730 		ldrb	r3, [r7, #55]	@ zero_extendqisi2
 4130 0668 07F13802 		add	r2, r7, #56
 4131 066c 1344     		add	r3, r3, r2
 4132 066e 0022     		movs	r2, #0
 4133 0670 03F8342C 		strb	r2, [r3, #-52]
 931:.\main.c      **** 								numero[x]=0;
 4134              		.loc 1 931 0 discriminator 3
 4135 0674 97F83730 		ldrb	r3, [r7, #55]	@ zero_extendqisi2
 4136 0678 0133     		adds	r3, r3, #1
 4137 067a 87F83730 		strb	r3, [r7, #55]
 4138              	.L210:
 931:.\main.c      **** 								numero[x]=0;
 4139              		.loc 1 931 0 is_stmt 0 discriminator 1
 4140 067e 97F83730 		ldrb	r3, [r7, #55]	@ zero_extendqisi2
 4141 0682 072B     		cmp	r3, #7
 4142 0684 EED9     		bls	.L211
 933:.\main.c      **** 							}						
 934:.\main.c      **** 							if((count_teclas1>=1)&&(Buffer_LCD1[count_teclas1]!=',')){
 4143              		.loc 1 934 0 is_stmt 1
 4144 0686 704B     		ldr	r3, .L501+4
 4145 0688 1B78     		ldrb	r3, [r3]
 4146 068a DBB2     		uxtb	r3, r3
 4147 068c 002B     		cmp	r3, #0
 4148 068e 00F09780 		beq	.L212
 4149              		.loc 1 934 0 is_stmt 0 discriminator 1
 4150 0692 6D4B     		ldr	r3, .L501+4
 4151 0694 1B78     		ldrb	r3, [r3]
 4152 0696 DBB2     		uxtb	r3, r3
 4153 0698 1A46     		mov	r2, r3
 4154 069a 6E4B     		ldr	r3, .L501+16
 4155 069c 9B5C     		ldrb	r3, [r3, r2]
 4156 069e DBB2     		uxtb	r3, r3
 4157 06a0 2C2B     		cmp	r3, #44
 4158 06a2 00F08D80 		beq	.L212
 935:.\main.c      **** 								for(x=1;x<=count_teclas1;x++){
 4159              		.loc 1 935 0 is_stmt 1
 4160 06a6 0123     		movs	r3, #1
 4161 06a8 87F83730 		strb	r3, [r7, #55]
 4162 06ac 28E0     		b	.L213
 4163              	.L216:
 936:.\main.c      **** 									if(Buffer_LCD1[x]!=','){
 4164              		.loc 1 936 0
 4165 06ae 97F83730 		ldrb	r3, [r7, #55]	@ zero_extendqisi2
 4166 06b2 684A     		ldr	r2, .L501+16
 4167 06b4 D35C     		ldrb	r3, [r2, r3]
 4168 06b6 DBB2     		uxtb	r3, r3
ARM GAS  C:\Users\RECEPC~1\AppData\Local\Temp\cckIP3O9.s 			page 93


 4169 06b8 2C2B     		cmp	r3, #44
 4170 06ba 0FD0     		beq	.L214
 937:.\main.c      **** 										numero[x-1]=Buffer_LCD1[x]+48;
 4171              		.loc 1 937 0
 4172 06bc 97F83730 		ldrb	r3, [r7, #55]	@ zero_extendqisi2
 4173 06c0 013B     		subs	r3, r3, #1
 4174 06c2 97F83720 		ldrb	r2, [r7, #55]	@ zero_extendqisi2
 4175 06c6 6349     		ldr	r1, .L501+16
 4176 06c8 8A5C     		ldrb	r2, [r1, r2]
 4177 06ca D2B2     		uxtb	r2, r2
 4178 06cc 3032     		adds	r2, r2, #48
 4179 06ce D2B2     		uxtb	r2, r2
 4180 06d0 07F13801 		add	r1, r7, #56
 4181 06d4 0B44     		add	r3, r3, r1
 4182 06d6 03F8342C 		strb	r2, [r3, #-52]
 4183 06da 0CE0     		b	.L215
 4184              	.L214:
 938:.\main.c      **** 									}
 939:.\main.c      **** 									else{
 940:.\main.c      **** 										numero[x-1]=Buffer_LCD1[x];
 4185              		.loc 1 940 0
 4186 06dc 97F83730 		ldrb	r3, [r7, #55]	@ zero_extendqisi2
 4187 06e0 013B     		subs	r3, r3, #1
 4188 06e2 97F83720 		ldrb	r2, [r7, #55]	@ zero_extendqisi2
 4189 06e6 5B49     		ldr	r1, .L501+16
 4190 06e8 8A5C     		ldrb	r2, [r1, r2]
 4191 06ea D2B2     		uxtb	r2, r2
 4192 06ec 07F13801 		add	r1, r7, #56
 4193 06f0 0B44     		add	r3, r3, r1
 4194 06f2 03F8342C 		strb	r2, [r3, #-52]
 4195              	.L215:
 935:.\main.c      **** 									if(Buffer_LCD1[x]!=','){
 4196              		.loc 1 935 0 discriminator 2
 4197 06f6 97F83730 		ldrb	r3, [r7, #55]	@ zero_extendqisi2
 4198 06fa 0133     		adds	r3, r3, #1
 4199 06fc 87F83730 		strb	r3, [r7, #55]
 4200              	.L213:
 935:.\main.c      **** 									if(Buffer_LCD1[x]!=','){
 4201              		.loc 1 935 0 is_stmt 0 discriminator 1
 4202 0700 514B     		ldr	r3, .L501+4
 4203 0702 1B78     		ldrb	r3, [r3]
 4204 0704 DBB2     		uxtb	r3, r3
 4205 0706 97F83720 		ldrb	r2, [r7, #55]	@ zero_extendqisi2
 4206 070a 9A42     		cmp	r2, r3
 4207 070c CFD9     		bls	.L216
 941:.\main.c      **** 									}
 942:.\main.c      **** 								}
 943:.\main.c      **** 								num_decimal=atof(numero);
 4208              		.loc 1 943 0 is_stmt 1
 4209 070e 3B1D     		adds	r3, r7, #4
 4210 0710 1846     		mov	r0, r3
 4211 0712 FFF7FEFF 		bl	atof
 4212 0716 C7E90A01 		strd	r0, [r7, #40]
 944:.\main.c      **** 								if(((rventa1.preset[0]==1)&&(num_decimal>=800))||((rventa1.preset[0]==2)&&(num_decimal<=900
 4213              		.loc 1 944 0
 4214 071a 534B     		ldr	r3, .L501+36
 4215 071c DB7E     		ldrb	r3, [r3, #27]	@ zero_extendqisi2
ARM GAS  C:\Users\RECEPC~1\AppData\Local\Temp\cckIP3O9.s 			page 94


 4216 071e 012B     		cmp	r3, #1
 4217 0720 09D1     		bne	.L217
 4218              		.loc 1 944 0 is_stmt 0 discriminator 1
 4219 0722 D7E90A01 		ldrd	r0, [r7, #40]
 4220 0726 4FF00002 		mov	r2, #0
 4221 072a 504B     		ldr	r3, .L501+40
 4222 072c FFF7FEFF 		bl	__aeabi_dcmpge
 4223 0730 0346     		mov	r3, r0
 4224 0732 002B     		cmp	r3, #0
 4225 0734 1AD1     		bne	.L218
 4226              	.L217:
 4227              		.loc 1 944 0 discriminator 3
 4228 0736 4C4B     		ldr	r3, .L501+36
 4229 0738 DB7E     		ldrb	r3, [r3, #27]	@ zero_extendqisi2
 4230 073a 022B     		cmp	r3, #2
 4231 073c 40D1     		bne	.L212
 4232              		.loc 1 944 0 discriminator 4
 4233 073e D7E90A01 		ldrd	r0, [r7, #40]
 4234 0742 4FF00002 		mov	r2, #0
 4235 0746 4A4B     		ldr	r3, .L501+44
 4236 0748 FFF7FEFF 		bl	__aeabi_dcmple
 4237 074c 0346     		mov	r3, r0
 4238 074e 002B     		cmp	r3, #0
 4239 0750 00D1     		bne	.L491
 945:.\main.c      **** 									for(x=count_teclas1;x>=1;x--){
 946:.\main.c      **** 										rventa1.preset[x]=Buffer_LCD1[(count_teclas1-x)+1];
 947:.\main.c      **** 									}
 948:.\main.c      **** 									flujo_LCD1=5;								
 949:.\main.c      ****                          			lado1.estado=espera;
 950:.\main.c      **** 						            set_imagen(1,7);   
 951:.\main.c      **** 								}
 952:.\main.c      **** 							}
 953:.\main.c      **** 						break;
 4240              		.loc 1 953 0 is_stmt 1 discriminator 4
 4241 0752 07E3     		b	.L184
 4242              	.L491:
 944:.\main.c      **** 								if(((rventa1.preset[0]==1)&&(num_decimal>=800))||((rventa1.preset[0]==2)&&(num_decimal<=900
 4243              		.loc 1 944 0 discriminator 5
 4244 0754 D7E90A01 		ldrd	r0, [r7, #40]
 4245 0758 4FF00002 		mov	r2, #0
 4246 075c 4FF00003 		mov	r3, #0
 4247 0760 FFF7FEFF 		bl	__aeabi_dcmpgt
 4248 0764 0346     		mov	r3, r0
 4249 0766 002B     		cmp	r3, #0
 4250 0768 00D1     		bne	.L218
 4251              		.loc 1 953 0 discriminator 5
 4252 076a FBE2     		b	.L184
 4253              	.L218:
 945:.\main.c      **** 									for(x=count_teclas1;x>=1;x--){
 4254              		.loc 1 945 0
 4255 076c 364B     		ldr	r3, .L501+4
 4256 076e 1B78     		ldrb	r3, [r3]
 4257 0770 87F83730 		strb	r3, [r7, #55]
 4258 0774 15E0     		b	.L221
 4259              	.L222:
 946:.\main.c      **** 									}
 4260              		.loc 1 946 0 discriminator 3
ARM GAS  C:\Users\RECEPC~1\AppData\Local\Temp\cckIP3O9.s 			page 95


 4261 0776 97F83730 		ldrb	r3, [r7, #55]	@ zero_extendqisi2
 4262 077a 334A     		ldr	r2, .L501+4
 4263 077c 1278     		ldrb	r2, [r2]
 4264 077e D2B2     		uxtb	r2, r2
 4265 0780 1146     		mov	r1, r2
 4266 0782 97F83720 		ldrb	r2, [r7, #55]	@ zero_extendqisi2
 4267 0786 8A1A     		subs	r2, r1, r2
 4268 0788 0132     		adds	r2, r2, #1
 4269 078a 3249     		ldr	r1, .L501+16
 4270 078c 8A5C     		ldrb	r2, [r1, r2]
 4271 078e D1B2     		uxtb	r1, r2
 4272 0790 354A     		ldr	r2, .L501+36
 4273 0792 1344     		add	r3, r3, r2
 4274 0794 0A46     		mov	r2, r1
 4275 0796 DA76     		strb	r2, [r3, #27]
 945:.\main.c      **** 									for(x=count_teclas1;x>=1;x--){
 4276              		.loc 1 945 0 discriminator 3
 4277 0798 97F83730 		ldrb	r3, [r7, #55]	@ zero_extendqisi2
 4278 079c 013B     		subs	r3, r3, #1
 4279 079e 87F83730 		strb	r3, [r7, #55]
 4280              	.L221:
 945:.\main.c      **** 									for(x=count_teclas1;x>=1;x--){
 4281              		.loc 1 945 0 is_stmt 0 discriminator 1
 4282 07a2 97F83730 		ldrb	r3, [r7, #55]	@ zero_extendqisi2
 4283 07a6 002B     		cmp	r3, #0
 4284 07a8 E5D1     		bne	.L222
 948:.\main.c      ****                          			lado1.estado=espera;
 4285              		.loc 1 948 0 is_stmt 1
 4286 07aa 324B     		ldr	r3, .L501+48
 4287 07ac 0522     		movs	r2, #5
 4288 07ae 1A70     		strb	r2, [r3]
 949:.\main.c      **** 						            set_imagen(1,7);   
 4289              		.loc 1 949 0
 4290 07b0 314B     		ldr	r3, .L501+52
 4291 07b2 0222     		movs	r2, #2
 4292 07b4 5A70     		strb	r2, [r3, #1]
 950:.\main.c      **** 								}
 4293              		.loc 1 950 0
 4294 07b6 0120     		movs	r0, #1
 4295 07b8 0721     		movs	r1, #7
 4296 07ba FFF7FEFF 		bl	set_imagen
 4297              		.loc 1 953 0
 4298 07be D1E2     		b	.L184
 4299              	.L212:
 4300 07c0 D0E2     		b	.L184
 4301              	.L203:
 954:.\main.c      **** 						case 2:	
 955:.\main.c      ****                             for(x=0;x<=10;x++){
 4302              		.loc 1 955 0
 4303 07c2 0023     		movs	r3, #0
 4304 07c4 87F83730 		strb	r3, [r7, #55]
 4305 07c8 0BE0     		b	.L223
 4306              	.L224:
 956:.\main.c      ****                               rventa1.km[x]=0;
 4307              		.loc 1 956 0 discriminator 3
 4308 07ca 97F83730 		ldrb	r3, [r7, #55]	@ zero_extendqisi2
 4309 07ce 264A     		ldr	r2, .L501+36
ARM GAS  C:\Users\RECEPC~1\AppData\Local\Temp\cckIP3O9.s 			page 96


 4310 07d0 1344     		add	r3, r3, r2
 4311 07d2 0022     		movs	r2, #0
 4312 07d4 83F83320 		strb	r2, [r3, #51]
 955:.\main.c      ****                               rventa1.km[x]=0;
 4313              		.loc 1 955 0 discriminator 3
 4314 07d8 97F83730 		ldrb	r3, [r7, #55]	@ zero_extendqisi2
 4315 07dc 0133     		adds	r3, r3, #1
 4316 07de 87F83730 		strb	r3, [r7, #55]
 4317              	.L223:
 955:.\main.c      ****                               rventa1.km[x]=0;
 4318              		.loc 1 955 0 is_stmt 0 discriminator 1
 4319 07e2 97F83730 		ldrb	r3, [r7, #55]	@ zero_extendqisi2
 4320 07e6 0A2B     		cmp	r3, #10
 4321 07e8 EFD9     		bls	.L224
 957:.\main.c      ****                             }
 958:.\main.c      **** 							for(x=count_teclas1;x>=1;x--){
 4322              		.loc 1 958 0 is_stmt 1
 4323 07ea 174B     		ldr	r3, .L501+4
 4324 07ec 1B78     		ldrb	r3, [r3]
 4325 07ee 87F83730 		strb	r3, [r7, #55]
 4326 07f2 16E0     		b	.L225
 4327              	.L226:
 959:.\main.c      **** 								rventa1.km[x]=Buffer_LCD1[(count_teclas1-x)+1];
 4328              		.loc 1 959 0 discriminator 3
 4329 07f4 97F83730 		ldrb	r3, [r7, #55]	@ zero_extendqisi2
 4330 07f8 134A     		ldr	r2, .L501+4
 4331 07fa 1278     		ldrb	r2, [r2]
 4332 07fc D2B2     		uxtb	r2, r2
 4333 07fe 1146     		mov	r1, r2
 4334 0800 97F83720 		ldrb	r2, [r7, #55]	@ zero_extendqisi2
 4335 0804 8A1A     		subs	r2, r1, r2
 4336 0806 0132     		adds	r2, r2, #1
 4337 0808 1249     		ldr	r1, .L501+16
 4338 080a 8A5C     		ldrb	r2, [r1, r2]
 4339 080c D1B2     		uxtb	r1, r2
 4340 080e 164A     		ldr	r2, .L501+36
 4341 0810 1344     		add	r3, r3, r2
 4342 0812 0A46     		mov	r2, r1
 4343 0814 83F83320 		strb	r2, [r3, #51]
 958:.\main.c      **** 								rventa1.km[x]=Buffer_LCD1[(count_teclas1-x)+1];
 4344              		.loc 1 958 0 discriminator 3
 4345 0818 97F83730 		ldrb	r3, [r7, #55]	@ zero_extendqisi2
 4346 081c 013B     		subs	r3, r3, #1
 4347 081e 87F83730 		strb	r3, [r7, #55]
 4348              	.L225:
 958:.\main.c      **** 								rventa1.km[x]=Buffer_LCD1[(count_teclas1-x)+1];
 4349              		.loc 1 958 0 is_stmt 0 discriminator 1
 4350 0822 97F83730 		ldrb	r3, [r7, #55]	@ zero_extendqisi2
 4351 0826 002B     		cmp	r3, #0
 4352 0828 E4D1     		bne	.L226
 960:.\main.c      **** 							}
 961:.\main.c      **** 	                        flujo_LCD1=4;	
 4353              		.loc 1 961 0 is_stmt 1
 4354 082a 124B     		ldr	r3, .L501+48
 4355 082c 0422     		movs	r2, #4
 4356 082e 1A70     		strb	r2, [r3]
 962:.\main.c      **** 	                        set_imagen(1,5);
ARM GAS  C:\Users\RECEPC~1\AppData\Local\Temp\cckIP3O9.s 			page 97


 4357              		.loc 1 962 0
 4358 0830 0120     		movs	r0, #1
 4359 0832 0521     		movs	r1, #5
 4360 0834 FFF7FEFF 		bl	set_imagen
 963:.\main.c      **** 						break;
 4361              		.loc 1 963 0
 4362 0838 94E2     		b	.L184
 4363              	.L204:
 964:.\main.c      **** 						case 3:
 965:.\main.c      **** 							for(x=count_teclas1;x>=1;x--){
 4364              		.loc 1 965 0
 4365 083a 034B     		ldr	r3, .L501+4
 4366 083c 1B78     		ldrb	r3, [r3]
 4367 083e 87F83730 		strb	r3, [r7, #55]
 4368 0842 34E0     		b	.L227
 4369              	.L502:
 4370              		.align	2
 4371              	.L501:
 4372 0844 00000000 		.word	posy1
 4373 0848 00000000 		.word	count_teclas1
 4374 084c 00000000 		.word	sizeletra1
 4375 0850 00000000 		.word	posx1
 4376 0854 00000000 		.word	Buffer_LCD1
 4377 0858 00000000 		.word	id_coma1
 4378 085c 00000000 		.word	comas1
 4379 0860 00000000 		.word	LCD_1_rxBuffer
 4380 0864 00000000 		.word	id_teclado1
 4381 0868 00000000 		.word	rventa1
 4382 086c 00008940 		.word	1082720256
 4383 0870 00208C40 		.word	1082925056
 4384 0874 00000000 		.word	flujo_LCD1
 4385 0878 00000000 		.word	lado1
 4386              	.L228:
 966:.\main.c      **** 								rventa1.cedula[x]=Buffer_LCD1[(count_teclas1-x)+1]+48;
 4387              		.loc 1 966 0 discriminator 3
 4388 087c 97F83730 		ldrb	r3, [r7, #55]	@ zero_extendqisi2
 4389 0880 B84A     		ldr	r2, .L503
 4390 0882 1278     		ldrb	r2, [r2]
 4391 0884 D2B2     		uxtb	r2, r2
 4392 0886 1146     		mov	r1, r2
 4393 0888 97F83720 		ldrb	r2, [r7, #55]	@ zero_extendqisi2
 4394 088c 8A1A     		subs	r2, r1, r2
 4395 088e 0132     		adds	r2, r2, #1
 4396 0890 B549     		ldr	r1, .L503+4
 4397 0892 8A5C     		ldrb	r2, [r1, r2]
 4398 0894 D2B2     		uxtb	r2, r2
 4399 0896 3032     		adds	r2, r2, #48
 4400 0898 D1B2     		uxtb	r1, r2
 4401 089a B44A     		ldr	r2, .L503+8
 4402 089c 1344     		add	r3, r3, r2
 4403 089e 0A46     		mov	r2, r1
 4404 08a0 83F84920 		strb	r2, [r3, #73]
 965:.\main.c      **** 								rventa1.cedula[x]=Buffer_LCD1[(count_teclas1-x)+1]+48;
 4405              		.loc 1 965 0 discriminator 3
 4406 08a4 97F83730 		ldrb	r3, [r7, #55]	@ zero_extendqisi2
 4407 08a8 013B     		subs	r3, r3, #1
 4408 08aa 87F83730 		strb	r3, [r7, #55]
ARM GAS  C:\Users\RECEPC~1\AppData\Local\Temp\cckIP3O9.s 			page 98


 4409              	.L227:
 965:.\main.c      **** 								rventa1.cedula[x]=Buffer_LCD1[(count_teclas1-x)+1]+48;
 4410              		.loc 1 965 0 is_stmt 0 discriminator 1
 4411 08ae 97F83730 		ldrb	r3, [r7, #55]	@ zero_extendqisi2
 4412 08b2 002B     		cmp	r3, #0
 4413 08b4 E2D1     		bne	.L228
 967:.\main.c      **** 							}
 968:.\main.c      ****                         	flujo_LCD1=2;	
 4414              		.loc 1 968 0 is_stmt 1
 4415 08b6 AE4B     		ldr	r3, .L503+12
 4416 08b8 0222     		movs	r2, #2
 4417 08ba 1A70     		strb	r2, [r3]
 969:.\main.c      ****                         	set_imagen(1,5);
 4418              		.loc 1 969 0
 4419 08bc 0120     		movs	r0, #1
 4420 08be 0521     		movs	r1, #5
 4421 08c0 FFF7FEFF 		bl	set_imagen
 970:.\main.c      **** 							count_teclas1=0;
 4422              		.loc 1 970 0
 4423 08c4 A74B     		ldr	r3, .L503
 4424 08c6 0022     		movs	r2, #0
 4425 08c8 1A70     		strb	r2, [r3]
 971:.\main.c      **** 							id_teclado1=4;
 4426              		.loc 1 971 0
 4427 08ca AA4B     		ldr	r3, .L503+16
 4428 08cc 0422     		movs	r2, #4
 4429 08ce 1A70     		strb	r2, [r3]
 972:.\main.c      **** 							teclas1=10;
 4430              		.loc 1 972 0
 4431 08d0 A94B     		ldr	r3, .L503+20
 4432 08d2 0A22     		movs	r2, #10
 4433 08d4 1A70     		strb	r2, [r3]
 973:.\main.c      **** 							posx1=2;
 4434              		.loc 1 973 0
 4435 08d6 A94B     		ldr	r3, .L503+24
 4436 08d8 0222     		movs	r2, #2
 4437 08da 1A80     		strh	r2, [r3]	@ movhi
 974:.\main.c      **** 							posy1=3;
 4438              		.loc 1 974 0
 4439 08dc A84B     		ldr	r3, .L503+28
 4440 08de 0322     		movs	r2, #3
 4441 08e0 1A80     		strh	r2, [r3]	@ movhi
 975:.\main.c      **** 							sizeletra1=1;								
 4442              		.loc 1 975 0
 4443 08e2 A84B     		ldr	r3, .L503+32
 4444 08e4 0122     		movs	r2, #1
 4445 08e6 1A80     		strh	r2, [r3]	@ movhi
 976:.\main.c      **** 						break;
 4446              		.loc 1 976 0
 4447 08e8 3CE2     		b	.L184
 4448              	.L205:
 977:.\main.c      **** 						case 4:
 978:.\main.c      **** 							for(x=count_teclas1;x>=1;x--){
 4449              		.loc 1 978 0
 4450 08ea 9E4B     		ldr	r3, .L503
 4451 08ec 1B78     		ldrb	r3, [r3]
 4452 08ee 87F83730 		strb	r3, [r7, #55]
ARM GAS  C:\Users\RECEPC~1\AppData\Local\Temp\cckIP3O9.s 			page 99


 4453 08f2 18E0     		b	.L229
 4454              	.L230:
 979:.\main.c      **** 								rventa1.password[x]=Buffer_LCD1[(count_teclas1-x)+1]+48;
 4455              		.loc 1 979 0 discriminator 3
 4456 08f4 97F83730 		ldrb	r3, [r7, #55]	@ zero_extendqisi2
 4457 08f8 9A4A     		ldr	r2, .L503
 4458 08fa 1278     		ldrb	r2, [r2]
 4459 08fc D2B2     		uxtb	r2, r2
 4460 08fe 1146     		mov	r1, r2
 4461 0900 97F83720 		ldrb	r2, [r7, #55]	@ zero_extendqisi2
 4462 0904 8A1A     		subs	r2, r1, r2
 4463 0906 0132     		adds	r2, r2, #1
 4464 0908 9749     		ldr	r1, .L503+4
 4465 090a 8A5C     		ldrb	r2, [r1, r2]
 4466 090c D2B2     		uxtb	r2, r2
 4467 090e 3032     		adds	r2, r2, #48
 4468 0910 D1B2     		uxtb	r1, r2
 4469 0912 964A     		ldr	r2, .L503+8
 4470 0914 1344     		add	r3, r3, r2
 4471 0916 0A46     		mov	r2, r1
 4472 0918 83F85420 		strb	r2, [r3, #84]
 978:.\main.c      **** 								rventa1.password[x]=Buffer_LCD1[(count_teclas1-x)+1]+48;
 4473              		.loc 1 978 0 discriminator 3
 4474 091c 97F83730 		ldrb	r3, [r7, #55]	@ zero_extendqisi2
 4475 0920 013B     		subs	r3, r3, #1
 4476 0922 87F83730 		strb	r3, [r7, #55]
 4477              	.L229:
 978:.\main.c      **** 								rventa1.password[x]=Buffer_LCD1[(count_teclas1-x)+1]+48;
 4478              		.loc 1 978 0 is_stmt 0 discriminator 1
 4479 0926 97F83730 		ldrb	r3, [r7, #55]	@ zero_extendqisi2
 4480 092a 002B     		cmp	r3, #0
 4481 092c E2D1     		bne	.L230
 980:.\main.c      **** 							}
 981:.\main.c      ****                         	flujo_LCD1=102;	
 4482              		.loc 1 981 0 is_stmt 1
 4483 092e 904B     		ldr	r3, .L503+12
 4484 0930 6622     		movs	r2, #102
 4485 0932 1A70     		strb	r2, [r3]
 982:.\main.c      ****                         	set_imagen(1,57);
 4486              		.loc 1 982 0
 4487 0934 0120     		movs	r0, #1
 4488 0936 3921     		movs	r1, #57
 4489 0938 FFF7FEFF 		bl	set_imagen
 983:.\main.c      **** 							lado1.estado=16;
 4490              		.loc 1 983 0
 4491 093c 924B     		ldr	r3, .L503+36
 4492 093e 1022     		movs	r2, #16
 4493 0940 5A70     		strb	r2, [r3, #1]
 984:.\main.c      **** 						break;	
 4494              		.loc 1 984 0
 4495 0942 0FE2     		b	.L184
 4496              	.L206:
 985:.\main.c      ****                         case 5:
 986:.\main.c      **** 							for(x=count_teclas1;x>=1;x--){
 4497              		.loc 1 986 0
 4498 0944 874B     		ldr	r3, .L503
 4499 0946 1B78     		ldrb	r3, [r3]
ARM GAS  C:\Users\RECEPC~1\AppData\Local\Temp\cckIP3O9.s 			page 100


 4500 0948 87F83730 		strb	r3, [r7, #55]
 4501 094c 18E0     		b	.L231
 4502              	.L232:
 987:.\main.c      **** 								rventa1.password_local[x]=Buffer_LCD1[(count_teclas1-x)+1]+48;
 4503              		.loc 1 987 0 discriminator 3
 4504 094e 97F83730 		ldrb	r3, [r7, #55]	@ zero_extendqisi2
 4505 0952 844A     		ldr	r2, .L503
 4506 0954 1278     		ldrb	r2, [r2]
 4507 0956 D2B2     		uxtb	r2, r2
 4508 0958 1146     		mov	r1, r2
 4509 095a 97F83720 		ldrb	r2, [r7, #55]	@ zero_extendqisi2
 4510 095e 8A1A     		subs	r2, r1, r2
 4511 0960 0132     		adds	r2, r2, #1
 4512 0962 8149     		ldr	r1, .L503+4
 4513 0964 8A5C     		ldrb	r2, [r1, r2]
 4514 0966 D2B2     		uxtb	r2, r2
 4515 0968 3032     		adds	r2, r2, #48
 4516 096a D1B2     		uxtb	r1, r2
 4517 096c 7F4A     		ldr	r2, .L503+8
 4518 096e 1344     		add	r3, r3, r2
 4519 0970 0A46     		mov	r2, r1
 4520 0972 83F86120 		strb	r2, [r3, #97]
 986:.\main.c      **** 								rventa1.password_local[x]=Buffer_LCD1[(count_teclas1-x)+1]+48;
 4521              		.loc 1 986 0 discriminator 3
 4522 0976 97F83730 		ldrb	r3, [r7, #55]	@ zero_extendqisi2
 4523 097a 013B     		subs	r3, r3, #1
 4524 097c 87F83730 		strb	r3, [r7, #55]
 4525              	.L231:
 986:.\main.c      **** 								rventa1.password_local[x]=Buffer_LCD1[(count_teclas1-x)+1]+48;
 4526              		.loc 1 986 0 is_stmt 0 discriminator 1
 4527 0980 97F83730 		ldrb	r3, [r7, #55]	@ zero_extendqisi2
 4528 0984 002B     		cmp	r3, #0
 4529 0986 E2D1     		bne	.L232
 988:.\main.c      **** 							}
 989:.\main.c      ****                             if(clave_local[0]==rventa1.password_local[4] && clave_local[1]==rventa1
 4530              		.loc 1 989 0 is_stmt 1
 4531 0988 804B     		ldr	r3, .L503+40
 4532 098a 1A78     		ldrb	r2, [r3]	@ zero_extendqisi2
 4533 098c 774B     		ldr	r3, .L503+8
 4534 098e 93F86530 		ldrb	r3, [r3, #101]	@ zero_extendqisi2
 4535 0992 9A42     		cmp	r2, r3
 4536 0994 23D1     		bne	.L233
 4537              		.loc 1 989 0 is_stmt 0 discriminator 1
 4538 0996 7D4B     		ldr	r3, .L503+40
 4539 0998 5A78     		ldrb	r2, [r3, #1]	@ zero_extendqisi2
 4540 099a 744B     		ldr	r3, .L503+8
 4541 099c 93F86430 		ldrb	r3, [r3, #100]	@ zero_extendqisi2
 4542 09a0 9A42     		cmp	r2, r3
 4543 09a2 1CD1     		bne	.L233
 4544              		.loc 1 989 0 discriminator 2
 4545 09a4 794B     		ldr	r3, .L503+40
 4546 09a6 9A78     		ldrb	r2, [r3, #2]	@ zero_extendqisi2
 4547 09a8 704B     		ldr	r3, .L503+8
 4548 09aa 93F86330 		ldrb	r3, [r3, #99]	@ zero_extendqisi2
 4549 09ae 9A42     		cmp	r2, r3
 4550 09b0 15D1     		bne	.L233
 4551              		.loc 1 989 0 discriminator 3
ARM GAS  C:\Users\RECEPC~1\AppData\Local\Temp\cckIP3O9.s 			page 101


 4552 09b2 764B     		ldr	r3, .L503+40
 4553 09b4 DA78     		ldrb	r2, [r3, #3]	@ zero_extendqisi2
 4554 09b6 6D4B     		ldr	r3, .L503+8
 4555 09b8 93F86230 		ldrb	r3, [r3, #98]	@ zero_extendqisi2
 4556 09bc 9A42     		cmp	r2, r3
 4557 09be 0ED1     		bne	.L233
 990:.\main.c      ****                         	    flujo_LCD1=16;	
 4558              		.loc 1 990 0 is_stmt 1
 4559 09c0 6B4B     		ldr	r3, .L503+12
 4560 09c2 1022     		movs	r2, #16
 4561 09c4 1A70     		strb	r2, [r3]
 991:.\main.c      ****                         	    set_imagen(1,38); 
 4562              		.loc 1 991 0
 4563 09c6 0120     		movs	r0, #1
 4564 09c8 2621     		movs	r1, #38
 4565 09ca FFF7FEFF 		bl	set_imagen
 992:.\main.c      ****                                 CyDelay(200);
 4566              		.loc 1 992 0
 4567 09ce C820     		movs	r0, #200
 4568 09d0 FFF7FEFF 		bl	CyDelay
 993:.\main.c      **** 							    set_imagen(1,95);                                
 4569              		.loc 1 993 0
 4570 09d4 0120     		movs	r0, #1
 4571 09d6 5F21     		movs	r1, #95
 4572 09d8 FFF7FEFF 		bl	set_imagen
 994:.\main.c      ****                             }else{
 995:.\main.c      ****                         	    flujo_LCD1=0;	
 996:.\main.c      ****                         	    set_imagen(1,39); 
 997:.\main.c      **** 							    lado1.estado=libre;                                 
 998:.\main.c      ****                                 CyDelay(200);
 999:.\main.c      **** 							    set_imagen(1,0);                                 
1000:.\main.c      ****                             }
1001:.\main.c      ****                         break; 
 4573              		.loc 1 1001 0
 4574 09dc C2E1     		b	.L184
 4575              	.L233:
 995:.\main.c      ****                         	    set_imagen(1,39); 
 4576              		.loc 1 995 0
 4577 09de 644B     		ldr	r3, .L503+12
 4578 09e0 0022     		movs	r2, #0
 4579 09e2 1A70     		strb	r2, [r3]
 996:.\main.c      **** 							    lado1.estado=libre;                                 
 4580              		.loc 1 996 0
 4581 09e4 0120     		movs	r0, #1
 4582 09e6 2721     		movs	r1, #39
 4583 09e8 FFF7FEFF 		bl	set_imagen
 997:.\main.c      ****                                 CyDelay(200);
 4584              		.loc 1 997 0
 4585 09ec 664B     		ldr	r3, .L503+36
 4586 09ee 0122     		movs	r2, #1
 4587 09f0 5A70     		strb	r2, [r3, #1]
 998:.\main.c      **** 							    set_imagen(1,0);                                 
 4588              		.loc 1 998 0
 4589 09f2 C820     		movs	r0, #200
 4590 09f4 FFF7FEFF 		bl	CyDelay
 999:.\main.c      ****                             }
 4591              		.loc 1 999 0
ARM GAS  C:\Users\RECEPC~1\AppData\Local\Temp\cckIP3O9.s 			page 102


 4592 09f8 0120     		movs	r0, #1
 4593 09fa 0021     		movs	r1, #0
 4594 09fc FFF7FEFF 		bl	set_imagen
 4595              		.loc 1 1001 0
 4596 0a00 B0E1     		b	.L184
 4597              	.L207:
1002:.\main.c      ****                         case 6:                        
1003:.\main.c      **** 						    EEPROM_WriteByte(Buffer_LCD1[count_teclas1],30);
 4598              		.loc 1 1003 0
 4599 0a02 584B     		ldr	r3, .L503
 4600 0a04 1B78     		ldrb	r3, [r3]
 4601 0a06 DBB2     		uxtb	r3, r3
 4602 0a08 1A46     		mov	r2, r3
 4603 0a0a 574B     		ldr	r3, .L503+4
 4604 0a0c 9B5C     		ldrb	r3, [r3, r2]
 4605 0a0e DBB2     		uxtb	r3, r3
 4606 0a10 1846     		mov	r0, r3
 4607 0a12 1E21     		movs	r1, #30
 4608 0a14 FFF7FEFF 		bl	EEPROM_WriteByte
1004:.\main.c      ****                             flujo_LCD1=16;
 4609              		.loc 1 1004 0
 4610 0a18 554B     		ldr	r3, .L503+12
 4611 0a1a 1022     		movs	r2, #16
 4612 0a1c 1A70     		strb	r2, [r3]
1005:.\main.c      ****                             set_imagen(1,95);                               
 4613              		.loc 1 1005 0
 4614 0a1e 0120     		movs	r0, #1
 4615 0a20 5F21     		movs	r1, #95
 4616 0a22 FFF7FEFF 		bl	set_imagen
1006:.\main.c      ****                             CyDelay(200);                                                   
 4617              		.loc 1 1006 0
 4618 0a26 C820     		movs	r0, #200
 4619 0a28 FFF7FEFF 		bl	CyDelay
1007:.\main.c      ****                         break;   
 4620              		.loc 1 1007 0
 4621 0a2c 9AE1     		b	.L184
 4622              	.L208:
1008:.\main.c      ****                         case 7:
1009:.\main.c      ****                             flujo_LCD1=18;
 4623              		.loc 1 1009 0
 4624 0a2e 504B     		ldr	r3, .L503+12
 4625 0a30 1222     		movs	r2, #18
 4626 0a32 1A70     		strb	r2, [r3]
1010:.\main.c      ****                             set_imagen(1,115);
 4627              		.loc 1 1010 0
 4628 0a34 0120     		movs	r0, #1
 4629 0a36 7321     		movs	r1, #115
 4630 0a38 FFF7FEFF 		bl	set_imagen
1011:.\main.c      ****                             switch(Producto){
 4631              		.loc 1 1011 0
 4632 0a3c 544B     		ldr	r3, .L503+44
 4633 0a3e 1B78     		ldrb	r3, [r3]	@ zero_extendqisi2
 4634 0a40 013B     		subs	r3, r3, #1
 4635 0a42 032B     		cmp	r3, #3
 4636 0a44 00F2B880 		bhi	.L235
 4637 0a48 01A2     		adr	r2, .L237
 4638 0a4a 52F823F0 		ldr	pc, [r2, r3, lsl #2]
ARM GAS  C:\Users\RECEPC~1\AppData\Local\Temp\cckIP3O9.s 			page 103


 4639 0a4e 00BF     		.p2align 2
 4640              	.L237:
 4641 0a50 610A0000 		.word	.L236+1
 4642 0a54 A70A0000 		.word	.L238+1
 4643 0a58 ED0A0000 		.word	.L239+1
 4644 0a5c 330B0000 		.word	.L240+1
 4645              		.p2align 1
 4646              	.L236:
1012:.\main.c      ****                                 case 1:
1013:.\main.c      ****                                     Productos[0]=Buffer_LCD1[1]+48;
 4647              		.loc 1 1013 0
 4648 0a60 414B     		ldr	r3, .L503+4
 4649 0a62 5B78     		ldrb	r3, [r3, #1]
 4650 0a64 DBB2     		uxtb	r3, r3
 4651 0a66 3033     		adds	r3, r3, #48
 4652 0a68 DAB2     		uxtb	r2, r3
 4653 0a6a 4A4B     		ldr	r3, .L503+48
 4654 0a6c 1A70     		strb	r2, [r3]
1014:.\main.c      ****                                     switch(Productos[0]){
 4655              		.loc 1 1014 0
 4656 0a6e 494B     		ldr	r3, .L503+48
 4657 0a70 1B78     		ldrb	r3, [r3]	@ zero_extendqisi2
 4658 0a72 322B     		cmp	r3, #50
 4659 0a74 08D0     		beq	.L242
 4660 0a76 332B     		cmp	r3, #51
 4661 0a78 0BD0     		beq	.L243
 4662 0a7a 312B     		cmp	r3, #49
 4663 0a7c 0ED1     		bne	.L492
1015:.\main.c      ****                                         case '1':
1016:.\main.c      ****                                         lado1.grado[0][0]=1;                                       
 4664              		.loc 1 1016 0
 4665 0a7e 424B     		ldr	r3, .L503+36
 4666 0a80 0122     		movs	r2, #1
 4667 0a82 83F85920 		strb	r2, [r3, #89]
1017:.\main.c      ****                                         break;
 4668              		.loc 1 1017 0
 4669 0a86 0DE0     		b	.L245
 4670              	.L242:
1018:.\main.c      ****                                         case '2':
1019:.\main.c      ****                                         lado1.grado[1][0]=1;                                       
 4671              		.loc 1 1019 0
 4672 0a88 3F4B     		ldr	r3, .L503+36
 4673 0a8a 0122     		movs	r2, #1
 4674 0a8c 83F85A20 		strb	r2, [r3, #90]
1020:.\main.c      ****                                         break;
 4675              		.loc 1 1020 0
 4676 0a90 08E0     		b	.L245
 4677              	.L243:
1021:.\main.c      ****                                         case '3':
1022:.\main.c      ****                                         lado1.grado[2][0]=1;                                       
 4678              		.loc 1 1022 0
 4679 0a92 3D4B     		ldr	r3, .L503+36
 4680 0a94 0122     		movs	r2, #1
 4681 0a96 83F85B20 		strb	r2, [r3, #91]
1023:.\main.c      ****                                         break;                    
 4682              		.loc 1 1023 0
 4683 0a9a 03E0     		b	.L245
ARM GAS  C:\Users\RECEPC~1\AppData\Local\Temp\cckIP3O9.s 			page 104


 4684              	.L492:
1024:.\main.c      ****                                         default:
1025:.\main.c      ****                                         diesel=0;
 4685              		.loc 1 1025 0
 4686 0a9c 3E4B     		ldr	r3, .L503+52
 4687 0a9e 0022     		movs	r2, #0
 4688 0aa0 1A70     		strb	r2, [r3]
1026:.\main.c      ****                                         break;
 4689              		.loc 1 1026 0
 4690 0aa2 00BF     		nop
 4691              	.L245:
1027:.\main.c      ****                                     }                                   
1028:.\main.c      ****                                 break;
 4692              		.loc 1 1028 0
 4693 0aa4 88E0     		b	.L235
 4694              	.L238:
1029:.\main.c      ****                                 case 2:
1030:.\main.c      ****                                     Productos[1]=Buffer_LCD1[1]+48;
 4695              		.loc 1 1030 0
 4696 0aa6 304B     		ldr	r3, .L503+4
 4697 0aa8 5B78     		ldrb	r3, [r3, #1]
 4698 0aaa DBB2     		uxtb	r3, r3
 4699 0aac 3033     		adds	r3, r3, #48
 4700 0aae DAB2     		uxtb	r2, r3
 4701 0ab0 384B     		ldr	r3, .L503+48
 4702 0ab2 5A70     		strb	r2, [r3, #1]
1031:.\main.c      ****                                     switch(Productos[1]){
 4703              		.loc 1 1031 0
 4704 0ab4 374B     		ldr	r3, .L503+48
 4705 0ab6 5B78     		ldrb	r3, [r3, #1]	@ zero_extendqisi2
 4706 0ab8 322B     		cmp	r3, #50
 4707 0aba 08D0     		beq	.L247
 4708 0abc 332B     		cmp	r3, #51
 4709 0abe 0BD0     		beq	.L248
 4710 0ac0 312B     		cmp	r3, #49
 4711 0ac2 0ED1     		bne	.L493
1032:.\main.c      ****                                         case '1':
1033:.\main.c      ****                                         lado1.grado[0][0]=2;                                       
 4712              		.loc 1 1033 0
 4713 0ac4 304B     		ldr	r3, .L503+36
 4714 0ac6 0222     		movs	r2, #2
 4715 0ac8 83F85920 		strb	r2, [r3, #89]
1034:.\main.c      ****                                         break;
 4716              		.loc 1 1034 0
 4717 0acc 0DE0     		b	.L250
 4718              	.L247:
1035:.\main.c      ****                                         case '2':
1036:.\main.c      ****                                         lado1.grado[1][0]=2;                                       
 4719              		.loc 1 1036 0
 4720 0ace 2E4B     		ldr	r3, .L503+36
 4721 0ad0 0222     		movs	r2, #2
 4722 0ad2 83F85A20 		strb	r2, [r3, #90]
1037:.\main.c      ****                                         break;
 4723              		.loc 1 1037 0
 4724 0ad6 08E0     		b	.L250
 4725              	.L248:
1038:.\main.c      ****                                         case '3':
ARM GAS  C:\Users\RECEPC~1\AppData\Local\Temp\cckIP3O9.s 			page 105


1039:.\main.c      ****                                         lado1.grado[2][0]=2;                                       
 4726              		.loc 1 1039 0
 4727 0ad8 2B4B     		ldr	r3, .L503+36
 4728 0ada 0222     		movs	r2, #2
 4729 0adc 83F85B20 		strb	r2, [r3, #91]
1040:.\main.c      ****                                         break; 
 4730              		.loc 1 1040 0
 4731 0ae0 03E0     		b	.L250
 4732              	.L493:
1041:.\main.c      ****                                         default:
1042:.\main.c      ****                                         corriente=0;
 4733              		.loc 1 1042 0
 4734 0ae2 2E4B     		ldr	r3, .L503+56
 4735 0ae4 0022     		movs	r2, #0
 4736 0ae6 1A70     		strb	r2, [r3]
1043:.\main.c      ****                                         break;                                        
 4737              		.loc 1 1043 0
 4738 0ae8 00BF     		nop
 4739              	.L250:
1044:.\main.c      ****                                     }                                      
1045:.\main.c      ****                                 break;
 4740              		.loc 1 1045 0
 4741 0aea 65E0     		b	.L235
 4742              	.L239:
1046:.\main.c      ****                                 case 3:
1047:.\main.c      ****                                     Productos[2]=Buffer_LCD1[1]+48;
 4743              		.loc 1 1047 0
 4744 0aec 1E4B     		ldr	r3, .L503+4
 4745 0aee 5B78     		ldrb	r3, [r3, #1]
 4746 0af0 DBB2     		uxtb	r3, r3
 4747 0af2 3033     		adds	r3, r3, #48
 4748 0af4 DAB2     		uxtb	r2, r3
 4749 0af6 274B     		ldr	r3, .L503+48
 4750 0af8 9A70     		strb	r2, [r3, #2]
