ARM GAS  C:\Users\IN-002~1\AppData\Local\Temp\cchaWHVS.s 			page 1


   1              		.syntax unified
   2              		.cpu cortex-m3
   3              		.fpu softvfp
   4              		.eabi_attribute 20, 1
   5              		.eabi_attribute 21, 1
   6              		.eabi_attribute 23, 3
   7              		.eabi_attribute 24, 1
   8              		.eabi_attribute 25, 1
   9              		.eabi_attribute 26, 1
  10              		.eabi_attribute 30, 6
  11              		.eabi_attribute 34, 1
  12              		.eabi_attribute 18, 4
  13              		.thumb
  14              		.file	"Protocolo.c"
  15              		.text
  16              	.Ltext0:
  17              		.cfi_sections	.debug_frame
  18              		.comm	count_teclas1,1,1
  19              		.comm	comas1,1,1
  20              		.comm	comas2,1,1
  21              		.comm	id_coma1,1,1
  22              		.comm	id_teclado1,1,1
  23              		.comm	count_teclas2,1,1
  24              		.comm	id_coma2,1,1
  25              		.comm	id_teclado2,1,1
  26              		.comm	posx1,2,2
  27              		.comm	posy1,2,2
  28              		.comm	sizeletra1,2,2
  29              		.comm	posx2,2,2
  30              		.comm	posy2,2,2
  31              		.comm	sizeletra2,2,2
  32              		.comm	teclas1,1,1
  33              		.comm	teclas2,1,1
  34              		.comm	flujo_LCD1,1,1
  35              		.comm	flujo_LCD2,1,1
  36              		.comm	Buffer_LCD1,30,4
  37              		.comm	Buffer_LCD2,30,4
  38              		.comm	count_protector,1,1
  39              		.comm	count_protector2,1,1
  40              		.comm	count_esperaBBB,1,1
  41              		.comm	count_esperaBBB2,1,1
  42              		.comm	password_lcd,9,4
  43              		.comm	imagen_grado,2,2
  44              		.comm	prox_caso,8,4
  45              		.comm	bloqueo_LCD,3,4
  46              		.comm	id_estacion,5,4
  47              		.comm	id_venta,8,4
  48              		.comm	trama_totales,200,4
  49              		.comm	ppux10,1,1
  50              		.comm	nombre_pro1,17,4
  51              		.comm	nombre_pro2,17,4
  52              		.comm	nombre_pro3,17,4
  53              		.comm	version,4,4
  54              		.comm	lado1,93,4
  55              		.comm	lado2,93,4
  56              		.comm	nombre,33,4
  57              		.comm	nit,15,4
ARM GAS  C:\Users\IN-002~1\AppData\Local\Temp\cchaWHVS.s 			page 2


  58              		.comm	telefono,20,4
  59              		.comm	direccion,33,4
  60              		.comm	lema1,32,4
  61              		.comm	lema2,32,4
  62              		.comm	id_logo,2,4
  63              		.comm	km,2,4
  64              		.comm	fecha,3,4
  65              		.comm	hora,2,4
  66              		.comm	rventa1,102,4
  67              		.comm	rventa2,102,4
  68              		.comm	ok_RF,1,1
  69              		.comm	ok_datosRF,1,1
  70              		.comm	rf_mod,200,4
  71              		.comm	buffer_i2c,64,4
  72              		.comm	crc_total,1,1
  73              		.comm	print1,2,4
  74              		.comm	print2,2,4
  75              		.comm	rx_timeout,1,1
  76              		.global	msn_tc
  77              		.data
  78              		.align	2
  79              		.type	msn_tc, %object
  80              		.size	msn_tc, 17
  81              	msn_tc:
  82 0000 544F5441 		.ascii	"TOTALES CORRIENTE"
  82      4C455320 
  82      434F5252 
  82      49454E54 
  82      45
  83              		.global	msn_te
  84 0011 000000   		.align	2
  85              		.type	msn_te, %object
  86              		.size	msn_te, 13
  87              	msn_te:
  88 0014 544F5441 		.ascii	"TOTALES EXTRA"
  88      4C455320 
  88      45585452 
  88      41
  89              		.global	msn_td
  90 0021 000000   		.align	2
  91              		.type	msn_td, %object
  92              		.size	msn_td, 14
  93              	msn_td:
  94 0024 544F5441 		.ascii	"TOTALES DIESEL"
  94      4C455320 
  94      44494553 
  94      454C
  95              		.global	msn_lecact
  96 0032 0000     		.align	2
  97              		.type	msn_lecact, %object
  98              		.size	msn_lecact, 15
  99              	msn_lecact:
 100 0034 4C656374 		.ascii	"Lectura Actual:"
 100      75726120 
 100      41637475 
 100      616C3A
 101              		.global	msn_lecaan
ARM GAS  C:\Users\IN-002~1\AppData\Local\Temp\cchaWHVS.s 			page 3


 102 0043 00       		.align	2
 103              		.type	msn_lecaan, %object
 104              		.size	msn_lecaan, 17
 105              	msn_lecaan:
 106 0044 4C656374 		.ascii	"Lectura Anterior:"
 106      75726120 
 106      416E7465 
 106      72696F72 
 106      3A
 107              		.global	msn_tventas
 108 0055 000000   		.align	2
 109              		.type	msn_tventas, %object
 110              		.size	msn_tventas, 18
 111              	msn_tventas:
 112 0058 546F7461 		.ascii	"Total de Ventas: $"
 112      6C206465 
 112      2056656E 
 112      7461733A 
 112      2024
 113 006a 0000     		.section	.text.Rx_Surtidor,"ax",%progbits
 114              		.align	2
 115              		.global	Rx_Surtidor
 116              		.thumb
 117              		.thumb_func
 118              		.type	Rx_Surtidor, %function
 119              	Rx_Surtidor:
 120              	.LFB63:
 121              		.file 1 ".\\Protocolo.c"
   1:.\Protocolo.c **** /**
   2:.\Protocolo.c **** * @file Protocolo.c
   3:.\Protocolo.c **** * @Author Insepet LTDA
   4:.\Protocolo.c **** * @date 28/2/2016
   5:.\Protocolo.c **** * @brief Archivo para el manejo del dispensador, comunicación del MUX-Dispensador
   6:.\Protocolo.c **** */
   7:.\Protocolo.c **** 
   8:.\Protocolo.c **** 
   9:.\Protocolo.c **** /*
  10:.\Protocolo.c **** ***************************************************************************************************
  11:.\Protocolo.c **** *                                             INCLUDE FILES
  12:.\Protocolo.c **** ***************************************************************************************************
  13:.\Protocolo.c **** */
  14:.\Protocolo.c **** #include <device.h>
  15:.\Protocolo.c **** #include "VariablesG.h"
  16:.\Protocolo.c **** #include "i2c.h"
  17:.\Protocolo.c **** #include "Print.h"
  18:.\Protocolo.c **** 
  19:.\Protocolo.c **** /*
  20:.\Protocolo.c **** ***************************************************************************************************
  21:.\Protocolo.c **** *                                            	MENSAJES
  22:.\Protocolo.c **** ***************************************************************************************************
  23:.\Protocolo.c **** */
  24:.\Protocolo.c **** uint8 rx_timeout;								//0 inicia espera  1 se cumplio el tiempo
  25:.\Protocolo.c **** uint8 msn_tc[17]="TOTALES CORRIENTE";
  26:.\Protocolo.c **** uint8 msn_te[13]="TOTALES EXTRA";
  27:.\Protocolo.c **** uint8 msn_td[14]="TOTALES DIESEL";
  28:.\Protocolo.c **** uint8 msn_lecact[15]="Lectura Actual:";
  29:.\Protocolo.c **** uint8 msn_lecaan[17]="Lectura Anterior:";
ARM GAS  C:\Users\IN-002~1\AppData\Local\Temp\cchaWHVS.s 			page 4


  30:.\Protocolo.c **** uint8 msn_tventas[18]="Total de Ventas: $";
  31:.\Protocolo.c **** 
  32:.\Protocolo.c **** /**
  33:.\Protocolo.c **** * Interrupción de tiempo para la espera de datos del surtidor
  34:.\Protocolo.c **** */
  35:.\Protocolo.c **** CY_ISR(Rx_Surtidor){
 122              		.loc 1 35 0
 123              		.cfi_startproc
 124              		@ args = 0, pretend = 0, frame = 0
 125              		@ frame_needed = 1, uses_anonymous_args = 0
 126 0000 80B5     		push	{r7, lr}
 127              		.cfi_def_cfa_offset 8
 128              		.cfi_offset 7, -8
 129              		.cfi_offset 14, -4
 130 0002 00AF     		add	r7, sp, #0
 131              		.cfi_def_cfa_register 7
  36:.\Protocolo.c ****     Timer_RxSurtidor_ReadStatusRegister();
 132              		.loc 1 36 0
 133 0004 FFF7FEFF 		bl	Timer_RxSurtidor_ReadStatusRegister
  37:.\Protocolo.c **** 	rx_timeout=1;	
 134              		.loc 1 37 0
 135 0008 014B     		ldr	r3, .L2
 136 000a 0122     		movs	r2, #1
 137 000c 1A70     		strb	r2, [r3]
  38:.\Protocolo.c **** }
 138              		.loc 1 38 0
 139 000e 80BD     		pop	{r7, pc}
 140              	.L3:
 141              		.align	2
 142              	.L2:
 143 0010 00000000 		.word	rx_timeout
 144              		.cfi_endproc
 145              	.LFE63:
 146              		.size	Rx_Surtidor, .-Rx_Surtidor
 147              		.section	.text.get_estado,"ax",%progbits
 148              		.align	2
 149              		.global	get_estado
 150              		.thumb
 151              		.thumb_func
 152              		.type	get_estado, %function
 153              	get_estado:
 154              	.LFB64:
  39:.\Protocolo.c **** 
  40:.\Protocolo.c **** 
  41:.\Protocolo.c **** /**
  42:.\Protocolo.c **** * get_estado
  43:.\Protocolo.c **** * @brief obtiene el estado de la posicion a la que se pregunte
  44:.\Protocolo.c **** * @param dir direccion de la posicion
  45:.\Protocolo.c **** * @return estado si hay respuesta del dispensador 0 si no
  46:.\Protocolo.c **** *
  47:.\Protocolo.c **** */
  48:.\Protocolo.c **** uint8 get_estado(uint8 dir){
 155              		.loc 1 48 0
 156              		.cfi_startproc
 157              		@ args = 0, pretend = 0, frame = 16
 158              		@ frame_needed = 1, uses_anonymous_args = 0
 159 0000 80B5     		push	{r7, lr}
ARM GAS  C:\Users\IN-002~1\AppData\Local\Temp\cchaWHVS.s 			page 5


 160              		.cfi_def_cfa_offset 8
 161              		.cfi_offset 7, -8
 162              		.cfi_offset 14, -4
 163 0002 84B0     		sub	sp, sp, #16
 164              		.cfi_def_cfa_offset 24
 165 0004 00AF     		add	r7, sp, #0
 166              		.cfi_def_cfa_register 7
 167 0006 0346     		mov	r3, r0
 168 0008 FB71     		strb	r3, [r7, #7]
  49:.\Protocolo.c ****     uint8 estado;
  50:.\Protocolo.c ****     Surtidor_ClearRxBuffer();	
 169              		.loc 1 50 0
 170 000a FFF7FEFF 		bl	Surtidor_ClearRxBuffer
  51:.\Protocolo.c ****     Surtidor_PutChar(dir);
 171              		.loc 1 51 0
 172 000e FB79     		ldrb	r3, [r7, #7]	@ zero_extendqisi2
 173 0010 1846     		mov	r0, r3
 174 0012 FFF7FEFF 		bl	Surtidor_PutChar
  52:.\Protocolo.c **** 	isr_1_StartEx(Rx_Surtidor);
 175              		.loc 1 52 0
 176 0016 1E48     		ldr	r0, .L9
 177 0018 FFF7FEFF 		bl	isr_1_StartEx
  53:.\Protocolo.c ****     Timer_RxSurtidor_Start();
 178              		.loc 1 53 0
 179 001c FFF7FEFF 		bl	Timer_RxSurtidor_Start
  54:.\Protocolo.c **** 	rx_timeout=0;
 180              		.loc 1 54 0
 181 0020 1C4B     		ldr	r3, .L9+4
 182 0022 0022     		movs	r2, #0
 183 0024 1A70     		strb	r2, [r3]
  55:.\Protocolo.c ****     CyDelay(10);
 184              		.loc 1 55 0
 185 0026 0A20     		movs	r0, #10
 186 0028 FFF7FEFF 		bl	CyDelay
  56:.\Protocolo.c **** 	while(Surtidor_GetRxBufferSize()==0){
 187              		.loc 1 56 0
 188 002c 0BE0     		b	.L5
 189              	.L7:
  57:.\Protocolo.c **** 		if(rx_timeout==1){
 190              		.loc 1 57 0
 191 002e 194B     		ldr	r3, .L9+4
 192 0030 1B78     		ldrb	r3, [r3]	@ zero_extendqisi2
 193 0032 012B     		cmp	r3, #1
 194 0034 07D1     		bne	.L5
  58:.\Protocolo.c **** 			isr_1_Stop();
 195              		.loc 1 58 0
 196 0036 FFF7FEFF 		bl	isr_1_Stop
  59:.\Protocolo.c **** 			Timer_RxSurtidor_Stop();
 197              		.loc 1 59 0
 198 003a FFF7FEFF 		bl	Timer_RxSurtidor_Stop
  60:.\Protocolo.c ****     		Surtidor_ClearRxBuffer();			
 199              		.loc 1 60 0
 200 003e FFF7FEFF 		bl	Surtidor_ClearRxBuffer
  61:.\Protocolo.c **** 			return 0;
 201              		.loc 1 61 0
 202 0042 0023     		movs	r3, #0
 203 0044 20E0     		b	.L6
ARM GAS  C:\Users\IN-002~1\AppData\Local\Temp\cchaWHVS.s 			page 6


 204              	.L5:
  56:.\Protocolo.c **** 		if(rx_timeout==1){
 205              		.loc 1 56 0
 206 0046 FFF7FEFF 		bl	Surtidor_GetRxBufferSize
 207 004a 0346     		mov	r3, r0
 208 004c 002B     		cmp	r3, #0
 209 004e EED0     		beq	.L7
  62:.\Protocolo.c **** 		}
  63:.\Protocolo.c **** 	}
  64:.\Protocolo.c ****     estado=Surtidor_ReadRxData();
 210              		.loc 1 64 0
 211 0050 FFF7FEFF 		bl	Surtidor_ReadRxData
 212 0054 0346     		mov	r3, r0
 213 0056 FB73     		strb	r3, [r7, #15]
  65:.\Protocolo.c **** 	if((estado&0x0F)==dir){
 214              		.loc 1 65 0
 215 0058 FB7B     		ldrb	r3, [r7, #15]	@ zero_extendqisi2
 216 005a 03F00F02 		and	r2, r3, #15
 217 005e FB79     		ldrb	r3, [r7, #7]	@ zero_extendqisi2
 218 0060 9A42     		cmp	r2, r3
 219 0062 0AD1     		bne	.L8
  66:.\Protocolo.c **** 		estado=(estado&0xF0)>>4;
 220              		.loc 1 66 0
 221 0064 FB7B     		ldrb	r3, [r7, #15]	@ zero_extendqisi2
 222 0066 1B09     		lsrs	r3, r3, #4
 223 0068 FB73     		strb	r3, [r7, #15]
  67:.\Protocolo.c **** 	    Surtidor_ClearRxBuffer();
 224              		.loc 1 67 0
 225 006a FFF7FEFF 		bl	Surtidor_ClearRxBuffer
  68:.\Protocolo.c **** 		isr_1_Stop();
 226              		.loc 1 68 0
 227 006e FFF7FEFF 		bl	isr_1_Stop
  69:.\Protocolo.c **** 		Timer_RxSurtidor_Stop();	
 228              		.loc 1 69 0
 229 0072 FFF7FEFF 		bl	Timer_RxSurtidor_Stop
  70:.\Protocolo.c **** 	    return estado;
 230              		.loc 1 70 0
 231 0076 FB7B     		ldrb	r3, [r7, #15]	@ zero_extendqisi2
 232 0078 06E0     		b	.L6
 233              	.L8:
  71:.\Protocolo.c **** 	}
  72:.\Protocolo.c **** 	else{
  73:.\Protocolo.c **** 	    Surtidor_ClearRxBuffer();
 234              		.loc 1 73 0
 235 007a FFF7FEFF 		bl	Surtidor_ClearRxBuffer
  74:.\Protocolo.c **** 		isr_1_Stop();
 236              		.loc 1 74 0
 237 007e FFF7FEFF 		bl	isr_1_Stop
  75:.\Protocolo.c **** 		Timer_RxSurtidor_Stop();	
 238              		.loc 1 75 0
 239 0082 FFF7FEFF 		bl	Timer_RxSurtidor_Stop
  76:.\Protocolo.c **** 	    return 0;	
 240              		.loc 1 76 0
 241 0086 0023     		movs	r3, #0
 242              	.L6:
  77:.\Protocolo.c **** 	}
  78:.\Protocolo.c **** }
ARM GAS  C:\Users\IN-002~1\AppData\Local\Temp\cchaWHVS.s 			page 7


 243              		.loc 1 78 0
 244 0088 1846     		mov	r0, r3
 245 008a 1037     		adds	r7, r7, #16
 246              		.cfi_def_cfa_offset 8
 247 008c BD46     		mov	sp, r7
 248              		.cfi_def_cfa_register 13
 249              		@ sp needed
 250 008e 80BD     		pop	{r7, pc}
 251              	.L10:
 252              		.align	2
 253              	.L9:
 254 0090 00000000 		.word	Rx_Surtidor
 255 0094 00000000 		.word	rx_timeout
 256              		.cfi_endproc
 257              	.LFE64:
 258              		.size	get_estado, .-get_estado
 259              		.section	.text.ver_pos,"ax",%progbits
 260              		.align	2
 261              		.global	ver_pos
 262              		.thumb
 263              		.thumb_func
 264              		.type	ver_pos, %function
 265              	ver_pos:
 266              	.LFB65:
  79:.\Protocolo.c **** 
  80:.\Protocolo.c **** /**
  81:.\Protocolo.c **** * ver_pos
  82:.\Protocolo.c **** * @brief detecta las posiciones del equipo
  83:.\Protocolo.c **** * @return 1 si detecta las dos posiciones 0 si no
  84:.\Protocolo.c **** *
  85:.\Protocolo.c **** */
  86:.\Protocolo.c **** uint8 ver_pos (void){
 267              		.loc 1 86 0
 268              		.cfi_startproc
 269              		@ args = 0, pretend = 0, frame = 8
 270              		@ frame_needed = 1, uses_anonymous_args = 0
 271 0000 80B5     		push	{r7, lr}
 272              		.cfi_def_cfa_offset 8
 273              		.cfi_offset 7, -8
 274              		.cfi_offset 14, -4
 275 0002 82B0     		sub	sp, sp, #8
 276              		.cfi_def_cfa_offset 16
 277 0004 00AF     		add	r7, sp, #0
 278              		.cfi_def_cfa_register 7
  87:.\Protocolo.c **** uint8 x;
  88:.\Protocolo.c **** lado1.dir=0xff;
 279              		.loc 1 88 0
 280 0006 244B     		ldr	r3, .L19
 281 0008 FF22     		movs	r2, #255
 282 000a 1A70     		strb	r2, [r3]
  89:.\Protocolo.c **** lado2.dir=0xff;
 283              		.loc 1 89 0
 284 000c 234B     		ldr	r3, .L19+4
 285 000e FF22     		movs	r2, #255
 286 0010 1A70     		strb	r2, [r3]
  90:.\Protocolo.c **** 	CyDelay(5);
 287              		.loc 1 90 0
ARM GAS  C:\Users\IN-002~1\AppData\Local\Temp\cchaWHVS.s 			page 8


 288 0012 0520     		movs	r0, #5
 289 0014 FFF7FEFF 		bl	CyDelay
  91:.\Protocolo.c ****     if(get_estado(0)!=0){
 290              		.loc 1 91 0
 291 0018 0020     		movs	r0, #0
 292 001a FFF7FEFF 		bl	get_estado
 293 001e 0346     		mov	r3, r0
 294 0020 002B     		cmp	r3, #0
 295 0022 02D0     		beq	.L12
  92:.\Protocolo.c **** 		lado2.dir=0;
 296              		.loc 1 92 0
 297 0024 1D4B     		ldr	r3, .L19+4
 298 0026 0022     		movs	r2, #0
 299 0028 1A70     		strb	r2, [r3]
 300              	.L12:
  93:.\Protocolo.c **** 	}	
  94:.\Protocolo.c ****     for(x=1;x<=15;x++){
 301              		.loc 1 94 0
 302 002a 0123     		movs	r3, #1
 303 002c FB71     		strb	r3, [r7, #7]
 304 002e 1FE0     		b	.L13
 305              	.L17:
  95:.\Protocolo.c **** 		CyDelay(5);
 306              		.loc 1 95 0
 307 0030 0520     		movs	r0, #5
 308 0032 FFF7FEFF 		bl	CyDelay
  96:.\Protocolo.c ****         if(get_estado(x)!=0){
 309              		.loc 1 96 0
 310 0036 FB79     		ldrb	r3, [r7, #7]	@ zero_extendqisi2
 311 0038 1846     		mov	r0, r3
 312 003a FFF7FEFF 		bl	get_estado
 313 003e 0346     		mov	r3, r0
 314 0040 002B     		cmp	r3, #0
 315 0042 12D0     		beq	.L14
  97:.\Protocolo.c **** 			if(lado1.dir==0xFF){
 316              		.loc 1 97 0
 317 0044 144B     		ldr	r3, .L19
 318 0046 1B78     		ldrb	r3, [r3]
 319 0048 DBB2     		uxtb	r3, r3
 320 004a FF2B     		cmp	r3, #255
 321 004c 03D1     		bne	.L15
  98:.\Protocolo.c **** 				lado1.dir=x;
 322              		.loc 1 98 0
 323 004e 124A     		ldr	r2, .L19
 324 0050 FB79     		ldrb	r3, [r7, #7]
 325 0052 1370     		strb	r3, [r2]
 326 0054 09E0     		b	.L14
 327              	.L15:
  99:.\Protocolo.c **** 			}
 100:.\Protocolo.c **** 			else if(lado2.dir==0xFF){
 328              		.loc 1 100 0
 329 0056 114B     		ldr	r3, .L19+4
 330 0058 1B78     		ldrb	r3, [r3]
 331 005a DBB2     		uxtb	r3, r3
 332 005c FF2B     		cmp	r3, #255
 333 005e 04D1     		bne	.L14
 101:.\Protocolo.c **** 				lado2.dir=x;
ARM GAS  C:\Users\IN-002~1\AppData\Local\Temp\cchaWHVS.s 			page 9


 334              		.loc 1 101 0
 335 0060 0E4A     		ldr	r2, .L19+4
 336 0062 FB79     		ldrb	r3, [r7, #7]
 337 0064 1370     		strb	r3, [r2]
 102:.\Protocolo.c **** 				return 1;
 338              		.loc 1 102 0
 339 0066 0123     		movs	r3, #1
 340 0068 12E0     		b	.L16
 341              	.L14:
  94:.\Protocolo.c **** 		CyDelay(5);
 342              		.loc 1 94 0 discriminator 2
 343 006a FB79     		ldrb	r3, [r7, #7]	@ zero_extendqisi2
 344 006c 0133     		adds	r3, r3, #1
 345 006e FB71     		strb	r3, [r7, #7]
 346              	.L13:
  94:.\Protocolo.c **** 		CyDelay(5);
 347              		.loc 1 94 0 is_stmt 0 discriminator 1
 348 0070 FB79     		ldrb	r3, [r7, #7]	@ zero_extendqisi2
 349 0072 0F2B     		cmp	r3, #15
 350 0074 DCD9     		bls	.L17
 103:.\Protocolo.c **** 			}
 104:.\Protocolo.c **** 		}
 105:.\Protocolo.c **** 	}
 106:.\Protocolo.c **** 	if((lado1.dir!=0xFF)&&(lado2.dir!=0xFF)){
 351              		.loc 1 106 0 is_stmt 1
 352 0076 084B     		ldr	r3, .L19
 353 0078 1B78     		ldrb	r3, [r3]
 354 007a DBB2     		uxtb	r3, r3
 355 007c FF2B     		cmp	r3, #255
 356 007e 06D0     		beq	.L18
 357              		.loc 1 106 0 is_stmt 0 discriminator 1
 358 0080 064B     		ldr	r3, .L19+4
 359 0082 1B78     		ldrb	r3, [r3]
 360 0084 DBB2     		uxtb	r3, r3
 361 0086 FF2B     		cmp	r3, #255
 362 0088 01D0     		beq	.L18
 107:.\Protocolo.c **** 		return 1;
 363              		.loc 1 107 0 is_stmt 1
 364 008a 0123     		movs	r3, #1
 365 008c 00E0     		b	.L16
 366              	.L18:
 108:.\Protocolo.c **** 	}
 109:.\Protocolo.c **** 	else{
 110:.\Protocolo.c **** 		return 0;
 367              		.loc 1 110 0
 368 008e 0023     		movs	r3, #0
 369              	.L16:
 111:.\Protocolo.c **** 	}
 112:.\Protocolo.c **** }
 370              		.loc 1 112 0
 371 0090 1846     		mov	r0, r3
 372 0092 0837     		adds	r7, r7, #8
 373              		.cfi_def_cfa_offset 8
 374 0094 BD46     		mov	sp, r7
 375              		.cfi_def_cfa_register 13
 376              		@ sp needed
 377 0096 80BD     		pop	{r7, pc}
ARM GAS  C:\Users\IN-002~1\AppData\Local\Temp\cchaWHVS.s 			page 10


 378              	.L20:
 379              		.align	2
 380              	.L19:
 381 0098 00000000 		.word	lado1
 382 009c 00000000 		.word	lado2
 383              		.cfi_endproc
 384              	.LFE65:
 385              		.size	ver_pos, .-ver_pos
 386              		.section	.rodata
 387              		.align	2
 388              	.LC0:
 389 0000 FF       		.byte	-1
 390 0001 E9       		.byte	-23
 391 0002 FE       		.byte	-2
 392 0003 E0       		.byte	-32
 393 0004 E1       		.byte	-31
 394 0005 E0       		.byte	-32
 395 0006 FB       		.byte	-5
 396 0007 EE       		.byte	-18
 397 0008 F0       		.byte	-16
 398 0009 000000   		.section	.text.estado_ex,"ax",%progbits
 399              		.align	2
 400              		.global	estado_ex
 401              		.thumb
 402              		.thumb_func
 403              		.type	estado_ex, %function
 404              	estado_ex:
 405              	.LFB66:
 113:.\Protocolo.c **** 
 114:.\Protocolo.c **** 
 115:.\Protocolo.c **** /**
 116:.\Protocolo.c **** * estado_ex
 117:.\Protocolo.c **** * @brief funcion para obtener el número de manija levantada
 118:.\Protocolo.c **** * @param val posición del surtidor, lado de la manija que se levantó
 119:.\Protocolo.c **** * @return 0 si error, # de manija
 120:.\Protocolo.c **** *
 121:.\Protocolo.c **** */
 122:.\Protocolo.c **** uint8 estado_ex(uint8 val){
 406              		.loc 1 122 0
 407              		.cfi_startproc
 408              		@ args = 0, pretend = 0, frame = 40
 409              		@ frame_needed = 1, uses_anonymous_args = 0
 410 0000 90B5     		push	{r4, r7, lr}
 411              		.cfi_def_cfa_offset 12
 412              		.cfi_offset 4, -12
 413              		.cfi_offset 7, -8
 414              		.cfi_offset 14, -4
 415 0002 8BB0     		sub	sp, sp, #44
 416              		.cfi_def_cfa_offset 56
 417 0004 00AF     		add	r7, sp, #0
 418              		.cfi_def_cfa_register 7
 419 0006 0346     		mov	r3, r0
 420 0008 FB71     		strb	r3, [r7, #7]
 123:.\Protocolo.c ****     uint8 rx_extend[19],x,comand_exten[9]={0xFF,0xE9,0xFE,0xE0,0xE1,0xE0,0xFB,0xEE,0xF0};
 421              		.loc 1 123 0
 422 000a 594A     		ldr	r2, .L39
 423 000c 07F10803 		add	r3, r7, #8
ARM GAS  C:\Users\IN-002~1\AppData\Local\Temp\cchaWHVS.s 			page 11


 424 0010 1068     		ldr	r0, [r2]	@ unaligned
 425 0012 5168     		ldr	r1, [r2, #4]	@ unaligned
 426 0014 03C3     		stmia	r3!, {r0, r1}
 427 0016 127A     		ldrb	r2, [r2, #8]
 428 0018 1A70     		strb	r2, [r3]
 124:.\Protocolo.c **** 	Surtidor_ClearRxBuffer();
 429              		.loc 1 124 0
 430 001a FFF7FEFF 		bl	Surtidor_ClearRxBuffer
 125:.\Protocolo.c ****     Surtidor_PutChar(0x20|val);
 431              		.loc 1 125 0
 432 001e FB79     		ldrb	r3, [r7, #7]
 433 0020 43F02003 		orr	r3, r3, #32
 434 0024 DBB2     		uxtb	r3, r3
 435 0026 1846     		mov	r0, r3
 436 0028 FFF7FEFF 		bl	Surtidor_PutChar
 126:.\Protocolo.c **** 	isr_1_StartEx(Rx_Surtidor);
 437              		.loc 1 126 0
 438 002c 5148     		ldr	r0, .L39+4
 439 002e FFF7FEFF 		bl	isr_1_StartEx
 127:.\Protocolo.c ****     Timer_RxSurtidor_Start();	
 440              		.loc 1 127 0
 441 0032 FFF7FEFF 		bl	Timer_RxSurtidor_Start
 128:.\Protocolo.c ****     rx_timeout=0;
 442              		.loc 1 128 0
 443 0036 504B     		ldr	r3, .L39+8
 444 0038 0022     		movs	r2, #0
 445 003a 1A70     		strb	r2, [r3]
 129:.\Protocolo.c **** 	while(Surtidor_GetRxBufferSize()==0){
 446              		.loc 1 129 0
 447 003c 0BE0     		b	.L22
 448              	.L24:
 130:.\Protocolo.c **** 		if(rx_timeout==1){
 449              		.loc 1 130 0
 450 003e 4E4B     		ldr	r3, .L39+8
 451 0040 1B78     		ldrb	r3, [r3]	@ zero_extendqisi2
 452 0042 012B     		cmp	r3, #1
 453 0044 07D1     		bne	.L22
 131:.\Protocolo.c **** 			isr_1_Stop();
 454              		.loc 1 131 0
 455 0046 FFF7FEFF 		bl	isr_1_Stop
 132:.\Protocolo.c **** 			Timer_RxSurtidor_Stop();
 456              		.loc 1 132 0
 457 004a FFF7FEFF 		bl	Timer_RxSurtidor_Stop
 133:.\Protocolo.c ****     		Surtidor_ClearRxBuffer();			
 458              		.loc 1 133 0
 459 004e FFF7FEFF 		bl	Surtidor_ClearRxBuffer
 134:.\Protocolo.c **** 			return 0;
 460              		.loc 1 134 0
 461 0052 0023     		movs	r3, #0
 462 0054 88E0     		b	.L37
 463              	.L22:
 129:.\Protocolo.c **** 		if(rx_timeout==1){
 464              		.loc 1 129 0
 465 0056 FFF7FEFF 		bl	Surtidor_GetRxBufferSize
 466 005a 0346     		mov	r3, r0
 467 005c 002B     		cmp	r3, #0
 468 005e EED0     		beq	.L24
ARM GAS  C:\Users\IN-002~1\AppData\Local\Temp\cchaWHVS.s 			page 12


 135:.\Protocolo.c **** 		}
 136:.\Protocolo.c **** 	}
 137:.\Protocolo.c **** 	isr_1_Stop();
 469              		.loc 1 137 0
 470 0060 FFF7FEFF 		bl	isr_1_Stop
 138:.\Protocolo.c **** 	Timer_RxSurtidor_Stop();	
 471              		.loc 1 138 0
 472 0064 FFF7FEFF 		bl	Timer_RxSurtidor_Stop
 139:.\Protocolo.c ****     if(Surtidor_ReadRxData()==(0xD0|val)){
 473              		.loc 1 139 0
 474 0068 FFF7FEFF 		bl	Surtidor_ReadRxData
 475 006c 0346     		mov	r3, r0
 476 006e 1A46     		mov	r2, r3
 477 0070 FB79     		ldrb	r3, [r7, #7]
 478 0072 63F02F03 		orn	r3, r3, #47
 479 0076 DBB2     		uxtb	r3, r3
 480 0078 9A42     		cmp	r2, r3
 481 007a 74D1     		bne	.L25
 140:.\Protocolo.c ****         Surtidor_ClearRxBuffer();
 482              		.loc 1 140 0
 483 007c FFF7FEFF 		bl	Surtidor_ClearRxBuffer
 141:.\Protocolo.c **** 		CyDelay(5);
 484              		.loc 1 141 0
 485 0080 0520     		movs	r0, #5
 486 0082 FFF7FEFF 		bl	CyDelay
 142:.\Protocolo.c ****         for(x=0;x<=8;x++){
 487              		.loc 1 142 0
 488 0086 0023     		movs	r3, #0
 489 0088 87F82730 		strb	r3, [r7, #39]
 490 008c 0EE0     		b	.L26
 491              	.L27:
 143:.\Protocolo.c ****            Surtidor_PutChar(comand_exten[x]); 
 492              		.loc 1 143 0 discriminator 3
 493 008e 97F82730 		ldrb	r3, [r7, #39]	@ zero_extendqisi2
 494 0092 07F12802 		add	r2, r7, #40
 495 0096 1344     		add	r3, r3, r2
 496 0098 13F8203C 		ldrb	r3, [r3, #-32]	@ zero_extendqisi2
 497 009c 1846     		mov	r0, r3
 498 009e FFF7FEFF 		bl	Surtidor_PutChar
 142:.\Protocolo.c ****         for(x=0;x<=8;x++){
 499              		.loc 1 142 0 discriminator 3
 500 00a2 97F82730 		ldrb	r3, [r7, #39]	@ zero_extendqisi2
 501 00a6 0133     		adds	r3, r3, #1
 502 00a8 87F82730 		strb	r3, [r7, #39]
 503              	.L26:
 142:.\Protocolo.c ****         for(x=0;x<=8;x++){
 504              		.loc 1 142 0 is_stmt 0 discriminator 1
 505 00ac 97F82730 		ldrb	r3, [r7, #39]	@ zero_extendqisi2
 506 00b0 082B     		cmp	r3, #8
 507 00b2 ECD9     		bls	.L27
 144:.\Protocolo.c ****         }
 145:.\Protocolo.c **** 		isr_1_StartEx(Rx_Surtidor);
 508              		.loc 1 145 0 is_stmt 1
 509 00b4 2F48     		ldr	r0, .L39+4
 510 00b6 FFF7FEFF 		bl	isr_1_StartEx
 146:.\Protocolo.c **** 	    Timer_RxSurtidor_Start();	
 511              		.loc 1 146 0
ARM GAS  C:\Users\IN-002~1\AppData\Local\Temp\cchaWHVS.s 			page 13


 512 00ba FFF7FEFF 		bl	Timer_RxSurtidor_Start
 147:.\Protocolo.c **** 	    rx_timeout=0;
 513              		.loc 1 147 0
 514 00be 2E4B     		ldr	r3, .L39+8
 515 00c0 0022     		movs	r2, #0
 516 00c2 1A70     		strb	r2, [r3]
 148:.\Protocolo.c **** 		while(Surtidor_GetRxBufferSize()!=19){
 517              		.loc 1 148 0
 518 00c4 0BE0     		b	.L28
 519              	.L29:
 149:.\Protocolo.c **** 			if(rx_timeout==1){
 520              		.loc 1 149 0
 521 00c6 2C4B     		ldr	r3, .L39+8
 522 00c8 1B78     		ldrb	r3, [r3]	@ zero_extendqisi2
 523 00ca 012B     		cmp	r3, #1
 524 00cc 07D1     		bne	.L28
 150:.\Protocolo.c **** 				isr_1_Stop();
 525              		.loc 1 150 0
 526 00ce FFF7FEFF 		bl	isr_1_Stop
 151:.\Protocolo.c **** 				Timer_RxSurtidor_Stop();
 527              		.loc 1 151 0
 528 00d2 FFF7FEFF 		bl	Timer_RxSurtidor_Stop
 152:.\Protocolo.c **** 	    		Surtidor_ClearRxBuffer();			
 529              		.loc 1 152 0
 530 00d6 FFF7FEFF 		bl	Surtidor_ClearRxBuffer
 153:.\Protocolo.c **** 				return 0;
 531              		.loc 1 153 0
 532 00da 0023     		movs	r3, #0
 533 00dc 44E0     		b	.L37
 534              	.L28:
 148:.\Protocolo.c **** 			if(rx_timeout==1){
 535              		.loc 1 148 0
 536 00de FFF7FEFF 		bl	Surtidor_GetRxBufferSize
 537 00e2 0346     		mov	r3, r0
 538 00e4 132B     		cmp	r3, #19
 539 00e6 EED1     		bne	.L29
 154:.\Protocolo.c **** 			}
 155:.\Protocolo.c **** 		}       
 156:.\Protocolo.c **** 		isr_1_Stop();
 540              		.loc 1 156 0
 541 00e8 FFF7FEFF 		bl	isr_1_Stop
 157:.\Protocolo.c **** 		Timer_RxSurtidor_Stop();		
 542              		.loc 1 157 0
 543 00ec FFF7FEFF 		bl	Timer_RxSurtidor_Stop
 158:.\Protocolo.c ****         for(x=0;x<=18;x++){
 544              		.loc 1 158 0
 545 00f0 0023     		movs	r3, #0
 546 00f2 87F82730 		strb	r3, [r7, #39]
 547 00f6 0FE0     		b	.L30
 548              	.L31:
 159:.\Protocolo.c ****            rx_extend[x]=Surtidor_ReadRxData(); 
 549              		.loc 1 159 0 discriminator 3
 550 00f8 97F82740 		ldrb	r4, [r7, #39]	@ zero_extendqisi2
 551 00fc FFF7FEFF 		bl	Surtidor_ReadRxData
 552 0100 0346     		mov	r3, r0
 553 0102 1A46     		mov	r2, r3
 554 0104 07F12803 		add	r3, r7, #40
ARM GAS  C:\Users\IN-002~1\AppData\Local\Temp\cchaWHVS.s 			page 14


 555 0108 2344     		add	r3, r3, r4
 556 010a 03F8142C 		strb	r2, [r3, #-20]
 158:.\Protocolo.c ****         for(x=0;x<=18;x++){
 557              		.loc 1 158 0 discriminator 3
 558 010e 97F82730 		ldrb	r3, [r7, #39]	@ zero_extendqisi2
 559 0112 0133     		adds	r3, r3, #1
 560 0114 87F82730 		strb	r3, [r7, #39]
 561              	.L30:
 158:.\Protocolo.c ****         for(x=0;x<=18;x++){
 562              		.loc 1 158 0 is_stmt 0 discriminator 1
 563 0118 97F82730 		ldrb	r3, [r7, #39]	@ zero_extendqisi2
 564 011c 122B     		cmp	r3, #18
 565 011e EBD9     		bls	.L31
 160:.\Protocolo.c ****         }
 161:.\Protocolo.c ****         Surtidor_ClearRxBuffer();
 566              		.loc 1 161 0 is_stmt 1
 567 0120 FFF7FEFF 		bl	Surtidor_ClearRxBuffer
 162:.\Protocolo.c ****         if((rx_extend[0]==0xBA)&&(rx_extend[17]==0x8D)&&(rx_extend[18]==0x8A)&&(rx_extend[12]==0xB1
 568              		.loc 1 162 0
 569 0124 3B7D     		ldrb	r3, [r7, #20]	@ zero_extendqisi2
 570 0126 BA2B     		cmp	r3, #186
 571 0128 1BD1     		bne	.L32
 572              		.loc 1 162 0 is_stmt 0 discriminator 1
 573 012a 97F82530 		ldrb	r3, [r7, #37]	@ zero_extendqisi2
 574 012e 8D2B     		cmp	r3, #141
 575 0130 17D1     		bne	.L32
 576              		.loc 1 162 0 discriminator 2
 577 0132 97F82630 		ldrb	r3, [r7, #38]	@ zero_extendqisi2
 578 0136 8A2B     		cmp	r3, #138
 579 0138 13D1     		bne	.L32
 580              		.loc 1 162 0 discriminator 3
 581 013a 97F82030 		ldrb	r3, [r7, #32]	@ zero_extendqisi2
 582 013e B12B     		cmp	r3, #177
 583 0140 0FD1     		bne	.L32
 163:.\Protocolo.c ****             switch(rx_extend[14]){
 584              		.loc 1 163 0 is_stmt 1
 585 0142 97F82230 		ldrb	r3, [r7, #34]	@ zero_extendqisi2
 586 0146 B22B     		cmp	r3, #178
 587 0148 05D0     		beq	.L34
 588 014a B32B     		cmp	r3, #179
 589 014c 05D0     		beq	.L35
 590 014e B12B     		cmp	r3, #177
 591 0150 05D1     		bne	.L38
 164:.\Protocolo.c ****                 case 0xB1:
 165:.\Protocolo.c ****                     return 1;
 592              		.loc 1 165 0
 593 0152 0123     		movs	r3, #1
 594 0154 08E0     		b	.L37
 595              	.L34:
 166:.\Protocolo.c ****                 break;
 167:.\Protocolo.c ****                 case 0xB2:
 168:.\Protocolo.c ****                     return 2;
 596              		.loc 1 168 0
 597 0156 0223     		movs	r3, #2
 598 0158 06E0     		b	.L37
 599              	.L35:
 169:.\Protocolo.c ****                 break;
ARM GAS  C:\Users\IN-002~1\AppData\Local\Temp\cchaWHVS.s 			page 15


 170:.\Protocolo.c ****                 case 0xB3:
 171:.\Protocolo.c ****                     return 3;
 600              		.loc 1 171 0
 601 015a 0323     		movs	r3, #3
 602 015c 04E0     		b	.L37
 603              	.L38:
 172:.\Protocolo.c ****                 break;
 173:.\Protocolo.c ****                 default:
 174:.\Protocolo.c ****                 	return 0;
 604              		.loc 1 174 0
 605 015e 0023     		movs	r3, #0
 606 0160 02E0     		b	.L37
 607              	.L32:
 175:.\Protocolo.c **** 				break;
 176:.\Protocolo.c ****             }
 177:.\Protocolo.c ****         }
 178:.\Protocolo.c ****         else{
 179:.\Protocolo.c ****             return 0;
 608              		.loc 1 179 0
 609 0162 0023     		movs	r3, #0
 610 0164 00E0     		b	.L37
 611              	.L25:
 180:.\Protocolo.c ****         }
 181:.\Protocolo.c ****     }
 182:.\Protocolo.c ****     else{
 183:.\Protocolo.c ****         return 0;
 612              		.loc 1 183 0
 613 0166 0023     		movs	r3, #0
 614              	.L37:
 184:.\Protocolo.c ****     }
 185:.\Protocolo.c **** }
 615              		.loc 1 185 0
 616 0168 1846     		mov	r0, r3
 617 016a 2C37     		adds	r7, r7, #44
 618              		.cfi_def_cfa_offset 12
 619 016c BD46     		mov	sp, r7
 620              		.cfi_def_cfa_register 13
 621              		@ sp needed
 622 016e 90BD     		pop	{r4, r7, pc}
 623              	.L40:
 624              		.align	2
 625              	.L39:
 626 0170 00000000 		.word	.LC0
 627 0174 00000000 		.word	Rx_Surtidor
 628 0178 00000000 		.word	rx_timeout
 629              		.cfi_endproc
 630              	.LFE66:
 631              		.size	estado_ex, .-estado_ex
 632              		.section	.text.detener,"ax",%progbits
 633              		.align	2
 634              		.global	detener
 635              		.thumb
 636              		.thumb_func
 637              		.type	detener, %function
 638              	detener:
 639              	.LFB67:
 186:.\Protocolo.c **** 
ARM GAS  C:\Users\IN-002~1\AppData\Local\Temp\cchaWHVS.s 			page 16


 187:.\Protocolo.c **** /**
 188:.\Protocolo.c **** * detener
 189:.\Protocolo.c **** * @brief Envía un stop a la posición seleccionada
 190:.\Protocolo.c **** * @param val posición del surtidor
 191:.\Protocolo.c **** *
 192:.\Protocolo.c **** */
 193:.\Protocolo.c **** void detener(uint8 val){
 640              		.loc 1 193 0
 641              		.cfi_startproc
 642              		@ args = 0, pretend = 0, frame = 8
 643              		@ frame_needed = 1, uses_anonymous_args = 0
 644 0000 80B5     		push	{r7, lr}
 645              		.cfi_def_cfa_offset 8
 646              		.cfi_offset 7, -8
 647              		.cfi_offset 14, -4
 648 0002 82B0     		sub	sp, sp, #8
 649              		.cfi_def_cfa_offset 16
 650 0004 00AF     		add	r7, sp, #0
 651              		.cfi_def_cfa_register 7
 652 0006 0346     		mov	r3, r0
 653 0008 FB71     		strb	r3, [r7, #7]
 194:.\Protocolo.c ****     Surtidor_PutChar(0x30|val);
 654              		.loc 1 194 0
 655 000a FB79     		ldrb	r3, [r7, #7]
 656 000c 43F03003 		orr	r3, r3, #48
 657 0010 DBB2     		uxtb	r3, r3
 658 0012 1846     		mov	r0, r3
 659 0014 FFF7FEFF 		bl	Surtidor_PutChar
 195:.\Protocolo.c ****     CyDelay(200);
 660              		.loc 1 195 0
 661 0018 C820     		movs	r0, #200
 662 001a FFF7FEFF 		bl	CyDelay
 196:.\Protocolo.c **** }
 663              		.loc 1 196 0
 664 001e 0837     		adds	r7, r7, #8
 665              		.cfi_def_cfa_offset 8
 666 0020 BD46     		mov	sp, r7
 667              		.cfi_def_cfa_register 13
 668              		@ sp needed
 669 0022 80BD     		pop	{r7, pc}
 670              		.cfi_endproc
 671              	.LFE67:
 672              		.size	detener, .-detener
 673              		.section	.text.venta,"ax",%progbits
 674              		.align	2
 675              		.global	venta
 676              		.thumb
 677              		.thumb_func
 678              		.type	venta, %function
 679              	venta:
 680              	.LFB68:
 197:.\Protocolo.c **** 
 198:.\Protocolo.c **** /**
 199:.\Protocolo.c **** * venta
 200:.\Protocolo.c **** * @brief La función se llama cuando hay un FEOT o PEOT, obtiene los datos de la última venta
 201:.\Protocolo.c **** * almacena la venta en eeprom para utilizar los datos en otros procesos
 202:.\Protocolo.c **** 
ARM GAS  C:\Users\IN-002~1\AppData\Local\Temp\cchaWHVS.s 			page 17


 203:.\Protocolo.c **** * @param val posición del surtidor
 204:.\Protocolo.c **** * @return 0 si hay error, 1 si se almacena la venta    
 205:.\Protocolo.c **** *
 206:.\Protocolo.c **** */
 207:.\Protocolo.c **** uint8 venta(uint8 dir){
 681              		.loc 1 207 0
 682              		.cfi_startproc
 683              		@ args = 0, pretend = 0, frame = 16
 684              		@ frame_needed = 1, uses_anonymous_args = 0
 685 0000 80B5     		push	{r7, lr}
 686              		.cfi_def_cfa_offset 8
 687              		.cfi_offset 7, -8
 688              		.cfi_offset 14, -4
 689 0002 84B0     		sub	sp, sp, #16
 690              		.cfi_def_cfa_offset 24
 691 0004 00AF     		add	r7, sp, #0
 692              		.cfi_def_cfa_register 7
 693 0006 0346     		mov	r3, r0
 694 0008 FB71     		strb	r3, [r7, #7]
 208:.\Protocolo.c **** 	uint8 x;
 209:.\Protocolo.c **** 	Surtidor_ClearRxBuffer();
 695              		.loc 1 209 0
 696 000a FFF7FEFF 		bl	Surtidor_ClearRxBuffer
 210:.\Protocolo.c **** 	Surtidor_PutChar(0x40|dir);
 697              		.loc 1 210 0
 698 000e FB79     		ldrb	r3, [r7, #7]
 699 0010 43F04003 		orr	r3, r3, #64
 700 0014 DBB2     		uxtb	r3, r3
 701 0016 1846     		mov	r0, r3
 702 0018 FFF7FEFF 		bl	Surtidor_PutChar
 211:.\Protocolo.c ****     CyDelay(300);
 703              		.loc 1 211 0
 704 001c 4FF49670 		mov	r0, #300
 705 0020 FFF7FEFF 		bl	CyDelay
 212:.\Protocolo.c **** 	if((version[1]!=7)&&(Surtidor_GetRxBufferSize()==33)){
 706              		.loc 1 212 0
 707 0024 AB4B     		ldr	r3, .L76
 708 0026 5B78     		ldrb	r3, [r3, #1]
 709 0028 DBB2     		uxtb	r3, r3
 710 002a 072B     		cmp	r3, #7
 711 002c 00F0BC80 		beq	.L43
 712              		.loc 1 212 0 is_stmt 0 discriminator 1
 713 0030 FFF7FEFF 		bl	Surtidor_GetRxBufferSize
 714 0034 0346     		mov	r3, r0
 715 0036 212B     		cmp	r3, #33
 716 0038 40F0B680 		bne	.L43
 213:.\Protocolo.c **** 		if((Surtidor_rxBuffer[0]==0xFF)&&(Surtidor_rxBuffer[2]==0xF8)&&(Surtidor_rxBuffer[32]==0xF0)){
 717              		.loc 1 213 0 is_stmt 1
 718 003c A64B     		ldr	r3, .L76+4
 719 003e 1B78     		ldrb	r3, [r3]
 720 0040 DBB2     		uxtb	r3, r3
 721 0042 FF2B     		cmp	r3, #255
 722 0044 40F0AE80 		bne	.L44
 723              		.loc 1 213 0 is_stmt 0 discriminator 1
 724 0048 A34B     		ldr	r3, .L76+4
 725 004a 9B78     		ldrb	r3, [r3, #2]
 726 004c DBB2     		uxtb	r3, r3
ARM GAS  C:\Users\IN-002~1\AppData\Local\Temp\cchaWHVS.s 			page 18


 727 004e F82B     		cmp	r3, #248
 728 0050 40F0A880 		bne	.L44
 729              		.loc 1 213 0 discriminator 2
 730 0054 A04B     		ldr	r3, .L76+4
 731 0056 93F82030 		ldrb	r3, [r3, #32]
 732 005a DBB2     		uxtb	r3, r3
 733 005c F02B     		cmp	r3, #240
 734 005e 40F0A180 		bne	.L44
 214:.\Protocolo.c **** 			if(dir==lado1.dir){
 735              		.loc 1 214 0 is_stmt 1
 736 0062 9E4B     		ldr	r3, .L76+8
 737 0064 1B78     		ldrb	r3, [r3]
 738 0066 DBB2     		uxtb	r3, r3
 739 0068 FA79     		ldrb	r2, [r7, #7]	@ zero_extendqisi2
 740 006a 9A42     		cmp	r2, r3
 741 006c 4CD1     		bne	.L45
 215:.\Protocolo.c **** 				rventa1.producto=(Surtidor_rxBuffer[9]&0x0F)+1;
 742              		.loc 1 215 0
 743 006e 9A4B     		ldr	r3, .L76+4
 744 0070 5B7A     		ldrb	r3, [r3, #9]
 745 0072 DBB2     		uxtb	r3, r3
 746 0074 03F00F03 		and	r3, r3, #15
 747 0078 DBB2     		uxtb	r3, r3
 748 007a 0133     		adds	r3, r3, #1
 749 007c DAB2     		uxtb	r2, r3
 750 007e 984B     		ldr	r3, .L76+12
 751 0080 5A76     		strb	r2, [r3, #25]
 216:.\Protocolo.c **** 				for(x=0;x<=3;x++){
 752              		.loc 1 216 0
 753 0082 0023     		movs	r3, #0
 754 0084 FB73     		strb	r3, [r7, #15]
 755 0086 0FE0     		b	.L46
 756              	.L47:
 217:.\Protocolo.c **** 					rventa1.ppu[x]=(Surtidor_rxBuffer[x+12]&0x0F);
 757              		.loc 1 217 0 discriminator 3
 758 0088 FB7B     		ldrb	r3, [r7, #15]	@ zero_extendqisi2
 759 008a FA7B     		ldrb	r2, [r7, #15]	@ zero_extendqisi2
 760 008c 0C32     		adds	r2, r2, #12
 761 008e 9249     		ldr	r1, .L76+4
 762 0090 8A5C     		ldrb	r2, [r1, r2]
 763 0092 D2B2     		uxtb	r2, r2
 764 0094 02F00F02 		and	r2, r2, #15
 765 0098 D1B2     		uxtb	r1, r2
 766 009a 914A     		ldr	r2, .L76+12
 767 009c 1344     		add	r3, r3, r2
 768 009e 0A46     		mov	r2, r1
 769 00a0 9A70     		strb	r2, [r3, #2]
 216:.\Protocolo.c **** 				for(x=0;x<=3;x++){
 770              		.loc 1 216 0 discriminator 3
 771 00a2 FB7B     		ldrb	r3, [r7, #15]	@ zero_extendqisi2
 772 00a4 0133     		adds	r3, r3, #1
 773 00a6 FB73     		strb	r3, [r7, #15]
 774              	.L46:
 216:.\Protocolo.c **** 				for(x=0;x<=3;x++){
 775              		.loc 1 216 0 is_stmt 0 discriminator 1
 776 00a8 FB7B     		ldrb	r3, [r7, #15]	@ zero_extendqisi2
 777 00aa 032B     		cmp	r3, #3
ARM GAS  C:\Users\IN-002~1\AppData\Local\Temp\cchaWHVS.s 			page 19


 778 00ac ECD9     		bls	.L47
 218:.\Protocolo.c **** 				}
 219:.\Protocolo.c **** 				for(x=0;x<=5;x++){
 779              		.loc 1 219 0 is_stmt 1
 780 00ae 0023     		movs	r3, #0
 781 00b0 FB73     		strb	r3, [r7, #15]
 782 00b2 0FE0     		b	.L48
 783              	.L49:
 220:.\Protocolo.c **** 					rventa1.volumen[x]=(Surtidor_rxBuffer[x+17]&0x0F);
 784              		.loc 1 220 0 discriminator 3
 785 00b4 FB7B     		ldrb	r3, [r7, #15]	@ zero_extendqisi2
 786 00b6 FA7B     		ldrb	r2, [r7, #15]	@ zero_extendqisi2
 787 00b8 1132     		adds	r2, r2, #17
 788 00ba 8749     		ldr	r1, .L76+4
 789 00bc 8A5C     		ldrb	r2, [r1, r2]
 790 00be D2B2     		uxtb	r2, r2
 791 00c0 02F00F02 		and	r2, r2, #15
 792 00c4 D1B2     		uxtb	r1, r2
 793 00c6 864A     		ldr	r2, .L76+12
 794 00c8 1344     		add	r3, r3, r2
 795 00ca 0A46     		mov	r2, r1
 796 00cc 1A74     		strb	r2, [r3, #16]
 219:.\Protocolo.c **** 					rventa1.volumen[x]=(Surtidor_rxBuffer[x+17]&0x0F);
 797              		.loc 1 219 0 discriminator 3
 798 00ce FB7B     		ldrb	r3, [r7, #15]	@ zero_extendqisi2
 799 00d0 0133     		adds	r3, r3, #1
 800 00d2 FB73     		strb	r3, [r7, #15]
 801              	.L48:
 219:.\Protocolo.c **** 					rventa1.volumen[x]=(Surtidor_rxBuffer[x+17]&0x0F);
 802              		.loc 1 219 0 is_stmt 0 discriminator 1
 803 00d4 FB7B     		ldrb	r3, [r7, #15]	@ zero_extendqisi2
 804 00d6 052B     		cmp	r3, #5
 805 00d8 ECD9     		bls	.L49
 221:.\Protocolo.c **** 				}			
 222:.\Protocolo.c **** 				for(x=0;x<=5;x++){
 806              		.loc 1 222 0 is_stmt 1
 807 00da 0023     		movs	r3, #0
 808 00dc FB73     		strb	r3, [r7, #15]
 809 00de 0FE0     		b	.L50
 810              	.L51:
 223:.\Protocolo.c **** 					rventa1.dinero[x]=(Surtidor_rxBuffer[x+24]&0x0F);
 811              		.loc 1 223 0 discriminator 3
 812 00e0 FB7B     		ldrb	r3, [r7, #15]	@ zero_extendqisi2
 813 00e2 FA7B     		ldrb	r2, [r7, #15]	@ zero_extendqisi2
 814 00e4 1832     		adds	r2, r2, #24
 815 00e6 7C49     		ldr	r1, .L76+4
 816 00e8 8A5C     		ldrb	r2, [r1, r2]
 817 00ea D2B2     		uxtb	r2, r2
 818 00ec 02F00F02 		and	r2, r2, #15
 819 00f0 D1B2     		uxtb	r1, r2
 820 00f2 7B4A     		ldr	r2, .L76+12
 821 00f4 1344     		add	r3, r3, r2
 822 00f6 0A46     		mov	r2, r1
 823 00f8 DA71     		strb	r2, [r3, #7]
 222:.\Protocolo.c **** 					rventa1.dinero[x]=(Surtidor_rxBuffer[x+24]&0x0F);
 824              		.loc 1 222 0 discriminator 3
 825 00fa FB7B     		ldrb	r3, [r7, #15]	@ zero_extendqisi2
ARM GAS  C:\Users\IN-002~1\AppData\Local\Temp\cchaWHVS.s 			page 20


 826 00fc 0133     		adds	r3, r3, #1
 827 00fe FB73     		strb	r3, [r7, #15]
 828              	.L50:
 222:.\Protocolo.c **** 					rventa1.dinero[x]=(Surtidor_rxBuffer[x+24]&0x0F);
 829              		.loc 1 222 0 is_stmt 0 discriminator 1
 830 0100 FB7B     		ldrb	r3, [r7, #15]	@ zero_extendqisi2
 831 0102 052B     		cmp	r3, #5
 832 0104 ECD9     		bls	.L51
 833 0106 4BE0     		b	.L52
 834              	.L45:
 224:.\Protocolo.c **** 				}
 225:.\Protocolo.c **** 			}
 226:.\Protocolo.c **** 			else{
 227:.\Protocolo.c **** 				rventa2.producto=(Surtidor_rxBuffer[9]&0x0F)+1;
 835              		.loc 1 227 0 is_stmt 1
 836 0108 734B     		ldr	r3, .L76+4
 837 010a 5B7A     		ldrb	r3, [r3, #9]
 838 010c DBB2     		uxtb	r3, r3
 839 010e 03F00F03 		and	r3, r3, #15
 840 0112 DBB2     		uxtb	r3, r3
 841 0114 0133     		adds	r3, r3, #1
 842 0116 DAB2     		uxtb	r2, r3
 843 0118 724B     		ldr	r3, .L76+16
 844 011a 5A76     		strb	r2, [r3, #25]
 228:.\Protocolo.c **** 				for(x=0;x<=3;x++){
 845              		.loc 1 228 0
 846 011c 0023     		movs	r3, #0
 847 011e FB73     		strb	r3, [r7, #15]
 848 0120 0FE0     		b	.L53
 849              	.L54:
 229:.\Protocolo.c **** 					rventa2.ppu[x]=(Surtidor_rxBuffer[x+12]&0x0F);
 850              		.loc 1 229 0 discriminator 3
 851 0122 FB7B     		ldrb	r3, [r7, #15]	@ zero_extendqisi2
 852 0124 FA7B     		ldrb	r2, [r7, #15]	@ zero_extendqisi2
 853 0126 0C32     		adds	r2, r2, #12
 854 0128 6B49     		ldr	r1, .L76+4
 855 012a 8A5C     		ldrb	r2, [r1, r2]
 856 012c D2B2     		uxtb	r2, r2
 857 012e 02F00F02 		and	r2, r2, #15
 858 0132 D1B2     		uxtb	r1, r2
 859 0134 6B4A     		ldr	r2, .L76+16
 860 0136 1344     		add	r3, r3, r2
 861 0138 0A46     		mov	r2, r1
 862 013a 9A70     		strb	r2, [r3, #2]
 228:.\Protocolo.c **** 				for(x=0;x<=3;x++){
 863              		.loc 1 228 0 discriminator 3
 864 013c FB7B     		ldrb	r3, [r7, #15]	@ zero_extendqisi2
 865 013e 0133     		adds	r3, r3, #1
 866 0140 FB73     		strb	r3, [r7, #15]
 867              	.L53:
 228:.\Protocolo.c **** 				for(x=0;x<=3;x++){
 868              		.loc 1 228 0 is_stmt 0 discriminator 1
 869 0142 FB7B     		ldrb	r3, [r7, #15]	@ zero_extendqisi2
 870 0144 032B     		cmp	r3, #3
 871 0146 ECD9     		bls	.L54
 230:.\Protocolo.c **** 				}
 231:.\Protocolo.c **** 				for(x=0;x<=5;x++){
ARM GAS  C:\Users\IN-002~1\AppData\Local\Temp\cchaWHVS.s 			page 21


 872              		.loc 1 231 0 is_stmt 1
 873 0148 0023     		movs	r3, #0
 874 014a FB73     		strb	r3, [r7, #15]
 875 014c 0FE0     		b	.L55
 876              	.L56:
 232:.\Protocolo.c **** 					rventa2.volumen[x]=(Surtidor_rxBuffer[x+17]&0x0F);
 877              		.loc 1 232 0 discriminator 3
 878 014e FB7B     		ldrb	r3, [r7, #15]	@ zero_extendqisi2
 879 0150 FA7B     		ldrb	r2, [r7, #15]	@ zero_extendqisi2
 880 0152 1132     		adds	r2, r2, #17
 881 0154 6049     		ldr	r1, .L76+4
 882 0156 8A5C     		ldrb	r2, [r1, r2]
 883 0158 D2B2     		uxtb	r2, r2
 884 015a 02F00F02 		and	r2, r2, #15
 885 015e D1B2     		uxtb	r1, r2
 886 0160 604A     		ldr	r2, .L76+16
 887 0162 1344     		add	r3, r3, r2
 888 0164 0A46     		mov	r2, r1
 889 0166 1A74     		strb	r2, [r3, #16]
 231:.\Protocolo.c **** 					rventa2.volumen[x]=(Surtidor_rxBuffer[x+17]&0x0F);
 890              		.loc 1 231 0 discriminator 3
 891 0168 FB7B     		ldrb	r3, [r7, #15]	@ zero_extendqisi2
 892 016a 0133     		adds	r3, r3, #1
 893 016c FB73     		strb	r3, [r7, #15]
 894              	.L55:
 231:.\Protocolo.c **** 					rventa2.volumen[x]=(Surtidor_rxBuffer[x+17]&0x0F);
 895              		.loc 1 231 0 is_stmt 0 discriminator 1
 896 016e FB7B     		ldrb	r3, [r7, #15]	@ zero_extendqisi2
 897 0170 052B     		cmp	r3, #5
 898 0172 ECD9     		bls	.L56
 233:.\Protocolo.c **** 				}			
 234:.\Protocolo.c **** 				for(x=0;x<=5;x++){
 899              		.loc 1 234 0 is_stmt 1
 900 0174 0023     		movs	r3, #0
 901 0176 FB73     		strb	r3, [r7, #15]
 902 0178 0FE0     		b	.L57
 903              	.L58:
 235:.\Protocolo.c **** 					rventa2.dinero[x]=(Surtidor_rxBuffer[x+24]&0x0F);
 904              		.loc 1 235 0 discriminator 3
 905 017a FB7B     		ldrb	r3, [r7, #15]	@ zero_extendqisi2
 906 017c FA7B     		ldrb	r2, [r7, #15]	@ zero_extendqisi2
 907 017e 1832     		adds	r2, r2, #24
 908 0180 5549     		ldr	r1, .L76+4
 909 0182 8A5C     		ldrb	r2, [r1, r2]
 910 0184 D2B2     		uxtb	r2, r2
 911 0186 02F00F02 		and	r2, r2, #15
 912 018a D1B2     		uxtb	r1, r2
 913 018c 554A     		ldr	r2, .L76+16
 914 018e 1344     		add	r3, r3, r2
 915 0190 0A46     		mov	r2, r1
 916 0192 DA71     		strb	r2, [r3, #7]
 234:.\Protocolo.c **** 					rventa2.dinero[x]=(Surtidor_rxBuffer[x+24]&0x0F);
 917              		.loc 1 234 0 discriminator 3
 918 0194 FB7B     		ldrb	r3, [r7, #15]	@ zero_extendqisi2
 919 0196 0133     		adds	r3, r3, #1
 920 0198 FB73     		strb	r3, [r7, #15]
 921              	.L57:
ARM GAS  C:\Users\IN-002~1\AppData\Local\Temp\cchaWHVS.s 			page 22


 234:.\Protocolo.c **** 					rventa2.dinero[x]=(Surtidor_rxBuffer[x+24]&0x0F);
 922              		.loc 1 234 0 is_stmt 0 discriminator 1
 923 019a FB7B     		ldrb	r3, [r7, #15]	@ zero_extendqisi2
 924 019c 052B     		cmp	r3, #5
 925 019e ECD9     		bls	.L58
 926              	.L52:
 236:.\Protocolo.c **** 				}			
 237:.\Protocolo.c **** 			}
 238:.\Protocolo.c **** 			return 1;
 927              		.loc 1 238 0 is_stmt 1
 928 01a0 0123     		movs	r3, #1
 929 01a2 CFE0     		b	.L59
 930              	.L44:
 239:.\Protocolo.c **** 		}
 240:.\Protocolo.c **** 		else{
 241:.\Protocolo.c **** 			return 0;
 931              		.loc 1 241 0
 932 01a4 0023     		movs	r3, #0
 933 01a6 CDE0     		b	.L59
 934              	.L43:
 242:.\Protocolo.c **** 		}
 243:.\Protocolo.c **** 	}
 244:.\Protocolo.c **** 	else if((version[1]==7)&&(Surtidor_GetRxBufferSize()==39)){
 935              		.loc 1 244 0
 936 01a8 4A4B     		ldr	r3, .L76
 937 01aa 5B78     		ldrb	r3, [r3, #1]
 938 01ac DBB2     		uxtb	r3, r3
 939 01ae 072B     		cmp	r3, #7
 940 01b0 40F0C780 		bne	.L60
 941              		.loc 1 244 0 is_stmt 0 discriminator 1
 942 01b4 FFF7FEFF 		bl	Surtidor_GetRxBufferSize
 943 01b8 0346     		mov	r3, r0
 944 01ba 272B     		cmp	r3, #39
 945 01bc 40F0C180 		bne	.L60
 245:.\Protocolo.c **** 		if((Surtidor_rxBuffer[0]==0xFF)&&(Surtidor_rxBuffer[2]==0xF8)&&(Surtidor_rxBuffer[38]==0xF0)){
 946              		.loc 1 245 0 is_stmt 1
 947 01c0 454B     		ldr	r3, .L76+4
 948 01c2 1B78     		ldrb	r3, [r3]
 949 01c4 DBB2     		uxtb	r3, r3
 950 01c6 FF2B     		cmp	r3, #255
 951 01c8 40F0B980 		bne	.L61
 952              		.loc 1 245 0 is_stmt 0 discriminator 1
 953 01cc 424B     		ldr	r3, .L76+4
 954 01ce 9B78     		ldrb	r3, [r3, #2]
 955 01d0 DBB2     		uxtb	r3, r3
 956 01d2 F82B     		cmp	r3, #248
 957 01d4 40F0B380 		bne	.L61
 958              		.loc 1 245 0 discriminator 2
 959 01d8 3F4B     		ldr	r3, .L76+4
 960 01da 93F82630 		ldrb	r3, [r3, #38]
 961 01de DBB2     		uxtb	r3, r3
 962 01e0 F02B     		cmp	r3, #240
 963 01e2 40F0AC80 		bne	.L61
 246:.\Protocolo.c **** 			if(dir==lado1.dir){
 964              		.loc 1 246 0 is_stmt 1
 965 01e6 3D4B     		ldr	r3, .L76+8
 966 01e8 1B78     		ldrb	r3, [r3]
ARM GAS  C:\Users\IN-002~1\AppData\Local\Temp\cchaWHVS.s 			page 23


 967 01ea DBB2     		uxtb	r3, r3
 968 01ec FA79     		ldrb	r2, [r7, #7]	@ zero_extendqisi2
 969 01ee 9A42     		cmp	r2, r3
 970 01f0 4CD1     		bne	.L62
 247:.\Protocolo.c **** 				rventa1.producto=(Surtidor_rxBuffer[9]&0x0F)+1;
 971              		.loc 1 247 0
 972 01f2 394B     		ldr	r3, .L76+4
 973 01f4 5B7A     		ldrb	r3, [r3, #9]
 974 01f6 DBB2     		uxtb	r3, r3
 975 01f8 03F00F03 		and	r3, r3, #15
 976 01fc DBB2     		uxtb	r3, r3
 977 01fe 0133     		adds	r3, r3, #1
 978 0200 DAB2     		uxtb	r2, r3
 979 0202 374B     		ldr	r3, .L76+12
 980 0204 5A76     		strb	r2, [r3, #25]
 248:.\Protocolo.c **** 				for(x=0;x<=5;x++){
 981              		.loc 1 248 0
 982 0206 0023     		movs	r3, #0
 983 0208 FB73     		strb	r3, [r7, #15]
 984 020a 0FE0     		b	.L63
 985              	.L64:
 249:.\Protocolo.c **** 					rventa1.ppu[x]=(Surtidor_rxBuffer[x+12]&0x0F);
 986              		.loc 1 249 0 discriminator 3
 987 020c FB7B     		ldrb	r3, [r7, #15]	@ zero_extendqisi2
 988 020e FA7B     		ldrb	r2, [r7, #15]	@ zero_extendqisi2
 989 0210 0C32     		adds	r2, r2, #12
 990 0212 3149     		ldr	r1, .L76+4
 991 0214 8A5C     		ldrb	r2, [r1, r2]
 992 0216 D2B2     		uxtb	r2, r2
 993 0218 02F00F02 		and	r2, r2, #15
 994 021c D1B2     		uxtb	r1, r2
 995 021e 304A     		ldr	r2, .L76+12
 996 0220 1344     		add	r3, r3, r2
 997 0222 0A46     		mov	r2, r1
 998 0224 9A70     		strb	r2, [r3, #2]
 248:.\Protocolo.c **** 				for(x=0;x<=5;x++){
 999              		.loc 1 248 0 discriminator 3
 1000 0226 FB7B     		ldrb	r3, [r7, #15]	@ zero_extendqisi2
 1001 0228 0133     		adds	r3, r3, #1
 1002 022a FB73     		strb	r3, [r7, #15]
 1003              	.L63:
 248:.\Protocolo.c **** 				for(x=0;x<=5;x++){
 1004              		.loc 1 248 0 is_stmt 0 discriminator 1
 1005 022c FB7B     		ldrb	r3, [r7, #15]	@ zero_extendqisi2
 1006 022e 052B     		cmp	r3, #5
 1007 0230 ECD9     		bls	.L64
 250:.\Protocolo.c **** 				}
 251:.\Protocolo.c **** 				for(x=0;x<=7;x++){
 1008              		.loc 1 251 0 is_stmt 1
 1009 0232 0023     		movs	r3, #0
 1010 0234 FB73     		strb	r3, [r7, #15]
 1011 0236 0FE0     		b	.L65
 1012              	.L66:
 252:.\Protocolo.c **** 					rventa1.volumen[x]=(Surtidor_rxBuffer[x+19]&0x0F);
 1013              		.loc 1 252 0 discriminator 3
 1014 0238 FB7B     		ldrb	r3, [r7, #15]	@ zero_extendqisi2
 1015 023a FA7B     		ldrb	r2, [r7, #15]	@ zero_extendqisi2
ARM GAS  C:\Users\IN-002~1\AppData\Local\Temp\cchaWHVS.s 			page 24


 1016 023c 1332     		adds	r2, r2, #19
 1017 023e 2649     		ldr	r1, .L76+4
 1018 0240 8A5C     		ldrb	r2, [r1, r2]
 1019 0242 D2B2     		uxtb	r2, r2
 1020 0244 02F00F02 		and	r2, r2, #15
 1021 0248 D1B2     		uxtb	r1, r2
 1022 024a 254A     		ldr	r2, .L76+12
 1023 024c 1344     		add	r3, r3, r2
 1024 024e 0A46     		mov	r2, r1
 1025 0250 1A74     		strb	r2, [r3, #16]
 251:.\Protocolo.c **** 					rventa1.volumen[x]=(Surtidor_rxBuffer[x+19]&0x0F);
 1026              		.loc 1 251 0 discriminator 3
 1027 0252 FB7B     		ldrb	r3, [r7, #15]	@ zero_extendqisi2
 1028 0254 0133     		adds	r3, r3, #1
 1029 0256 FB73     		strb	r3, [r7, #15]
 1030              	.L65:
 251:.\Protocolo.c **** 					rventa1.volumen[x]=(Surtidor_rxBuffer[x+19]&0x0F);
 1031              		.loc 1 251 0 is_stmt 0 discriminator 1
 1032 0258 FB7B     		ldrb	r3, [r7, #15]	@ zero_extendqisi2
 1033 025a 072B     		cmp	r3, #7
 1034 025c ECD9     		bls	.L66
 253:.\Protocolo.c **** 				}			
 254:.\Protocolo.c **** 				for(x=0;x<=7;x++){
 1035              		.loc 1 254 0 is_stmt 1
 1036 025e 0023     		movs	r3, #0
 1037 0260 FB73     		strb	r3, [r7, #15]
 1038 0262 0FE0     		b	.L67
 1039              	.L68:
 255:.\Protocolo.c **** 					rventa1.dinero[x]=(Surtidor_rxBuffer[x+28]&0x0F);
 1040              		.loc 1 255 0 discriminator 3
 1041 0264 FB7B     		ldrb	r3, [r7, #15]	@ zero_extendqisi2
 1042 0266 FA7B     		ldrb	r2, [r7, #15]	@ zero_extendqisi2
 1043 0268 1C32     		adds	r2, r2, #28
 1044 026a 1B49     		ldr	r1, .L76+4
 1045 026c 8A5C     		ldrb	r2, [r1, r2]
 1046 026e D2B2     		uxtb	r2, r2
 1047 0270 02F00F02 		and	r2, r2, #15
 1048 0274 D1B2     		uxtb	r1, r2
 1049 0276 1A4A     		ldr	r2, .L76+12
 1050 0278 1344     		add	r3, r3, r2
 1051 027a 0A46     		mov	r2, r1
 1052 027c DA71     		strb	r2, [r3, #7]
 254:.\Protocolo.c **** 					rventa1.dinero[x]=(Surtidor_rxBuffer[x+28]&0x0F);
 1053              		.loc 1 254 0 discriminator 3
 1054 027e FB7B     		ldrb	r3, [r7, #15]	@ zero_extendqisi2
 1055 0280 0133     		adds	r3, r3, #1
 1056 0282 FB73     		strb	r3, [r7, #15]
 1057              	.L67:
 254:.\Protocolo.c **** 					rventa1.dinero[x]=(Surtidor_rxBuffer[x+28]&0x0F);
 1058              		.loc 1 254 0 is_stmt 0 discriminator 1
 1059 0284 FB7B     		ldrb	r3, [r7, #15]	@ zero_extendqisi2
 1060 0286 072B     		cmp	r3, #7
 1061 0288 ECD9     		bls	.L68
 1062 028a 56E0     		b	.L69
 1063              	.L62:
 256:.\Protocolo.c **** 				}
 257:.\Protocolo.c **** 			}
ARM GAS  C:\Users\IN-002~1\AppData\Local\Temp\cchaWHVS.s 			page 25


 258:.\Protocolo.c **** 			else{
 259:.\Protocolo.c **** 				rventa2.producto=(Surtidor_rxBuffer[9]&0x0F)+1;
 1064              		.loc 1 259 0 is_stmt 1
 1065 028c 124B     		ldr	r3, .L76+4
 1066 028e 5B7A     		ldrb	r3, [r3, #9]
 1067 0290 DBB2     		uxtb	r3, r3
 1068 0292 03F00F03 		and	r3, r3, #15
 1069 0296 DBB2     		uxtb	r3, r3
 1070 0298 0133     		adds	r3, r3, #1
 1071 029a DAB2     		uxtb	r2, r3
 1072 029c 114B     		ldr	r3, .L76+16
 1073 029e 5A76     		strb	r2, [r3, #25]
 260:.\Protocolo.c **** 				for(x=0;x<=5;x++){
 1074              		.loc 1 260 0
 1075 02a0 0023     		movs	r3, #0
 1076 02a2 FB73     		strb	r3, [r7, #15]
 1077 02a4 0FE0     		b	.L70
 1078              	.L71:
 261:.\Protocolo.c **** 					rventa2.ppu[x]=(Surtidor_rxBuffer[x+12]&0x0F);
 1079              		.loc 1 261 0 discriminator 3
 1080 02a6 FB7B     		ldrb	r3, [r7, #15]	@ zero_extendqisi2
 1081 02a8 FA7B     		ldrb	r2, [r7, #15]	@ zero_extendqisi2
 1082 02aa 0C32     		adds	r2, r2, #12
 1083 02ac 0A49     		ldr	r1, .L76+4
 1084 02ae 8A5C     		ldrb	r2, [r1, r2]
 1085 02b0 D2B2     		uxtb	r2, r2
 1086 02b2 02F00F02 		and	r2, r2, #15
 1087 02b6 D1B2     		uxtb	r1, r2
 1088 02b8 0A4A     		ldr	r2, .L76+16
 1089 02ba 1344     		add	r3, r3, r2
 1090 02bc 0A46     		mov	r2, r1
 1091 02be 9A70     		strb	r2, [r3, #2]
 260:.\Protocolo.c **** 				for(x=0;x<=5;x++){
 1092              		.loc 1 260 0 discriminator 3
 1093 02c0 FB7B     		ldrb	r3, [r7, #15]	@ zero_extendqisi2
 1094 02c2 0133     		adds	r3, r3, #1
 1095 02c4 FB73     		strb	r3, [r7, #15]
 1096              	.L70:
 260:.\Protocolo.c **** 				for(x=0;x<=5;x++){
 1097              		.loc 1 260 0 is_stmt 0 discriminator 1
 1098 02c6 FB7B     		ldrb	r3, [r7, #15]	@ zero_extendqisi2
 1099 02c8 052B     		cmp	r3, #5
 1100 02ca ECD9     		bls	.L71
 262:.\Protocolo.c **** 				}
 263:.\Protocolo.c **** 				for(x=0;x<=7;x++){
 1101              		.loc 1 263 0 is_stmt 1
 1102 02cc 0023     		movs	r3, #0
 1103 02ce FB73     		strb	r3, [r7, #15]
 1104 02d0 1AE0     		b	.L72
 1105              	.L77:
 1106 02d2 00BF     		.align	2
 1107              	.L76:
 1108 02d4 00000000 		.word	version
 1109 02d8 00000000 		.word	Surtidor_rxBuffer
 1110 02dc 00000000 		.word	lado1
 1111 02e0 00000000 		.word	rventa1
 1112 02e4 00000000 		.word	rventa2
ARM GAS  C:\Users\IN-002~1\AppData\Local\Temp\cchaWHVS.s 			page 26


 1113              	.L73:
 264:.\Protocolo.c **** 					rventa2.volumen[x]=(Surtidor_rxBuffer[x+19]&0x0F);
 1114              		.loc 1 264 0 discriminator 3
 1115 02e8 FB7B     		ldrb	r3, [r7, #15]	@ zero_extendqisi2
 1116 02ea FA7B     		ldrb	r2, [r7, #15]	@ zero_extendqisi2
 1117 02ec 1332     		adds	r2, r2, #19
 1118 02ee 1749     		ldr	r1, .L78
 1119 02f0 8A5C     		ldrb	r2, [r1, r2]
 1120 02f2 D2B2     		uxtb	r2, r2
 1121 02f4 02F00F02 		and	r2, r2, #15
 1122 02f8 D1B2     		uxtb	r1, r2
 1123 02fa 154A     		ldr	r2, .L78+4
 1124 02fc 1344     		add	r3, r3, r2
 1125 02fe 0A46     		mov	r2, r1
 1126 0300 1A74     		strb	r2, [r3, #16]
 263:.\Protocolo.c **** 					rventa2.volumen[x]=(Surtidor_rxBuffer[x+19]&0x0F);
 1127              		.loc 1 263 0 discriminator 3
 1128 0302 FB7B     		ldrb	r3, [r7, #15]	@ zero_extendqisi2
 1129 0304 0133     		adds	r3, r3, #1
 1130 0306 FB73     		strb	r3, [r7, #15]
 1131              	.L72:
 263:.\Protocolo.c **** 					rventa2.volumen[x]=(Surtidor_rxBuffer[x+19]&0x0F);
 1132              		.loc 1 263 0 is_stmt 0 discriminator 1
 1133 0308 FB7B     		ldrb	r3, [r7, #15]	@ zero_extendqisi2
 1134 030a 072B     		cmp	r3, #7
 1135 030c ECD9     		bls	.L73
 265:.\Protocolo.c **** 				}			
 266:.\Protocolo.c **** 				for(x=0;x<=7;x++){
 1136              		.loc 1 266 0 is_stmt 1
 1137 030e 0023     		movs	r3, #0
 1138 0310 FB73     		strb	r3, [r7, #15]
 1139 0312 0FE0     		b	.L74
 1140              	.L75:
 267:.\Protocolo.c **** 					rventa2.dinero[x]=(Surtidor_rxBuffer[x+28]&0x0F);
 1141              		.loc 1 267 0 discriminator 3
 1142 0314 FB7B     		ldrb	r3, [r7, #15]	@ zero_extendqisi2
 1143 0316 FA7B     		ldrb	r2, [r7, #15]	@ zero_extendqisi2
 1144 0318 1C32     		adds	r2, r2, #28
 1145 031a 0C49     		ldr	r1, .L78
 1146 031c 8A5C     		ldrb	r2, [r1, r2]
 1147 031e D2B2     		uxtb	r2, r2
 1148 0320 02F00F02 		and	r2, r2, #15
 1149 0324 D1B2     		uxtb	r1, r2
 1150 0326 0A4A     		ldr	r2, .L78+4
 1151 0328 1344     		add	r3, r3, r2
 1152 032a 0A46     		mov	r2, r1
 1153 032c DA71     		strb	r2, [r3, #7]
 266:.\Protocolo.c **** 					rventa2.dinero[x]=(Surtidor_rxBuffer[x+28]&0x0F);
 1154              		.loc 1 266 0 discriminator 3
 1155 032e FB7B     		ldrb	r3, [r7, #15]	@ zero_extendqisi2
 1156 0330 0133     		adds	r3, r3, #1
 1157 0332 FB73     		strb	r3, [r7, #15]
 1158              	.L74:
 266:.\Protocolo.c **** 					rventa2.dinero[x]=(Surtidor_rxBuffer[x+28]&0x0F);
 1159              		.loc 1 266 0 is_stmt 0 discriminator 1
 1160 0334 FB7B     		ldrb	r3, [r7, #15]	@ zero_extendqisi2
 1161 0336 072B     		cmp	r3, #7
ARM GAS  C:\Users\IN-002~1\AppData\Local\Temp\cchaWHVS.s 			page 27


 1162 0338 ECD9     		bls	.L75
 1163              	.L69:
 268:.\Protocolo.c **** 				}			
 269:.\Protocolo.c **** 			}
 270:.\Protocolo.c **** 			return 1;
 1164              		.loc 1 270 0 is_stmt 1
 1165 033a 0123     		movs	r3, #1
 1166 033c 02E0     		b	.L59
 1167              	.L61:
 271:.\Protocolo.c **** 		}
 272:.\Protocolo.c **** 		else{
 273:.\Protocolo.c **** 			return 0;
 1168              		.loc 1 273 0
 1169 033e 0023     		movs	r3, #0
 1170 0340 00E0     		b	.L59
 1171              	.L60:
 274:.\Protocolo.c **** 		}
 275:.\Protocolo.c **** 	}
 276:.\Protocolo.c **** 	return 0;
 1172              		.loc 1 276 0
 1173 0342 0023     		movs	r3, #0
 1174              	.L59:
 277:.\Protocolo.c **** }
 1175              		.loc 1 277 0
 1176 0344 1846     		mov	r0, r3
 1177 0346 1037     		adds	r7, r7, #16
 1178              		.cfi_def_cfa_offset 8
 1179 0348 BD46     		mov	sp, r7
 1180              		.cfi_def_cfa_register 13
 1181              		@ sp needed
 1182 034a 80BD     		pop	{r7, pc}
 1183              	.L79:
 1184              		.align	2
 1185              	.L78:
 1186 034c 00000000 		.word	Surtidor_rxBuffer
 1187 0350 00000000 		.word	rventa2
 1188              		.cfi_endproc
 1189              	.LFE68:
 1190              		.size	venta, .-venta
 1191              		.section	.text.programar,"ax",%progbits
 1192              		.align	2
 1193              		.global	programar
 1194              		.thumb
 1195              		.thumb_func
 1196              		.type	programar, %function
 1197              	programar:
 1198              	.LFB69:
 278:.\Protocolo.c **** 
 279:.\Protocolo.c **** /**
 280:.\Protocolo.c **** * programar
 281:.\Protocolo.c **** * @brief Envía el preset al equipo según lo que se programe en las pantallas
 282:.\Protocolo.c **** * @param dir posición del surtidor
 283:.\Protocolo.c **** * @param grado manguera del equipo
 284:.\Protocolo.c **** * @param *valor valor del preset a enviar
 285:.\Protocolo.c **** * @param preset tipo de preset 1,2,3
 286:.\Protocolo.c **** * @return 0 si hay error, 1 si se realiza el preset al equipo
 287:.\Protocolo.c **** *
ARM GAS  C:\Users\IN-002~1\AppData\Local\Temp\cchaWHVS.s 			page 28


 288:.\Protocolo.c **** */
 289:.\Protocolo.c **** uint8 programar(uint8 dir, uint8 grado, uint8 *valor, uint8 preset){
 1199              		.loc 1 289 0
 1200              		.cfi_startproc
 1201              		@ args = 0, pretend = 0, frame = 32
 1202              		@ frame_needed = 1, uses_anonymous_args = 0
 1203 0000 80B5     		push	{r7, lr}
 1204              		.cfi_def_cfa_offset 8
 1205              		.cfi_offset 7, -8
 1206              		.cfi_offset 14, -4
 1207 0002 88B0     		sub	sp, sp, #32
 1208              		.cfi_def_cfa_offset 40
 1209 0004 00AF     		add	r7, sp, #0
 1210              		.cfi_def_cfa_register 7
 1211 0006 3A60     		str	r2, [r7]
 1212 0008 1A46     		mov	r2, r3
 1213 000a 0346     		mov	r3, r0
 1214 000c FB71     		strb	r3, [r7, #7]
 1215 000e 0B46     		mov	r3, r1
 1216 0010 BB71     		strb	r3, [r7, #6]
 1217 0012 1346     		mov	r3, r2
 1218 0014 7B71     		strb	r3, [r7, #5]
 290:.\Protocolo.c **** 	uint8 buffer[18]={0,0,0,0,0,0,0,0,0,0,0,0,0,0,0,0,0,0},size,temp,i,decimal;
 1219              		.loc 1 290 0
 1220 0016 07F10803 		add	r3, r7, #8
 1221 001a 0022     		movs	r2, #0
 1222 001c 1A60     		str	r2, [r3]
 1223 001e 0433     		adds	r3, r3, #4
 1224 0020 0022     		movs	r2, #0
 1225 0022 1A60     		str	r2, [r3]
 1226 0024 0433     		adds	r3, r3, #4
 1227 0026 0022     		movs	r2, #0
 1228 0028 1A60     		str	r2, [r3]
 1229 002a 0433     		adds	r3, r3, #4
 1230 002c 0022     		movs	r2, #0
 1231 002e 1A60     		str	r2, [r3]
 1232 0030 0433     		adds	r3, r3, #4
 1233 0032 0022     		movs	r2, #0
 1234 0034 1A80     		strh	r2, [r3]	@ movhi
 1235 0036 0233     		adds	r3, r3, #2
 291:.\Protocolo.c **** 	temp=4;
 1236              		.loc 1 291 0
 1237 0038 0423     		movs	r3, #4
 1238 003a BB77     		strb	r3, [r7, #30]
 292:.\Protocolo.c **** 	if(preset==3){
 1239              		.loc 1 292 0
 1240 003c 7B79     		ldrb	r3, [r7, #5]	@ zero_extendqisi2
 1241 003e 032B     		cmp	r3, #3
 1242 0040 01D1     		bne	.L81
 293:.\Protocolo.c **** 		preset=2;
 1243              		.loc 1 293 0
 1244 0042 0223     		movs	r3, #2
 1245 0044 7B71     		strb	r3, [r7, #5]
 1246              	.L81:
 294:.\Protocolo.c **** 	}
 295:.\Protocolo.c **** 	if(((version[1]==5)||(version[1]==6))&&(preset==1)){
 1247              		.loc 1 295 0
ARM GAS  C:\Users\IN-002~1\AppData\Local\Temp\cchaWHVS.s 			page 29


 1248 0046 B34B     		ldr	r3, .L124
 1249 0048 5B78     		ldrb	r3, [r3, #1]
 1250 004a DBB2     		uxtb	r3, r3
 1251 004c 052B     		cmp	r3, #5
 1252 004e 04D0     		beq	.L82
 1253              		.loc 1 295 0 is_stmt 0 discriminator 2
 1254 0050 B04B     		ldr	r3, .L124
 1255 0052 5B78     		ldrb	r3, [r3, #1]
 1256 0054 DBB2     		uxtb	r3, r3
 1257 0056 062B     		cmp	r3, #6
 1258 0058 04D1     		bne	.L83
 1259              	.L82:
 1260              		.loc 1 295 0 discriminator 3
 1261 005a 7B79     		ldrb	r3, [r7, #5]	@ zero_extendqisi2
 1262 005c 012B     		cmp	r3, #1
 1263 005e 01D1     		bne	.L83
 296:.\Protocolo.c **** 		temp=3;
 1264              		.loc 1 296 0 is_stmt 1
 1265 0060 0323     		movs	r3, #3
 1266 0062 BB77     		strb	r3, [r7, #30]
 1267              	.L83:
 297:.\Protocolo.c **** 	}
 298:.\Protocolo.c **** 	if((version[1]==5)&&(preset==2)){
 1268              		.loc 1 298 0
 1269 0064 AB4B     		ldr	r3, .L124
 1270 0066 5B78     		ldrb	r3, [r3, #1]
 1271 0068 DBB2     		uxtb	r3, r3
 1272 006a 052B     		cmp	r3, #5
 1273 006c 04D1     		bne	.L84
 1274              		.loc 1 298 0 is_stmt 0 discriminator 1
 1275 006e 7B79     		ldrb	r3, [r7, #5]	@ zero_extendqisi2
 1276 0070 022B     		cmp	r3, #2
 1277 0072 01D1     		bne	.L84
 299:.\Protocolo.c **** 		temp=5;
 1278              		.loc 1 299 0 is_stmt 1
 1279 0074 0523     		movs	r3, #5
 1280 0076 BB77     		strb	r3, [r7, #30]
 1281              	.L84:
 300:.\Protocolo.c **** 	}
 301:.\Protocolo.c **** 	if((version[1]==7)&&(preset==1)){
 1282              		.loc 1 301 0
 1283 0078 A64B     		ldr	r3, .L124
 1284 007a 5B78     		ldrb	r3, [r3, #1]
 1285 007c DBB2     		uxtb	r3, r3
 1286 007e 072B     		cmp	r3, #7
 1287 0080 04D1     		bne	.L85
 1288              		.loc 1 301 0 is_stmt 0 discriminator 1
 1289 0082 7B79     		ldrb	r3, [r7, #5]	@ zero_extendqisi2
 1290 0084 012B     		cmp	r3, #1
 1291 0086 01D1     		bne	.L85
 302:.\Protocolo.c **** 		temp=0;
 1292              		.loc 1 302 0 is_stmt 1
 1293 0088 0023     		movs	r3, #0
 1294 008a BB77     		strb	r3, [r7, #30]
 1295              	.L85:
 303:.\Protocolo.c **** 	}
 304:.\Protocolo.c **** 	if((version[1]==7)&&(preset==2)){
ARM GAS  C:\Users\IN-002~1\AppData\Local\Temp\cchaWHVS.s 			page 30


 1296              		.loc 1 304 0
 1297 008c A14B     		ldr	r3, .L124
 1298 008e 5B78     		ldrb	r3, [r3, #1]
 1299 0090 DBB2     		uxtb	r3, r3
 1300 0092 072B     		cmp	r3, #7
 1301 0094 04D1     		bne	.L86
 1302              		.loc 1 304 0 is_stmt 0 discriminator 1
 1303 0096 7B79     		ldrb	r3, [r7, #5]	@ zero_extendqisi2
 1304 0098 022B     		cmp	r3, #2
 1305 009a 01D1     		bne	.L86
 305:.\Protocolo.c **** 		temp=2;
 1306              		.loc 1 305 0 is_stmt 1
 1307 009c 0223     		movs	r3, #2
 1308 009e BB77     		strb	r3, [r7, #30]
 1309              	.L86:
 306:.\Protocolo.c **** 	}	
 307:.\Protocolo.c **** 	decimal=0;
 1310              		.loc 1 307 0
 1311 00a0 0023     		movs	r3, #0
 1312 00a2 3B77     		strb	r3, [r7, #28]
 308:.\Protocolo.c **** 	for(i=1;i<=7;i++){
 1313              		.loc 1 308 0
 1314 00a4 0123     		movs	r3, #1
 1315 00a6 7B77     		strb	r3, [r7, #29]
 1316 00a8 0AE0     		b	.L87
 1317              	.L89:
 309:.\Protocolo.c **** 		if(valor[i]==','){
 1318              		.loc 1 309 0
 1319 00aa 7B7F     		ldrb	r3, [r7, #29]	@ zero_extendqisi2
 1320 00ac 3A68     		ldr	r2, [r7]
 1321 00ae 1344     		add	r3, r3, r2
 1322 00b0 1B78     		ldrb	r3, [r3]	@ zero_extendqisi2
 1323 00b2 2C2B     		cmp	r3, #44
 1324 00b4 01D1     		bne	.L88
 310:.\Protocolo.c **** 			decimal=i;	
 1325              		.loc 1 310 0
 1326 00b6 7B7F     		ldrb	r3, [r7, #29]
 1327 00b8 3B77     		strb	r3, [r7, #28]
 1328              	.L88:
 308:.\Protocolo.c **** 	for(i=1;i<=7;i++){
 1329              		.loc 1 308 0 discriminator 2
 1330 00ba 7B7F     		ldrb	r3, [r7, #29]	@ zero_extendqisi2
 1331 00bc 0133     		adds	r3, r3, #1
 1332 00be 7B77     		strb	r3, [r7, #29]
 1333              	.L87:
 308:.\Protocolo.c **** 	for(i=1;i<=7;i++){
 1334              		.loc 1 308 0 is_stmt 0 discriminator 1
 1335 00c0 7B7F     		ldrb	r3, [r7, #29]	@ zero_extendqisi2
 1336 00c2 072B     		cmp	r3, #7
 1337 00c4 F1D9     		bls	.L89
 311:.\Protocolo.c **** 		}
 312:.\Protocolo.c **** 	}
 313:.\Protocolo.c **** 	if(decimal>4){
 1338              		.loc 1 313 0 is_stmt 1
 1339 00c6 3B7F     		ldrb	r3, [r7, #28]	@ zero_extendqisi2
 1340 00c8 042B     		cmp	r3, #4
 1341 00ca 01D9     		bls	.L90
ARM GAS  C:\Users\IN-002~1\AppData\Local\Temp\cchaWHVS.s 			page 31


 314:.\Protocolo.c **** 		return 0;
 1342              		.loc 1 314 0
 1343 00cc 0023     		movs	r3, #0
 1344 00ce CFE3     		b	.L123
 1345              	.L90:
 315:.\Protocolo.c **** 	}
 316:.\Protocolo.c **** 	if(version[1]!=7){		
 1346              		.loc 1 316 0
 1347 00d0 904B     		ldr	r3, .L124
 1348 00d2 5B78     		ldrb	r3, [r3, #1]
 1349 00d4 DBB2     		uxtb	r3, r3
 1350 00d6 072B     		cmp	r3, #7
 1351 00d8 00F00582 		beq	.L92
 317:.\Protocolo.c **** 		buffer[0]=0xFF;
 1352              		.loc 1 317 0
 1353 00dc FF23     		movs	r3, #255
 1354 00de 3B72     		strb	r3, [r7, #8]
 318:.\Protocolo.c **** 		buffer[1]=(0xE0|temp);
 1355              		.loc 1 318 0
 1356 00e0 BB7F     		ldrb	r3, [r7, #30]
 1357 00e2 63F01F03 		orn	r3, r3, #31
 1358 00e6 DBB2     		uxtb	r3, r3
 1359 00e8 7B72     		strb	r3, [r7, #9]
 319:.\Protocolo.c **** 		buffer[2]=(0xF0|preset);
 1360              		.loc 1 319 0
 1361 00ea 7B79     		ldrb	r3, [r7, #5]
 1362 00ec 63F00F03 		orn	r3, r3, #15
 1363 00f0 DBB2     		uxtb	r3, r3
 1364 00f2 BB72     		strb	r3, [r7, #10]
 320:.\Protocolo.c **** 		buffer[3]=0xF4;
 1365              		.loc 1 320 0
 1366 00f4 F423     		movs	r3, #244
 1367 00f6 FB72     		strb	r3, [r7, #11]
 321:.\Protocolo.c **** 		buffer[4]=0xF8;	
 1368              		.loc 1 321 0
 1369 00f8 F823     		movs	r3, #248
 1370 00fa 3B73     		strb	r3, [r7, #12]
 322:.\Protocolo.c **** 		buffer[5]=(valor[1]|0xE0);
 1371              		.loc 1 322 0
 1372 00fc 3B68     		ldr	r3, [r7]
 1373 00fe 0133     		adds	r3, r3, #1
 1374 0100 1B78     		ldrb	r3, [r3]	@ zero_extendqisi2
 1375 0102 63F01F03 		orn	r3, r3, #31
 1376 0106 DBB2     		uxtb	r3, r3
 1377 0108 7B73     		strb	r3, [r7, #13]
 323:.\Protocolo.c **** 		buffer[6]=(valor[2]|0xE0);
 1378              		.loc 1 323 0
 1379 010a 3B68     		ldr	r3, [r7]
 1380 010c 0233     		adds	r3, r3, #2
 1381 010e 1B78     		ldrb	r3, [r3]	@ zero_extendqisi2
 1382 0110 63F01F03 		orn	r3, r3, #31
 1383 0114 DBB2     		uxtb	r3, r3
 1384 0116 BB73     		strb	r3, [r7, #14]
 324:.\Protocolo.c **** 		buffer[7]=(valor[3]|0xE0);
 1385              		.loc 1 324 0
 1386 0118 3B68     		ldr	r3, [r7]
 1387 011a 0333     		adds	r3, r3, #3
ARM GAS  C:\Users\IN-002~1\AppData\Local\Temp\cchaWHVS.s 			page 32


 1388 011c 1B78     		ldrb	r3, [r3]	@ zero_extendqisi2
 1389 011e 63F01F03 		orn	r3, r3, #31
 1390 0122 DBB2     		uxtb	r3, r3
 1391 0124 FB73     		strb	r3, [r7, #15]
 325:.\Protocolo.c **** 		buffer[8]=(valor[4]|0xE0);
 1392              		.loc 1 325 0
 1393 0126 3B68     		ldr	r3, [r7]
 1394 0128 0433     		adds	r3, r3, #4
 1395 012a 1B78     		ldrb	r3, [r3]	@ zero_extendqisi2
 1396 012c 63F01F03 		orn	r3, r3, #31
 1397 0130 DBB2     		uxtb	r3, r3
 1398 0132 3B74     		strb	r3, [r7, #16]
 326:.\Protocolo.c **** 		buffer[9]=(valor[5]|0xE0);
 1399              		.loc 1 326 0
 1400 0134 3B68     		ldr	r3, [r7]
 1401 0136 0533     		adds	r3, r3, #5
 1402 0138 1B78     		ldrb	r3, [r3]	@ zero_extendqisi2
 1403 013a 63F01F03 		orn	r3, r3, #31
 1404 013e DBB2     		uxtb	r3, r3
 1405 0140 7B74     		strb	r3, [r7, #17]
 327:.\Protocolo.c **** 		buffer[10]=(valor[6]|0xE0);
 1406              		.loc 1 327 0
 1407 0142 3B68     		ldr	r3, [r7]
 1408 0144 0633     		adds	r3, r3, #6
 1409 0146 1B78     		ldrb	r3, [r3]	@ zero_extendqisi2
 1410 0148 63F01F03 		orn	r3, r3, #31
 1411 014c DBB2     		uxtb	r3, r3
 1412 014e BB74     		strb	r3, [r7, #18]
 328:.\Protocolo.c **** 		if(version[2]==2){
 1413              		.loc 1 328 0
 1414 0150 704B     		ldr	r3, .L124
 1415 0152 9B78     		ldrb	r3, [r3, #2]
 1416 0154 DBB2     		uxtb	r3, r3
 1417 0156 022B     		cmp	r3, #2
 1418 0158 40F0A580 		bne	.L93
 329:.\Protocolo.c **** 			if(decimal==4){
 1419              		.loc 1 329 0
 1420 015c 3B7F     		ldrb	r3, [r7, #28]	@ zero_extendqisi2
 1421 015e 042B     		cmp	r3, #4
 1422 0160 29D1     		bne	.L94
 330:.\Protocolo.c **** 				buffer[5]=(valor[2]|0xE0);
 1423              		.loc 1 330 0
 1424 0162 3B68     		ldr	r3, [r7]
 1425 0164 0233     		adds	r3, r3, #2
 1426 0166 1B78     		ldrb	r3, [r3]	@ zero_extendqisi2
 1427 0168 63F01F03 		orn	r3, r3, #31
 1428 016c DBB2     		uxtb	r3, r3
 1429 016e 7B73     		strb	r3, [r7, #13]
 331:.\Protocolo.c **** 				buffer[6]=(valor[3]|0xE0);
 1430              		.loc 1 331 0
 1431 0170 3B68     		ldr	r3, [r7]
 1432 0172 0333     		adds	r3, r3, #3
 1433 0174 1B78     		ldrb	r3, [r3]	@ zero_extendqisi2
 1434 0176 63F01F03 		orn	r3, r3, #31
 1435 017a DBB2     		uxtb	r3, r3
 1436 017c BB73     		strb	r3, [r7, #14]
 332:.\Protocolo.c **** 				buffer[7]=(valor[5]|0xE0);
ARM GAS  C:\Users\IN-002~1\AppData\Local\Temp\cchaWHVS.s 			page 33


 1437              		.loc 1 332 0
 1438 017e 3B68     		ldr	r3, [r7]
 1439 0180 0533     		adds	r3, r3, #5
 1440 0182 1B78     		ldrb	r3, [r3]	@ zero_extendqisi2
 1441 0184 63F01F03 		orn	r3, r3, #31
 1442 0188 DBB2     		uxtb	r3, r3
 1443 018a FB73     		strb	r3, [r7, #15]
 333:.\Protocolo.c **** 				buffer[8]=(valor[6]|0xE0);
 1444              		.loc 1 333 0
 1445 018c 3B68     		ldr	r3, [r7]
 1446 018e 0633     		adds	r3, r3, #6
 1447 0190 1B78     		ldrb	r3, [r3]	@ zero_extendqisi2
 1448 0192 63F01F03 		orn	r3, r3, #31
 1449 0196 DBB2     		uxtb	r3, r3
 1450 0198 3B74     		strb	r3, [r7, #16]
 334:.\Protocolo.c **** 				buffer[9]=(valor[7]|0xE0);
 1451              		.loc 1 334 0
 1452 019a 3B68     		ldr	r3, [r7]
 1453 019c 0733     		adds	r3, r3, #7
 1454 019e 1B78     		ldrb	r3, [r3]	@ zero_extendqisi2
 1455 01a0 63F01F03 		orn	r3, r3, #31
 1456 01a4 DBB2     		uxtb	r3, r3
 1457 01a6 7B74     		strb	r3, [r7, #17]
 335:.\Protocolo.c **** 				buffer[10]=(valor[8]|0xE0);
 1458              		.loc 1 335 0
 1459 01a8 3B68     		ldr	r3, [r7]
 1460 01aa 0833     		adds	r3, r3, #8
 1461 01ac 1B78     		ldrb	r3, [r3]	@ zero_extendqisi2
 1462 01ae 63F01F03 		orn	r3, r3, #31
 1463 01b2 DBB2     		uxtb	r3, r3
 1464 01b4 BB74     		strb	r3, [r7, #18]
 1465              	.L94:
 336:.\Protocolo.c **** 			}
 337:.\Protocolo.c **** 			if(decimal==3){
 1466              		.loc 1 337 0
 1467 01b6 3B7F     		ldrb	r3, [r7, #28]	@ zero_extendqisi2
 1468 01b8 032B     		cmp	r3, #3
 1469 01ba 29D1     		bne	.L95
 338:.\Protocolo.c **** 				buffer[5]=(valor[1]|0xE0);
 1470              		.loc 1 338 0
 1471 01bc 3B68     		ldr	r3, [r7]
 1472 01be 0133     		adds	r3, r3, #1
 1473 01c0 1B78     		ldrb	r3, [r3]	@ zero_extendqisi2
 1474 01c2 63F01F03 		orn	r3, r3, #31
 1475 01c6 DBB2     		uxtb	r3, r3
 1476 01c8 7B73     		strb	r3, [r7, #13]
 339:.\Protocolo.c **** 				buffer[6]=(valor[2]|0xE0);
 1477              		.loc 1 339 0
 1478 01ca 3B68     		ldr	r3, [r7]
 1479 01cc 0233     		adds	r3, r3, #2
 1480 01ce 1B78     		ldrb	r3, [r3]	@ zero_extendqisi2
 1481 01d0 63F01F03 		orn	r3, r3, #31
 1482 01d4 DBB2     		uxtb	r3, r3
 1483 01d6 BB73     		strb	r3, [r7, #14]
 340:.\Protocolo.c **** 				buffer[7]=(valor[4]|0xE0);
 1484              		.loc 1 340 0
 1485 01d8 3B68     		ldr	r3, [r7]
ARM GAS  C:\Users\IN-002~1\AppData\Local\Temp\cchaWHVS.s 			page 34


 1486 01da 0433     		adds	r3, r3, #4
 1487 01dc 1B78     		ldrb	r3, [r3]	@ zero_extendqisi2
 1488 01de 63F01F03 		orn	r3, r3, #31
 1489 01e2 DBB2     		uxtb	r3, r3
 1490 01e4 FB73     		strb	r3, [r7, #15]
 341:.\Protocolo.c **** 				buffer[8]=(valor[5]|0xE0);
 1491              		.loc 1 341 0
 1492 01e6 3B68     		ldr	r3, [r7]
 1493 01e8 0533     		adds	r3, r3, #5
 1494 01ea 1B78     		ldrb	r3, [r3]	@ zero_extendqisi2
 1495 01ec 63F01F03 		orn	r3, r3, #31
 1496 01f0 DBB2     		uxtb	r3, r3
 1497 01f2 3B74     		strb	r3, [r7, #16]
 342:.\Protocolo.c **** 				buffer[9]=(valor[6]|0xE0);
 1498              		.loc 1 342 0
 1499 01f4 3B68     		ldr	r3, [r7]
 1500 01f6 0633     		adds	r3, r3, #6
 1501 01f8 1B78     		ldrb	r3, [r3]	@ zero_extendqisi2
 1502 01fa 63F01F03 		orn	r3, r3, #31
 1503 01fe DBB2     		uxtb	r3, r3
 1504 0200 7B74     		strb	r3, [r7, #17]
 343:.\Protocolo.c **** 				buffer[10]=(valor[7]|0xE0);
 1505              		.loc 1 343 0
 1506 0202 3B68     		ldr	r3, [r7]
 1507 0204 0733     		adds	r3, r3, #7
 1508 0206 1B78     		ldrb	r3, [r3]	@ zero_extendqisi2
 1509 0208 63F01F03 		orn	r3, r3, #31
 1510 020c DBB2     		uxtb	r3, r3
 1511 020e BB74     		strb	r3, [r7, #18]
 1512              	.L95:
 344:.\Protocolo.c **** 			}
 345:.\Protocolo.c **** 			if(decimal==2){
 1513              		.loc 1 345 0
 1514 0210 3B7F     		ldrb	r3, [r7, #28]	@ zero_extendqisi2
 1515 0212 022B     		cmp	r3, #2
 1516 0214 24D1     		bne	.L96
 346:.\Protocolo.c **** 				buffer[5]=0xE0;
 1517              		.loc 1 346 0
 1518 0216 E023     		movs	r3, #224
 1519 0218 7B73     		strb	r3, [r7, #13]
 347:.\Protocolo.c **** 				buffer[6]=(valor[1]|0xE0);
 1520              		.loc 1 347 0
 1521 021a 3B68     		ldr	r3, [r7]
 1522 021c 0133     		adds	r3, r3, #1
 1523 021e 1B78     		ldrb	r3, [r3]	@ zero_extendqisi2
 1524 0220 63F01F03 		orn	r3, r3, #31
 1525 0224 DBB2     		uxtb	r3, r3
 1526 0226 BB73     		strb	r3, [r7, #14]
 348:.\Protocolo.c **** 				buffer[7]=(valor[3]|0xE0);
 1527              		.loc 1 348 0
 1528 0228 3B68     		ldr	r3, [r7]
 1529 022a 0333     		adds	r3, r3, #3
 1530 022c 1B78     		ldrb	r3, [r3]	@ zero_extendqisi2
 1531 022e 63F01F03 		orn	r3, r3, #31
 1532 0232 DBB2     		uxtb	r3, r3
 1533 0234 FB73     		strb	r3, [r7, #15]
 349:.\Protocolo.c **** 				buffer[8]=(valor[4]|0xE0);
ARM GAS  C:\Users\IN-002~1\AppData\Local\Temp\cchaWHVS.s 			page 35


 1534              		.loc 1 349 0
 1535 0236 3B68     		ldr	r3, [r7]
 1536 0238 0433     		adds	r3, r3, #4
 1537 023a 1B78     		ldrb	r3, [r3]	@ zero_extendqisi2
 1538 023c 63F01F03 		orn	r3, r3, #31
 1539 0240 DBB2     		uxtb	r3, r3
 1540 0242 3B74     		strb	r3, [r7, #16]
 350:.\Protocolo.c **** 				buffer[9]=(valor[5]|0xE0);	
 1541              		.loc 1 350 0
 1542 0244 3B68     		ldr	r3, [r7]
 1543 0246 0533     		adds	r3, r3, #5
 1544 0248 1B78     		ldrb	r3, [r3]	@ zero_extendqisi2
 1545 024a 63F01F03 		orn	r3, r3, #31
 1546 024e DBB2     		uxtb	r3, r3
 1547 0250 7B74     		strb	r3, [r7, #17]
 351:.\Protocolo.c **** 				buffer[10]=(valor[6]|0xE0);
 1548              		.loc 1 351 0
 1549 0252 3B68     		ldr	r3, [r7]
 1550 0254 0633     		adds	r3, r3, #6
 1551 0256 1B78     		ldrb	r3, [r3]	@ zero_extendqisi2
 1552 0258 63F01F03 		orn	r3, r3, #31
 1553 025c DBB2     		uxtb	r3, r3
 1554 025e BB74     		strb	r3, [r7, #18]
 1555              	.L96:
 352:.\Protocolo.c **** 			}
 353:.\Protocolo.c **** 			if(decimal==0){
 1556              		.loc 1 353 0
 1557 0260 3B7F     		ldrb	r3, [r7, #28]	@ zero_extendqisi2
 1558 0262 002B     		cmp	r3, #0
 1559 0264 1FD1     		bne	.L93
 354:.\Protocolo.c **** 				buffer[5]=0xE0;
 1560              		.loc 1 354 0
 1561 0266 E023     		movs	r3, #224
 1562 0268 7B73     		strb	r3, [r7, #13]
 355:.\Protocolo.c **** 				buffer[6]=0xE0;
 1563              		.loc 1 355 0
 1564 026a E023     		movs	r3, #224
 1565 026c BB73     		strb	r3, [r7, #14]
 356:.\Protocolo.c **** 				buffer[7]=(valor[1]|0xE0);
 1566              		.loc 1 356 0
 1567 026e 3B68     		ldr	r3, [r7]
 1568 0270 0133     		adds	r3, r3, #1
 1569 0272 1B78     		ldrb	r3, [r3]	@ zero_extendqisi2
 1570 0274 63F01F03 		orn	r3, r3, #31
 1571 0278 DBB2     		uxtb	r3, r3
 1572 027a FB73     		strb	r3, [r7, #15]
 357:.\Protocolo.c **** 				buffer[8]=(valor[2]|0xE0);
 1573              		.loc 1 357 0
 1574 027c 3B68     		ldr	r3, [r7]
 1575 027e 0233     		adds	r3, r3, #2
 1576 0280 1B78     		ldrb	r3, [r3]	@ zero_extendqisi2
 1577 0282 63F01F03 		orn	r3, r3, #31
 1578 0286 DBB2     		uxtb	r3, r3
 1579 0288 3B74     		strb	r3, [r7, #16]
 358:.\Protocolo.c **** 				buffer[9]=(valor[3]|0xE0);
 1580              		.loc 1 358 0
 1581 028a 3B68     		ldr	r3, [r7]
ARM GAS  C:\Users\IN-002~1\AppData\Local\Temp\cchaWHVS.s 			page 36


 1582 028c 0333     		adds	r3, r3, #3
 1583 028e 1B78     		ldrb	r3, [r3]	@ zero_extendqisi2
 1584 0290 63F01F03 		orn	r3, r3, #31
 1585 0294 DBB2     		uxtb	r3, r3
 1586 0296 7B74     		strb	r3, [r7, #17]
 359:.\Protocolo.c **** 				buffer[10]=(valor[4]|0xE0);
 1587              		.loc 1 359 0
 1588 0298 3B68     		ldr	r3, [r7]
 1589 029a 0433     		adds	r3, r3, #4
 1590 029c 1B78     		ldrb	r3, [r3]	@ zero_extendqisi2
 1591 029e 63F01F03 		orn	r3, r3, #31
 1592 02a2 DBB2     		uxtb	r3, r3
 1593 02a4 BB74     		strb	r3, [r7, #18]
 1594              	.L93:
 360:.\Protocolo.c **** 			}			
 361:.\Protocolo.c **** 		}
 362:.\Protocolo.c **** 		buffer[11]=0xFB;
 1595              		.loc 1 362 0
 1596 02a6 FB23     		movs	r3, #251
 1597 02a8 FB74     		strb	r3, [r7, #19]
 363:.\Protocolo.c **** 		buffer[12]=0;
 1598              		.loc 1 363 0
 1599 02aa 0023     		movs	r3, #0
 1600 02ac 3B75     		strb	r3, [r7, #20]
 364:.\Protocolo.c **** 		for(i=0;i<=11;i++){
 1601              		.loc 1 364 0
 1602 02ae 0023     		movs	r3, #0
 1603 02b0 7B77     		strb	r3, [r7, #29]
 1604 02b2 0FE0     		b	.L97
 1605              	.L98:
 365:.\Protocolo.c **** 			buffer[12]+=(buffer[i]&0x0F);	
 1606              		.loc 1 365 0 discriminator 3
 1607 02b4 3A7D     		ldrb	r2, [r7, #20]	@ zero_extendqisi2
 1608 02b6 7B7F     		ldrb	r3, [r7, #29]	@ zero_extendqisi2
 1609 02b8 07F12001 		add	r1, r7, #32
 1610 02bc 0B44     		add	r3, r3, r1
 1611 02be 13F8183C 		ldrb	r3, [r3, #-24]	@ zero_extendqisi2
 1612 02c2 03F00F03 		and	r3, r3, #15
 1613 02c6 DBB2     		uxtb	r3, r3
 1614 02c8 1344     		add	r3, r3, r2
 1615 02ca DBB2     		uxtb	r3, r3
 1616 02cc 3B75     		strb	r3, [r7, #20]
 364:.\Protocolo.c **** 		for(i=0;i<=11;i++){
 1617              		.loc 1 364 0 discriminator 3
 1618 02ce 7B7F     		ldrb	r3, [r7, #29]	@ zero_extendqisi2
 1619 02d0 0133     		adds	r3, r3, #1
 1620 02d2 7B77     		strb	r3, [r7, #29]
 1621              	.L97:
 364:.\Protocolo.c **** 		for(i=0;i<=11;i++){
 1622              		.loc 1 364 0 is_stmt 0 discriminator 1
 1623 02d4 7B7F     		ldrb	r3, [r7, #29]	@ zero_extendqisi2
 1624 02d6 0B2B     		cmp	r3, #11
 1625 02d8 ECD9     		bls	.L98
 366:.\Protocolo.c **** 		}
 367:.\Protocolo.c **** 		buffer[12]=(((~buffer[12])+1)&0x0F)|0xE0;
 1626              		.loc 1 367 0 is_stmt 1
 1627 02da 3B7D     		ldrb	r3, [r7, #20]	@ zero_extendqisi2
ARM GAS  C:\Users\IN-002~1\AppData\Local\Temp\cchaWHVS.s 			page 37


 1628 02dc 5B42     		negs	r3, r3
 1629 02de DBB2     		uxtb	r3, r3
 1630 02e0 DBB2     		uxtb	r3, r3
 1631 02e2 03F00F03 		and	r3, r3, #15
 1632 02e6 DBB2     		uxtb	r3, r3
 1633 02e8 63F01F03 		orn	r3, r3, #31
 1634 02ec DBB2     		uxtb	r3, r3
 1635 02ee DBB2     		uxtb	r3, r3
 1636 02f0 3B75     		strb	r3, [r7, #20]
 368:.\Protocolo.c **** 		buffer[13]=0xF0;
 1637              		.loc 1 368 0
 1638 02f2 F023     		movs	r3, #240
 1639 02f4 7B75     		strb	r3, [r7, #21]
 369:.\Protocolo.c **** 		size=13;
 1640              		.loc 1 369 0
 1641 02f6 0D23     		movs	r3, #13
 1642 02f8 FB77     		strb	r3, [r7, #31]
 370:.\Protocolo.c **** 		if(version[1]==5){
 1643              		.loc 1 370 0
 1644 02fa 064B     		ldr	r3, .L124
 1645 02fc 5B78     		ldrb	r3, [r3, #1]
 1646 02fe DBB2     		uxtb	r3, r3
 1647 0300 052B     		cmp	r3, #5
 1648 0302 2CD1     		bne	.L99
 371:.\Protocolo.c **** 			buffer[10]=0xFB;
 1649              		.loc 1 371 0
 1650 0304 FB23     		movs	r3, #251
 1651 0306 BB74     		strb	r3, [r7, #18]
 372:.\Protocolo.c **** 			buffer[11]=0;
 1652              		.loc 1 372 0
 1653 0308 0023     		movs	r3, #0
 1654 030a FB74     		strb	r3, [r7, #19]
 373:.\Protocolo.c **** 			for(i=0;i<=10;i++){
 1655              		.loc 1 373 0
 1656 030c 0023     		movs	r3, #0
 1657 030e 7B77     		strb	r3, [r7, #29]
 1658 0310 12E0     		b	.L100
 1659              	.L125:
 1660 0312 00BF     		.align	2
 1661              	.L124:
 1662 0314 00000000 		.word	version
 1663              	.L101:
 374:.\Protocolo.c **** 				buffer[11]+=(buffer[i]&0x0F);	
 1664              		.loc 1 374 0 discriminator 3
 1665 0318 FA7C     		ldrb	r2, [r7, #19]	@ zero_extendqisi2
 1666 031a 7B7F     		ldrb	r3, [r7, #29]	@ zero_extendqisi2
 1667 031c 07F12001 		add	r1, r7, #32
 1668 0320 0B44     		add	r3, r3, r1
 1669 0322 13F8183C 		ldrb	r3, [r3, #-24]	@ zero_extendqisi2
 1670 0326 03F00F03 		and	r3, r3, #15
 1671 032a DBB2     		uxtb	r3, r3
 1672 032c 1344     		add	r3, r3, r2
 1673 032e DBB2     		uxtb	r3, r3
 1674 0330 FB74     		strb	r3, [r7, #19]
 373:.\Protocolo.c **** 			for(i=0;i<=10;i++){
 1675              		.loc 1 373 0 discriminator 3
 1676 0332 7B7F     		ldrb	r3, [r7, #29]	@ zero_extendqisi2
ARM GAS  C:\Users\IN-002~1\AppData\Local\Temp\cchaWHVS.s 			page 38


 1677 0334 0133     		adds	r3, r3, #1
 1678 0336 7B77     		strb	r3, [r7, #29]
 1679              	.L100:
 373:.\Protocolo.c **** 			for(i=0;i<=10;i++){
 1680              		.loc 1 373 0 is_stmt 0 discriminator 1
 1681 0338 7B7F     		ldrb	r3, [r7, #29]	@ zero_extendqisi2
 1682 033a 0A2B     		cmp	r3, #10
 1683 033c ECD9     		bls	.L101
 375:.\Protocolo.c **** 			}
 376:.\Protocolo.c **** 			buffer[11]=(((~buffer[11])+1)&0x0F)|0xE0;
 1684              		.loc 1 376 0 is_stmt 1
 1685 033e FB7C     		ldrb	r3, [r7, #19]	@ zero_extendqisi2
 1686 0340 5B42     		negs	r3, r3
 1687 0342 DBB2     		uxtb	r3, r3
 1688 0344 DBB2     		uxtb	r3, r3
 1689 0346 03F00F03 		and	r3, r3, #15
 1690 034a DBB2     		uxtb	r3, r3
 1691 034c 63F01F03 		orn	r3, r3, #31
 1692 0350 DBB2     		uxtb	r3, r3
 1693 0352 DBB2     		uxtb	r3, r3
 1694 0354 FB74     		strb	r3, [r7, #19]
 377:.\Protocolo.c **** 			buffer[12]=0xF0;
 1695              		.loc 1 377 0
 1696 0356 F023     		movs	r3, #240
 1697 0358 3B75     		strb	r3, [r7, #20]
 378:.\Protocolo.c **** 			size=12;		
 1698              		.loc 1 378 0
 1699 035a 0C23     		movs	r3, #12
 1700 035c FB77     		strb	r3, [r7, #31]
 1701              	.L99:
 379:.\Protocolo.c **** 		}
 380:.\Protocolo.c **** 		if(preset==1){
 1702              		.loc 1 380 0
 1703 035e 7B79     		ldrb	r3, [r7, #5]	@ zero_extendqisi2
 1704 0360 012B     		cmp	r3, #1
 1705 0362 40F0C080 		bne	.L92
 381:.\Protocolo.c **** 			buffer[4]=0xF6;
 1706              		.loc 1 381 0
 1707 0366 F623     		movs	r3, #246
 1708 0368 3B73     		strb	r3, [r7, #12]
 382:.\Protocolo.c **** 			buffer[5]=(0xE0|(grado-1));
 1709              		.loc 1 382 0
 1710 036a BB79     		ldrb	r3, [r7, #6]
 1711 036c 013B     		subs	r3, r3, #1
 1712 036e DBB2     		uxtb	r3, r3
 1713 0370 DBB2     		uxtb	r3, r3
 1714 0372 63F01F03 		orn	r3, r3, #31
 1715 0376 DBB2     		uxtb	r3, r3
 1716 0378 DBB2     		uxtb	r3, r3
 1717 037a 7B73     		strb	r3, [r7, #13]
 383:.\Protocolo.c **** 			buffer[6]=0xF8;
 1718              		.loc 1 383 0
 1719 037c F823     		movs	r3, #248
 1720 037e BB73     		strb	r3, [r7, #14]
 384:.\Protocolo.c **** 			if(decimal==4){
 1721              		.loc 1 384 0
 1722 0380 3B7F     		ldrb	r3, [r7, #28]	@ zero_extendqisi2
ARM GAS  C:\Users\IN-002~1\AppData\Local\Temp\cchaWHVS.s 			page 39


 1723 0382 042B     		cmp	r3, #4
 1724 0384 22D1     		bne	.L102
 385:.\Protocolo.c **** 				buffer[7]=(valor[2]|0xE0);
 1725              		.loc 1 385 0
 1726 0386 3B68     		ldr	r3, [r7]
 1727 0388 0233     		adds	r3, r3, #2
 1728 038a 1B78     		ldrb	r3, [r3]	@ zero_extendqisi2
 1729 038c 63F01F03 		orn	r3, r3, #31
 1730 0390 DBB2     		uxtb	r3, r3
 1731 0392 FB73     		strb	r3, [r7, #15]
 386:.\Protocolo.c **** 				buffer[8]=(valor[3]|0xE0);
 1732              		.loc 1 386 0
 1733 0394 3B68     		ldr	r3, [r7]
 1734 0396 0333     		adds	r3, r3, #3
 1735 0398 1B78     		ldrb	r3, [r3]	@ zero_extendqisi2
 1736 039a 63F01F03 		orn	r3, r3, #31
 1737 039e DBB2     		uxtb	r3, r3
 1738 03a0 3B74     		strb	r3, [r7, #16]
 387:.\Protocolo.c **** 				buffer[9]=(valor[5]|0xE0);
 1739              		.loc 1 387 0
 1740 03a2 3B68     		ldr	r3, [r7]
 1741 03a4 0533     		adds	r3, r3, #5
 1742 03a6 1B78     		ldrb	r3, [r3]	@ zero_extendqisi2
 1743 03a8 63F01F03 		orn	r3, r3, #31
 1744 03ac DBB2     		uxtb	r3, r3
 1745 03ae 7B74     		strb	r3, [r7, #17]
 388:.\Protocolo.c **** 				buffer[10]=(valor[6]|0xE0);
 1746              		.loc 1 388 0
 1747 03b0 3B68     		ldr	r3, [r7]
 1748 03b2 0633     		adds	r3, r3, #6
 1749 03b4 1B78     		ldrb	r3, [r3]	@ zero_extendqisi2
 1750 03b6 63F01F03 		orn	r3, r3, #31
 1751 03ba DBB2     		uxtb	r3, r3
 1752 03bc BB74     		strb	r3, [r7, #18]
 389:.\Protocolo.c **** 				buffer[11]=(valor[7]|0xE0);
 1753              		.loc 1 389 0
 1754 03be 3B68     		ldr	r3, [r7]
 1755 03c0 0733     		adds	r3, r3, #7
 1756 03c2 1B78     		ldrb	r3, [r3]	@ zero_extendqisi2
 1757 03c4 63F01F03 		orn	r3, r3, #31
 1758 03c8 DBB2     		uxtb	r3, r3
 1759 03ca FB74     		strb	r3, [r7, #19]
 1760              	.L102:
 390:.\Protocolo.c **** 			}
 391:.\Protocolo.c **** 			if(decimal==3){
 1761              		.loc 1 391 0
 1762 03cc 3B7F     		ldrb	r3, [r7, #28]	@ zero_extendqisi2
 1763 03ce 032B     		cmp	r3, #3
 1764 03d0 22D1     		bne	.L103
 392:.\Protocolo.c **** 				buffer[7]=(valor[1]|0xE0);
 1765              		.loc 1 392 0
 1766 03d2 3B68     		ldr	r3, [r7]
 1767 03d4 0133     		adds	r3, r3, #1
 1768 03d6 1B78     		ldrb	r3, [r3]	@ zero_extendqisi2
 1769 03d8 63F01F03 		orn	r3, r3, #31
 1770 03dc DBB2     		uxtb	r3, r3
 1771 03de FB73     		strb	r3, [r7, #15]
ARM GAS  C:\Users\IN-002~1\AppData\Local\Temp\cchaWHVS.s 			page 40


 393:.\Protocolo.c **** 				buffer[8]=(valor[2]|0xE0);
 1772              		.loc 1 393 0
 1773 03e0 3B68     		ldr	r3, [r7]
 1774 03e2 0233     		adds	r3, r3, #2
 1775 03e4 1B78     		ldrb	r3, [r3]	@ zero_extendqisi2
 1776 03e6 63F01F03 		orn	r3, r3, #31
 1777 03ea DBB2     		uxtb	r3, r3
 1778 03ec 3B74     		strb	r3, [r7, #16]
 394:.\Protocolo.c **** 				buffer[9]=(valor[4]|0xE0);
 1779              		.loc 1 394 0
 1780 03ee 3B68     		ldr	r3, [r7]
 1781 03f0 0433     		adds	r3, r3, #4
 1782 03f2 1B78     		ldrb	r3, [r3]	@ zero_extendqisi2
 1783 03f4 63F01F03 		orn	r3, r3, #31
 1784 03f8 DBB2     		uxtb	r3, r3
 1785 03fa 7B74     		strb	r3, [r7, #17]
 395:.\Protocolo.c **** 				buffer[10]=(valor[5]|0xE0);
 1786              		.loc 1 395 0
 1787 03fc 3B68     		ldr	r3, [r7]
 1788 03fe 0533     		adds	r3, r3, #5
 1789 0400 1B78     		ldrb	r3, [r3]	@ zero_extendqisi2
 1790 0402 63F01F03 		orn	r3, r3, #31
 1791 0406 DBB2     		uxtb	r3, r3
 1792 0408 BB74     		strb	r3, [r7, #18]
 396:.\Protocolo.c **** 				buffer[11]=(valor[6]|0xE0);		
 1793              		.loc 1 396 0
 1794 040a 3B68     		ldr	r3, [r7]
 1795 040c 0633     		adds	r3, r3, #6
 1796 040e 1B78     		ldrb	r3, [r3]	@ zero_extendqisi2
 1797 0410 63F01F03 		orn	r3, r3, #31
 1798 0414 DBB2     		uxtb	r3, r3
 1799 0416 FB74     		strb	r3, [r7, #19]
 1800              	.L103:
 397:.\Protocolo.c **** 			}
 398:.\Protocolo.c **** 			if(decimal==2){
 1801              		.loc 1 398 0
 1802 0418 3B7F     		ldrb	r3, [r7, #28]	@ zero_extendqisi2
 1803 041a 022B     		cmp	r3, #2
 1804 041c 1DD1     		bne	.L104
 399:.\Protocolo.c **** 				buffer[7]=0xE0;
 1805              		.loc 1 399 0
 1806 041e E023     		movs	r3, #224
 1807 0420 FB73     		strb	r3, [r7, #15]
 400:.\Protocolo.c **** 				buffer[8]=(valor[1]|0xE0);
 1808              		.loc 1 400 0
 1809 0422 3B68     		ldr	r3, [r7]
 1810 0424 0133     		adds	r3, r3, #1
 1811 0426 1B78     		ldrb	r3, [r3]	@ zero_extendqisi2
 1812 0428 63F01F03 		orn	r3, r3, #31
 1813 042c DBB2     		uxtb	r3, r3
 1814 042e 3B74     		strb	r3, [r7, #16]
 401:.\Protocolo.c **** 				buffer[9]=(valor[3]|0xE0);
 1815              		.loc 1 401 0
 1816 0430 3B68     		ldr	r3, [r7]
 1817 0432 0333     		adds	r3, r3, #3
 1818 0434 1B78     		ldrb	r3, [r3]	@ zero_extendqisi2
 1819 0436 63F01F03 		orn	r3, r3, #31
ARM GAS  C:\Users\IN-002~1\AppData\Local\Temp\cchaWHVS.s 			page 41


 1820 043a DBB2     		uxtb	r3, r3
 1821 043c 7B74     		strb	r3, [r7, #17]
 402:.\Protocolo.c **** 				buffer[10]=(valor[4]|0xE0);
 1822              		.loc 1 402 0
 1823 043e 3B68     		ldr	r3, [r7]
 1824 0440 0433     		adds	r3, r3, #4
 1825 0442 1B78     		ldrb	r3, [r3]	@ zero_extendqisi2
 1826 0444 63F01F03 		orn	r3, r3, #31
 1827 0448 DBB2     		uxtb	r3, r3
 1828 044a BB74     		strb	r3, [r7, #18]
 403:.\Protocolo.c **** 				buffer[11]=(valor[5]|0xE0);		
 1829              		.loc 1 403 0
 1830 044c 3B68     		ldr	r3, [r7]
 1831 044e 0533     		adds	r3, r3, #5
 1832 0450 1B78     		ldrb	r3, [r3]	@ zero_extendqisi2
 1833 0452 63F01F03 		orn	r3, r3, #31
 1834 0456 DBB2     		uxtb	r3, r3
 1835 0458 FB74     		strb	r3, [r7, #19]
 1836              	.L104:
 404:.\Protocolo.c **** 			}
 405:.\Protocolo.c **** 			if(decimal==0){
 1837              		.loc 1 405 0
 1838 045a 3B7F     		ldrb	r3, [r7, #28]	@ zero_extendqisi2
 1839 045c 002B     		cmp	r3, #0
 1840 045e 18D1     		bne	.L105
 406:.\Protocolo.c **** 				buffer[7]=0xE0;
 1841              		.loc 1 406 0
 1842 0460 E023     		movs	r3, #224
 1843 0462 FB73     		strb	r3, [r7, #15]
 407:.\Protocolo.c **** 				buffer[8]=0xE0;
 1844              		.loc 1 407 0
 1845 0464 E023     		movs	r3, #224
 1846 0466 3B74     		strb	r3, [r7, #16]
 408:.\Protocolo.c **** 				buffer[9]=(valor[1]|0xE0);
 1847              		.loc 1 408 0
 1848 0468 3B68     		ldr	r3, [r7]
 1849 046a 0133     		adds	r3, r3, #1
 1850 046c 1B78     		ldrb	r3, [r3]	@ zero_extendqisi2
 1851 046e 63F01F03 		orn	r3, r3, #31
 1852 0472 DBB2     		uxtb	r3, r3
 1853 0474 7B74     		strb	r3, [r7, #17]
 409:.\Protocolo.c **** 				buffer[10]=(valor[2]|0xE0);
 1854              		.loc 1 409 0
 1855 0476 3B68     		ldr	r3, [r7]
 1856 0478 0233     		adds	r3, r3, #2
 1857 047a 1B78     		ldrb	r3, [r3]	@ zero_extendqisi2
 1858 047c 63F01F03 		orn	r3, r3, #31
 1859 0480 DBB2     		uxtb	r3, r3
 1860 0482 BB74     		strb	r3, [r7, #18]
 410:.\Protocolo.c **** 				buffer[11]=(valor[3]|0xE0);		
 1861              		.loc 1 410 0
 1862 0484 3B68     		ldr	r3, [r7]
 1863 0486 0333     		adds	r3, r3, #3
 1864 0488 1B78     		ldrb	r3, [r3]	@ zero_extendqisi2
 1865 048a 63F01F03 		orn	r3, r3, #31
 1866 048e DBB2     		uxtb	r3, r3
 1867 0490 FB74     		strb	r3, [r7, #19]
ARM GAS  C:\Users\IN-002~1\AppData\Local\Temp\cchaWHVS.s 			page 42


 1868              	.L105:
 411:.\Protocolo.c **** 			}			
 412:.\Protocolo.c **** 			buffer[12]=0xFB;
 1869              		.loc 1 412 0
 1870 0492 FB23     		movs	r3, #251
 1871 0494 3B75     		strb	r3, [r7, #20]
 413:.\Protocolo.c **** 			buffer[13]=0;
 1872              		.loc 1 413 0
 1873 0496 0023     		movs	r3, #0
 1874 0498 7B75     		strb	r3, [r7, #21]
 414:.\Protocolo.c **** 			for(i=0;i<=12;i++){
 1875              		.loc 1 414 0
 1876 049a 0023     		movs	r3, #0
 1877 049c 7B77     		strb	r3, [r7, #29]
 1878 049e 0FE0     		b	.L106
 1879              	.L107:
 415:.\Protocolo.c **** 				buffer[13]+=(buffer[i]&0x0F);	
 1880              		.loc 1 415 0 discriminator 3
 1881 04a0 7A7D     		ldrb	r2, [r7, #21]	@ zero_extendqisi2
 1882 04a2 7B7F     		ldrb	r3, [r7, #29]	@ zero_extendqisi2
 1883 04a4 07F12001 		add	r1, r7, #32
 1884 04a8 0B44     		add	r3, r3, r1
 1885 04aa 13F8183C 		ldrb	r3, [r3, #-24]	@ zero_extendqisi2
 1886 04ae 03F00F03 		and	r3, r3, #15
 1887 04b2 DBB2     		uxtb	r3, r3
 1888 04b4 1344     		add	r3, r3, r2
 1889 04b6 DBB2     		uxtb	r3, r3
 1890 04b8 7B75     		strb	r3, [r7, #21]
 414:.\Protocolo.c **** 			for(i=0;i<=12;i++){
 1891              		.loc 1 414 0 discriminator 3
 1892 04ba 7B7F     		ldrb	r3, [r7, #29]	@ zero_extendqisi2
 1893 04bc 0133     		adds	r3, r3, #1
 1894 04be 7B77     		strb	r3, [r7, #29]
 1895              	.L106:
 414:.\Protocolo.c **** 			for(i=0;i<=12;i++){
 1896              		.loc 1 414 0 is_stmt 0 discriminator 1
 1897 04c0 7B7F     		ldrb	r3, [r7, #29]	@ zero_extendqisi2
 1898 04c2 0C2B     		cmp	r3, #12
 1899 04c4 ECD9     		bls	.L107
 416:.\Protocolo.c **** 			}
 417:.\Protocolo.c **** 			buffer[13]=(((~buffer[13])+1)&0x0F)|0xE0;			
 1900              		.loc 1 417 0 is_stmt 1
 1901 04c6 7B7D     		ldrb	r3, [r7, #21]	@ zero_extendqisi2
 1902 04c8 5B42     		negs	r3, r3
 1903 04ca DBB2     		uxtb	r3, r3
 1904 04cc DBB2     		uxtb	r3, r3
 1905 04ce 03F00F03 		and	r3, r3, #15
 1906 04d2 DBB2     		uxtb	r3, r3
 1907 04d4 63F01F03 		orn	r3, r3, #31
 1908 04d8 DBB2     		uxtb	r3, r3
 1909 04da DBB2     		uxtb	r3, r3
 1910 04dc 7B75     		strb	r3, [r7, #21]
 418:.\Protocolo.c **** 			buffer[14]=0xF0;
 1911              		.loc 1 418 0
 1912 04de F023     		movs	r3, #240
 1913 04e0 BB75     		strb	r3, [r7, #22]
 419:.\Protocolo.c **** 			size=14;
ARM GAS  C:\Users\IN-002~1\AppData\Local\Temp\cchaWHVS.s 			page 43


 1914              		.loc 1 419 0
 1915 04e2 0E23     		movs	r3, #14
 1916 04e4 FB77     		strb	r3, [r7, #31]
 1917              	.L92:
 420:.\Protocolo.c **** 		}	
 421:.\Protocolo.c **** 	}	
 422:.\Protocolo.c **** 	if(version[1]==7){
 1918              		.loc 1 422 0
 1919 04e6 A24B     		ldr	r3, .L126
 1920 04e8 5B78     		ldrb	r3, [r3, #1]
 1921 04ea DBB2     		uxtb	r3, r3
 1922 04ec 072B     		cmp	r3, #7
 1923 04ee 40F06481 		bne	.L108
 423:.\Protocolo.c **** 		buffer[0]=0xFF;
 1924              		.loc 1 423 0
 1925 04f2 FF23     		movs	r3, #255
 1926 04f4 3B72     		strb	r3, [r7, #8]
 424:.\Protocolo.c **** 		buffer[1]=(0xE0|temp);
 1927              		.loc 1 424 0
 1928 04f6 BB7F     		ldrb	r3, [r7, #30]
 1929 04f8 63F01F03 		orn	r3, r3, #31
 1930 04fc DBB2     		uxtb	r3, r3
 1931 04fe 7B72     		strb	r3, [r7, #9]
 425:.\Protocolo.c **** 		buffer[2]=(0xF0|preset);
 1932              		.loc 1 425 0
 1933 0500 7B79     		ldrb	r3, [r7, #5]
 1934 0502 63F00F03 		orn	r3, r3, #15
 1935 0506 DBB2     		uxtb	r3, r3
 1936 0508 BB72     		strb	r3, [r7, #10]
 426:.\Protocolo.c **** 		buffer[3]=0xF4;
 1937              		.loc 1 426 0
 1938 050a F423     		movs	r3, #244
 1939 050c FB72     		strb	r3, [r7, #11]
 427:.\Protocolo.c **** 		buffer[4]=0xF8;	
 1940              		.loc 1 427 0
 1941 050e F823     		movs	r3, #248
 1942 0510 3B73     		strb	r3, [r7, #12]
 428:.\Protocolo.c **** 		buffer[5]=(valor[1]|0xE0);
 1943              		.loc 1 428 0
 1944 0512 3B68     		ldr	r3, [r7]
 1945 0514 0133     		adds	r3, r3, #1
 1946 0516 1B78     		ldrb	r3, [r3]	@ zero_extendqisi2
 1947 0518 63F01F03 		orn	r3, r3, #31
 1948 051c DBB2     		uxtb	r3, r3
 1949 051e 7B73     		strb	r3, [r7, #13]
 429:.\Protocolo.c **** 		buffer[6]=(valor[2]|0xE0);
 1950              		.loc 1 429 0
 1951 0520 3B68     		ldr	r3, [r7]
 1952 0522 0233     		adds	r3, r3, #2
 1953 0524 1B78     		ldrb	r3, [r3]	@ zero_extendqisi2
 1954 0526 63F01F03 		orn	r3, r3, #31
 1955 052a DBB2     		uxtb	r3, r3
 1956 052c BB73     		strb	r3, [r7, #14]
 430:.\Protocolo.c **** 		buffer[7]=(valor[3]|0xE0);
 1957              		.loc 1 430 0
 1958 052e 3B68     		ldr	r3, [r7]
 1959 0530 0333     		adds	r3, r3, #3
ARM GAS  C:\Users\IN-002~1\AppData\Local\Temp\cchaWHVS.s 			page 44


 1960 0532 1B78     		ldrb	r3, [r3]	@ zero_extendqisi2
 1961 0534 63F01F03 		orn	r3, r3, #31
 1962 0538 DBB2     		uxtb	r3, r3
 1963 053a FB73     		strb	r3, [r7, #15]
 431:.\Protocolo.c **** 		buffer[8]=(valor[4]|0xE0);
 1964              		.loc 1 431 0
 1965 053c 3B68     		ldr	r3, [r7]
 1966 053e 0433     		adds	r3, r3, #4
 1967 0540 1B78     		ldrb	r3, [r3]	@ zero_extendqisi2
 1968 0542 63F01F03 		orn	r3, r3, #31
 1969 0546 DBB2     		uxtb	r3, r3
 1970 0548 3B74     		strb	r3, [r7, #16]
 432:.\Protocolo.c **** 		buffer[9]=(valor[5]|0xE0);
 1971              		.loc 1 432 0
 1972 054a 3B68     		ldr	r3, [r7]
 1973 054c 0533     		adds	r3, r3, #5
 1974 054e 1B78     		ldrb	r3, [r3]	@ zero_extendqisi2
 1975 0550 63F01F03 		orn	r3, r3, #31
 1976 0554 DBB2     		uxtb	r3, r3
 1977 0556 7B74     		strb	r3, [r7, #17]
 433:.\Protocolo.c **** 		buffer[10]=(valor[6]|0xE0);	
 1978              		.loc 1 433 0
 1979 0558 3B68     		ldr	r3, [r7]
 1980 055a 0633     		adds	r3, r3, #6
 1981 055c 1B78     		ldrb	r3, [r3]	@ zero_extendqisi2
 1982 055e 63F01F03 		orn	r3, r3, #31
 1983 0562 DBB2     		uxtb	r3, r3
 1984 0564 BB74     		strb	r3, [r7, #18]
 434:.\Protocolo.c **** 		buffer[11]=(valor[7]|0xE0);
 1985              		.loc 1 434 0
 1986 0566 3B68     		ldr	r3, [r7]
 1987 0568 0733     		adds	r3, r3, #7
 1988 056a 1B78     		ldrb	r3, [r3]	@ zero_extendqisi2
 1989 056c 63F01F03 		orn	r3, r3, #31
 1990 0570 DBB2     		uxtb	r3, r3
 1991 0572 FB74     		strb	r3, [r7, #19]
 435:.\Protocolo.c **** 		buffer[12]=0xE0;
 1992              		.loc 1 435 0
 1993 0574 E023     		movs	r3, #224
 1994 0576 3B75     		strb	r3, [r7, #20]
 436:.\Protocolo.c **** 		buffer[13]=0xFB;
 1995              		.loc 1 436 0
 1996 0578 FB23     		movs	r3, #251
 1997 057a 7B75     		strb	r3, [r7, #21]
 437:.\Protocolo.c **** 		buffer[14]=0;
 1998              		.loc 1 437 0
 1999 057c 0023     		movs	r3, #0
 2000 057e BB75     		strb	r3, [r7, #22]
 438:.\Protocolo.c **** 		for(i=0;i<=13;i++){
 2001              		.loc 1 438 0
 2002 0580 0023     		movs	r3, #0
 2003 0582 7B77     		strb	r3, [r7, #29]
 2004 0584 0FE0     		b	.L109
 2005              	.L110:
 439:.\Protocolo.c **** 			buffer[14]+=(buffer[i]&0x0F);	
 2006              		.loc 1 439 0 discriminator 3
 2007 0586 BA7D     		ldrb	r2, [r7, #22]	@ zero_extendqisi2
ARM GAS  C:\Users\IN-002~1\AppData\Local\Temp\cchaWHVS.s 			page 45


 2008 0588 7B7F     		ldrb	r3, [r7, #29]	@ zero_extendqisi2
 2009 058a 07F12001 		add	r1, r7, #32
 2010 058e 0B44     		add	r3, r3, r1
 2011 0590 13F8183C 		ldrb	r3, [r3, #-24]	@ zero_extendqisi2
 2012 0594 03F00F03 		and	r3, r3, #15
 2013 0598 DBB2     		uxtb	r3, r3
 2014 059a 1344     		add	r3, r3, r2
 2015 059c DBB2     		uxtb	r3, r3
 2016 059e BB75     		strb	r3, [r7, #22]
 438:.\Protocolo.c **** 		for(i=0;i<=13;i++){
 2017              		.loc 1 438 0 discriminator 3
 2018 05a0 7B7F     		ldrb	r3, [r7, #29]	@ zero_extendqisi2
 2019 05a2 0133     		adds	r3, r3, #1
 2020 05a4 7B77     		strb	r3, [r7, #29]
 2021              	.L109:
 438:.\Protocolo.c **** 		for(i=0;i<=13;i++){
 2022              		.loc 1 438 0 is_stmt 0 discriminator 1
 2023 05a6 7B7F     		ldrb	r3, [r7, #29]	@ zero_extendqisi2
 2024 05a8 0D2B     		cmp	r3, #13
 2025 05aa ECD9     		bls	.L110
 440:.\Protocolo.c **** 		}
 441:.\Protocolo.c **** 		buffer[14]=(((~buffer[14])+1)&0x0F)|0xE0;
 2026              		.loc 1 441 0 is_stmt 1
 2027 05ac BB7D     		ldrb	r3, [r7, #22]	@ zero_extendqisi2
 2028 05ae 5B42     		negs	r3, r3
 2029 05b0 DBB2     		uxtb	r3, r3
 2030 05b2 DBB2     		uxtb	r3, r3
 2031 05b4 03F00F03 		and	r3, r3, #15
 2032 05b8 DBB2     		uxtb	r3, r3
 2033 05ba 63F01F03 		orn	r3, r3, #31
 2034 05be DBB2     		uxtb	r3, r3
 2035 05c0 DBB2     		uxtb	r3, r3
 2036 05c2 BB75     		strb	r3, [r7, #22]
 442:.\Protocolo.c **** 		buffer[15]=0xF0;
 2037              		.loc 1 442 0
 2038 05c4 F023     		movs	r3, #240
 2039 05c6 FB75     		strb	r3, [r7, #23]
 443:.\Protocolo.c **** 		size=15;
 2040              		.loc 1 443 0
 2041 05c8 0F23     		movs	r3, #15
 2042 05ca FB77     		strb	r3, [r7, #31]
 444:.\Protocolo.c **** 		if(preset==1){
 2043              		.loc 1 444 0
 2044 05cc 7B79     		ldrb	r3, [r7, #5]	@ zero_extendqisi2
 2045 05ce 012B     		cmp	r3, #1
 2046 05d0 40F0F380 		bne	.L108
 445:.\Protocolo.c **** 			buffer[4]=0xF6;
 2047              		.loc 1 445 0
 2048 05d4 F623     		movs	r3, #246
 2049 05d6 3B73     		strb	r3, [r7, #12]
 446:.\Protocolo.c **** 			buffer[5]=(0xE0|(grado-1));
 2050              		.loc 1 446 0
 2051 05d8 BB79     		ldrb	r3, [r7, #6]
 2052 05da 013B     		subs	r3, r3, #1
 2053 05dc DBB2     		uxtb	r3, r3
 2054 05de DBB2     		uxtb	r3, r3
 2055 05e0 63F01F03 		orn	r3, r3, #31
ARM GAS  C:\Users\IN-002~1\AppData\Local\Temp\cchaWHVS.s 			page 46


 2056 05e4 DBB2     		uxtb	r3, r3
 2057 05e6 DBB2     		uxtb	r3, r3
 2058 05e8 7B73     		strb	r3, [r7, #13]
 447:.\Protocolo.c **** 			buffer[6]=0xF8;
 2059              		.loc 1 447 0
 2060 05ea F823     		movs	r3, #248
 2061 05ec BB73     		strb	r3, [r7, #14]
 448:.\Protocolo.c **** 			if(decimal==4){
 2062              		.loc 1 448 0
 2063 05ee 3B7F     		ldrb	r3, [r7, #28]	@ zero_extendqisi2
 2064 05f0 042B     		cmp	r3, #4
 2065 05f2 2DD1     		bne	.L111
 449:.\Protocolo.c **** 				buffer[7]=(valor[1]|0xE0);
 2066              		.loc 1 449 0
 2067 05f4 3B68     		ldr	r3, [r7]
 2068 05f6 0133     		adds	r3, r3, #1
 2069 05f8 1B78     		ldrb	r3, [r3]	@ zero_extendqisi2
 2070 05fa 63F01F03 		orn	r3, r3, #31
 2071 05fe DBB2     		uxtb	r3, r3
 2072 0600 FB73     		strb	r3, [r7, #15]
 450:.\Protocolo.c **** 				buffer[8]=(valor[2]|0xE0);
 2073              		.loc 1 450 0
 2074 0602 3B68     		ldr	r3, [r7]
 2075 0604 0233     		adds	r3, r3, #2
 2076 0606 1B78     		ldrb	r3, [r3]	@ zero_extendqisi2
 2077 0608 63F01F03 		orn	r3, r3, #31
 2078 060c DBB2     		uxtb	r3, r3
 2079 060e 3B74     		strb	r3, [r7, #16]
 451:.\Protocolo.c **** 				buffer[9]=(valor[3]|0xE0);
 2080              		.loc 1 451 0
 2081 0610 3B68     		ldr	r3, [r7]
 2082 0612 0333     		adds	r3, r3, #3
 2083 0614 1B78     		ldrb	r3, [r3]	@ zero_extendqisi2
 2084 0616 63F01F03 		orn	r3, r3, #31
 2085 061a DBB2     		uxtb	r3, r3
 2086 061c 7B74     		strb	r3, [r7, #17]
 452:.\Protocolo.c **** 				buffer[10]=(valor[5]|0xE0);
 2087              		.loc 1 452 0
 2088 061e 3B68     		ldr	r3, [r7]
 2089 0620 0533     		adds	r3, r3, #5
 2090 0622 1B78     		ldrb	r3, [r3]	@ zero_extendqisi2
 2091 0624 63F01F03 		orn	r3, r3, #31
 2092 0628 DBB2     		uxtb	r3, r3
 2093 062a BB74     		strb	r3, [r7, #18]
 453:.\Protocolo.c **** 				buffer[11]=(valor[6]|0xE0);
 2094              		.loc 1 453 0
 2095 062c 3B68     		ldr	r3, [r7]
 2096 062e 0633     		adds	r3, r3, #6
 2097 0630 1B78     		ldrb	r3, [r3]	@ zero_extendqisi2
 2098 0632 63F01F03 		orn	r3, r3, #31
 2099 0636 DBB2     		uxtb	r3, r3
 2100 0638 FB74     		strb	r3, [r7, #19]
 454:.\Protocolo.c **** 				buffer[12]=(valor[7]|0xE0);	
 2101              		.loc 1 454 0
 2102 063a 3B68     		ldr	r3, [r7]
 2103 063c 0733     		adds	r3, r3, #7
 2104 063e 1B78     		ldrb	r3, [r3]	@ zero_extendqisi2
ARM GAS  C:\Users\IN-002~1\AppData\Local\Temp\cchaWHVS.s 			page 47


 2105 0640 63F01F03 		orn	r3, r3, #31
 2106 0644 DBB2     		uxtb	r3, r3
 2107 0646 3B75     		strb	r3, [r7, #20]
 455:.\Protocolo.c **** 				buffer[13]=0xE0;	
 2108              		.loc 1 455 0
 2109 0648 E023     		movs	r3, #224
 2110 064a 7B75     		strb	r3, [r7, #21]
 456:.\Protocolo.c **** 				buffer[14]=0xE0;
 2111              		.loc 1 456 0
 2112 064c E023     		movs	r3, #224
 2113 064e BB75     		strb	r3, [r7, #22]
 2114              	.L111:
 457:.\Protocolo.c **** 			}
 458:.\Protocolo.c **** 			if(decimal==3){
 2115              		.loc 1 458 0
 2116 0650 3B7F     		ldrb	r3, [r7, #28]	@ zero_extendqisi2
 2117 0652 032B     		cmp	r3, #3
 2118 0654 2DD1     		bne	.L112
 459:.\Protocolo.c **** 				buffer[7]=0xE0;
 2119              		.loc 1 459 0
 2120 0656 E023     		movs	r3, #224
 2121 0658 FB73     		strb	r3, [r7, #15]
 460:.\Protocolo.c **** 				buffer[8]=(valor[1]|0xE0);
 2122              		.loc 1 460 0
 2123 065a 3B68     		ldr	r3, [r7]
 2124 065c 0133     		adds	r3, r3, #1
 2125 065e 1B78     		ldrb	r3, [r3]	@ zero_extendqisi2
 2126 0660 63F01F03 		orn	r3, r3, #31
 2127 0664 DBB2     		uxtb	r3, r3
 2128 0666 3B74     		strb	r3, [r7, #16]
 461:.\Protocolo.c **** 				buffer[9]=(valor[2]|0xE0);
 2129              		.loc 1 461 0
 2130 0668 3B68     		ldr	r3, [r7]
 2131 066a 0233     		adds	r3, r3, #2
 2132 066c 1B78     		ldrb	r3, [r3]	@ zero_extendqisi2
 2133 066e 63F01F03 		orn	r3, r3, #31
 2134 0672 DBB2     		uxtb	r3, r3
 2135 0674 7B74     		strb	r3, [r7, #17]
 462:.\Protocolo.c **** 				buffer[10]=(valor[4]|0xE0);
 2136              		.loc 1 462 0
 2137 0676 3B68     		ldr	r3, [r7]
 2138 0678 0433     		adds	r3, r3, #4
 2139 067a 1B78     		ldrb	r3, [r3]	@ zero_extendqisi2
 2140 067c 63F01F03 		orn	r3, r3, #31
 2141 0680 DBB2     		uxtb	r3, r3
 2142 0682 BB74     		strb	r3, [r7, #18]
 463:.\Protocolo.c **** 				buffer[11]=(valor[5]|0xE0);
 2143              		.loc 1 463 0
 2144 0684 3B68     		ldr	r3, [r7]
 2145 0686 0533     		adds	r3, r3, #5
 2146 0688 1B78     		ldrb	r3, [r3]	@ zero_extendqisi2
 2147 068a 63F01F03 		orn	r3, r3, #31
 2148 068e DBB2     		uxtb	r3, r3
 2149 0690 FB74     		strb	r3, [r7, #19]
 464:.\Protocolo.c **** 				buffer[12]=(valor[6]|0xE0);
 2150              		.loc 1 464 0
 2151 0692 3B68     		ldr	r3, [r7]
ARM GAS  C:\Users\IN-002~1\AppData\Local\Temp\cchaWHVS.s 			page 48


 2152 0694 0633     		adds	r3, r3, #6
 2153 0696 1B78     		ldrb	r3, [r3]	@ zero_extendqisi2
 2154 0698 63F01F03 		orn	r3, r3, #31
 2155 069c DBB2     		uxtb	r3, r3
 2156 069e 3B75     		strb	r3, [r7, #20]
 465:.\Protocolo.c **** 				buffer[13]=(valor[7]|0xE0);	
 2157              		.loc 1 465 0
 2158 06a0 3B68     		ldr	r3, [r7]
 2159 06a2 0733     		adds	r3, r3, #7
 2160 06a4 1B78     		ldrb	r3, [r3]	@ zero_extendqisi2
 2161 06a6 63F01F03 		orn	r3, r3, #31
 2162 06aa DBB2     		uxtb	r3, r3
 2163 06ac 7B75     		strb	r3, [r7, #21]
 466:.\Protocolo.c **** 				buffer[14]=0xE0;	
 2164              		.loc 1 466 0
 2165 06ae E023     		movs	r3, #224
 2166 06b0 BB75     		strb	r3, [r7, #22]
 2167              	.L112:
 467:.\Protocolo.c **** 			}
 468:.\Protocolo.c **** 			if(decimal==2){
 2168              		.loc 1 468 0
 2169 06b2 3B7F     		ldrb	r3, [r7, #28]	@ zero_extendqisi2
 2170 06b4 022B     		cmp	r3, #2
 2171 06b6 2DD1     		bne	.L113
 469:.\Protocolo.c **** 				buffer[7]=0xE0;
 2172              		.loc 1 469 0
 2173 06b8 E023     		movs	r3, #224
 2174 06ba FB73     		strb	r3, [r7, #15]
 470:.\Protocolo.c **** 				buffer[8]=0xE0;
 2175              		.loc 1 470 0
 2176 06bc E023     		movs	r3, #224
 2177 06be 3B74     		strb	r3, [r7, #16]
 471:.\Protocolo.c **** 				buffer[9]=(valor[1]|0xE0);
 2178              		.loc 1 471 0
 2179 06c0 3B68     		ldr	r3, [r7]
 2180 06c2 0133     		adds	r3, r3, #1
 2181 06c4 1B78     		ldrb	r3, [r3]	@ zero_extendqisi2
 2182 06c6 63F01F03 		orn	r3, r3, #31
 2183 06ca DBB2     		uxtb	r3, r3
 2184 06cc 7B74     		strb	r3, [r7, #17]
 472:.\Protocolo.c **** 				buffer[10]=(valor[3]|0xE0);
 2185              		.loc 1 472 0
 2186 06ce 3B68     		ldr	r3, [r7]
 2187 06d0 0333     		adds	r3, r3, #3
 2188 06d2 1B78     		ldrb	r3, [r3]	@ zero_extendqisi2
 2189 06d4 63F01F03 		orn	r3, r3, #31
 2190 06d8 DBB2     		uxtb	r3, r3
 2191 06da BB74     		strb	r3, [r7, #18]
 473:.\Protocolo.c **** 				buffer[11]=(valor[4]|0xE0);
 2192              		.loc 1 473 0
 2193 06dc 3B68     		ldr	r3, [r7]
 2194 06de 0433     		adds	r3, r3, #4
 2195 06e0 1B78     		ldrb	r3, [r3]	@ zero_extendqisi2
 2196 06e2 63F01F03 		orn	r3, r3, #31
 2197 06e6 DBB2     		uxtb	r3, r3
 2198 06e8 FB74     		strb	r3, [r7, #19]
 474:.\Protocolo.c **** 				buffer[12]=(valor[5]|0xE0);
ARM GAS  C:\Users\IN-002~1\AppData\Local\Temp\cchaWHVS.s 			page 49


 2199              		.loc 1 474 0
 2200 06ea 3B68     		ldr	r3, [r7]
 2201 06ec 0533     		adds	r3, r3, #5
 2202 06ee 1B78     		ldrb	r3, [r3]	@ zero_extendqisi2
 2203 06f0 63F01F03 		orn	r3, r3, #31
 2204 06f4 DBB2     		uxtb	r3, r3
 2205 06f6 3B75     		strb	r3, [r7, #20]
 475:.\Protocolo.c **** 				buffer[13]=(valor[6]|0xE0);	
 2206              		.loc 1 475 0
 2207 06f8 3B68     		ldr	r3, [r7]
 2208 06fa 0633     		adds	r3, r3, #6
 2209 06fc 1B78     		ldrb	r3, [r3]	@ zero_extendqisi2
 2210 06fe 63F01F03 		orn	r3, r3, #31
 2211 0702 DBB2     		uxtb	r3, r3
 2212 0704 7B75     		strb	r3, [r7, #21]
 476:.\Protocolo.c **** 				buffer[14]=(valor[7]|0xE0);	
 2213              		.loc 1 476 0
 2214 0706 3B68     		ldr	r3, [r7]
 2215 0708 0733     		adds	r3, r3, #7
 2216 070a 1B78     		ldrb	r3, [r3]	@ zero_extendqisi2
 2217 070c 63F01F03 		orn	r3, r3, #31
 2218 0710 DBB2     		uxtb	r3, r3
 2219 0712 BB75     		strb	r3, [r7, #22]
 2220              	.L113:
 477:.\Protocolo.c **** 			}
 478:.\Protocolo.c **** 			if(decimal==0){
 2221              		.loc 1 478 0
 2222 0714 3B7F     		ldrb	r3, [r7, #28]	@ zero_extendqisi2
 2223 0716 002B     		cmp	r3, #0
 2224 0718 23D1     		bne	.L114
 479:.\Protocolo.c **** 				buffer[7]=0xE0;
 2225              		.loc 1 479 0
 2226 071a E023     		movs	r3, #224
 2227 071c FB73     		strb	r3, [r7, #15]
 480:.\Protocolo.c **** 				buffer[8]=0xE0;
 2228              		.loc 1 480 0
 2229 071e E023     		movs	r3, #224
 2230 0720 3B74     		strb	r3, [r7, #16]
 481:.\Protocolo.c **** 				buffer[9]=0xE0;
 2231              		.loc 1 481 0
 2232 0722 E023     		movs	r3, #224
 2233 0724 7B74     		strb	r3, [r7, #17]
 482:.\Protocolo.c **** 				buffer[10]=(valor[1]|0xE0);
 2234              		.loc 1 482 0
 2235 0726 3B68     		ldr	r3, [r7]
 2236 0728 0133     		adds	r3, r3, #1
 2237 072a 1B78     		ldrb	r3, [r3]	@ zero_extendqisi2
 2238 072c 63F01F03 		orn	r3, r3, #31
 2239 0730 DBB2     		uxtb	r3, r3
 2240 0732 BB74     		strb	r3, [r7, #18]
 483:.\Protocolo.c **** 				buffer[11]=(valor[2]|0xE0);
 2241              		.loc 1 483 0
 2242 0734 3B68     		ldr	r3, [r7]
 2243 0736 0233     		adds	r3, r3, #2
 2244 0738 1B78     		ldrb	r3, [r3]	@ zero_extendqisi2
 2245 073a 63F01F03 		orn	r3, r3, #31
 2246 073e DBB2     		uxtb	r3, r3
ARM GAS  C:\Users\IN-002~1\AppData\Local\Temp\cchaWHVS.s 			page 50


 2247 0740 FB74     		strb	r3, [r7, #19]
 484:.\Protocolo.c **** 				buffer[12]=(valor[3]|0xE0);
 2248              		.loc 1 484 0
 2249 0742 3B68     		ldr	r3, [r7]
 2250 0744 0333     		adds	r3, r3, #3
 2251 0746 1B78     		ldrb	r3, [r3]	@ zero_extendqisi2
 2252 0748 63F01F03 		orn	r3, r3, #31
 2253 074c DBB2     		uxtb	r3, r3
 2254 074e 3B75     		strb	r3, [r7, #20]
 485:.\Protocolo.c **** 				buffer[13]=(valor[4]|0xE0);	
 2255              		.loc 1 485 0
 2256 0750 3B68     		ldr	r3, [r7]
 2257 0752 0433     		adds	r3, r3, #4
 2258 0754 1B78     		ldrb	r3, [r3]	@ zero_extendqisi2
 2259 0756 63F01F03 		orn	r3, r3, #31
 2260 075a DBB2     		uxtb	r3, r3
 2261 075c 7B75     		strb	r3, [r7, #21]
 486:.\Protocolo.c **** 				buffer[14]=0xE0;	
 2262              		.loc 1 486 0
 2263 075e E023     		movs	r3, #224
 2264 0760 BB75     		strb	r3, [r7, #22]
 2265              	.L114:
 487:.\Protocolo.c **** 			}			
 488:.\Protocolo.c **** 			buffer[15]=0xFB;
 2266              		.loc 1 488 0
 2267 0762 FB23     		movs	r3, #251
 2268 0764 FB75     		strb	r3, [r7, #23]
 489:.\Protocolo.c **** 			buffer[16]=0;
 2269              		.loc 1 489 0
 2270 0766 0023     		movs	r3, #0
 2271 0768 3B76     		strb	r3, [r7, #24]
 490:.\Protocolo.c **** 			for(i=0;i<=15;i++){
 2272              		.loc 1 490 0
 2273 076a 0023     		movs	r3, #0
 2274 076c 7B77     		strb	r3, [r7, #29]
 2275 076e 11E0     		b	.L115
 2276              	.L127:
 2277              		.align	2
 2278              	.L126:
 2279 0770 00000000 		.word	version
 2280              	.L116:
 491:.\Protocolo.c **** 				buffer[16]+=(buffer[i]&0x0F);	
 2281              		.loc 1 491 0 discriminator 3
 2282 0774 3A7E     		ldrb	r2, [r7, #24]	@ zero_extendqisi2
 2283 0776 7B7F     		ldrb	r3, [r7, #29]	@ zero_extendqisi2
 2284 0778 07F12001 		add	r1, r7, #32
 2285 077c 0B44     		add	r3, r3, r1
 2286 077e 13F8183C 		ldrb	r3, [r3, #-24]	@ zero_extendqisi2
 2287 0782 03F00F03 		and	r3, r3, #15
 2288 0786 DBB2     		uxtb	r3, r3
 2289 0788 1344     		add	r3, r3, r2
 2290 078a DBB2     		uxtb	r3, r3
 2291 078c 3B76     		strb	r3, [r7, #24]
 490:.\Protocolo.c **** 			for(i=0;i<=15;i++){
 2292              		.loc 1 490 0 discriminator 3
 2293 078e 7B7F     		ldrb	r3, [r7, #29]	@ zero_extendqisi2
 2294 0790 0133     		adds	r3, r3, #1
ARM GAS  C:\Users\IN-002~1\AppData\Local\Temp\cchaWHVS.s 			page 51


 2295 0792 7B77     		strb	r3, [r7, #29]
 2296              	.L115:
 490:.\Protocolo.c **** 			for(i=0;i<=15;i++){
 2297              		.loc 1 490 0 is_stmt 0 discriminator 1
 2298 0794 7B7F     		ldrb	r3, [r7, #29]	@ zero_extendqisi2
 2299 0796 0F2B     		cmp	r3, #15
 2300 0798 ECD9     		bls	.L116
 492:.\Protocolo.c **** 			}
 493:.\Protocolo.c **** 			buffer[16]=(((~buffer[16])+1)&0x0F)|0xE0;			
 2301              		.loc 1 493 0 is_stmt 1
 2302 079a 3B7E     		ldrb	r3, [r7, #24]	@ zero_extendqisi2
 2303 079c 5B42     		negs	r3, r3
 2304 079e DBB2     		uxtb	r3, r3
 2305 07a0 DBB2     		uxtb	r3, r3
 2306 07a2 03F00F03 		and	r3, r3, #15
 2307 07a6 DBB2     		uxtb	r3, r3
 2308 07a8 63F01F03 		orn	r3, r3, #31
 2309 07ac DBB2     		uxtb	r3, r3
 2310 07ae DBB2     		uxtb	r3, r3
 2311 07b0 3B76     		strb	r3, [r7, #24]
 494:.\Protocolo.c **** 			buffer[17]=0xF0;
 2312              		.loc 1 494 0
 2313 07b2 F023     		movs	r3, #240
 2314 07b4 7B76     		strb	r3, [r7, #25]
 495:.\Protocolo.c **** 			size=17;
 2315              		.loc 1 495 0
 2316 07b6 1123     		movs	r3, #17
 2317 07b8 FB77     		strb	r3, [r7, #31]
 2318              	.L108:
 496:.\Protocolo.c **** 		}		
 497:.\Protocolo.c **** 	}
 498:.\Protocolo.c **** 	Surtidor_ClearRxBuffer();
 2319              		.loc 1 498 0
 2320 07ba FFF7FEFF 		bl	Surtidor_ClearRxBuffer
 499:.\Protocolo.c **** 	Surtidor_PutChar(0x20|dir);
 2321              		.loc 1 499 0
 2322 07be FB79     		ldrb	r3, [r7, #7]
 2323 07c0 43F02003 		orr	r3, r3, #32
 2324 07c4 DBB2     		uxtb	r3, r3
 2325 07c6 1846     		mov	r0, r3
 2326 07c8 FFF7FEFF 		bl	Surtidor_PutChar
 500:.\Protocolo.c **** 	isr_1_StartEx(Rx_Surtidor);
 2327              		.loc 1 500 0
 2328 07cc 2A48     		ldr	r0, .L128
 2329 07ce FFF7FEFF 		bl	isr_1_StartEx
 501:.\Protocolo.c ****     Timer_RxSurtidor_Start();	
 2330              		.loc 1 501 0
 2331 07d2 FFF7FEFF 		bl	Timer_RxSurtidor_Start
 502:.\Protocolo.c ****     rx_timeout=0;
 2332              		.loc 1 502 0
 2333 07d6 294B     		ldr	r3, .L128+4
 2334 07d8 0022     		movs	r2, #0
 2335 07da 1A70     		strb	r2, [r3]
 503:.\Protocolo.c ****     CyDelay(10);
 2336              		.loc 1 503 0
 2337 07dc 0A20     		movs	r0, #10
 2338 07de FFF7FEFF 		bl	CyDelay
ARM GAS  C:\Users\IN-002~1\AppData\Local\Temp\cchaWHVS.s 			page 52


 504:.\Protocolo.c **** 	while(Surtidor_GetRxBufferSize()==0){
 2339              		.loc 1 504 0
 2340 07e2 0BE0     		b	.L117
 2341              	.L118:
 505:.\Protocolo.c **** 		if(rx_timeout==1){
 2342              		.loc 1 505 0
 2343 07e4 254B     		ldr	r3, .L128+4
 2344 07e6 1B78     		ldrb	r3, [r3]	@ zero_extendqisi2
 2345 07e8 012B     		cmp	r3, #1
 2346 07ea 07D1     		bne	.L117
 506:.\Protocolo.c **** 			isr_1_Stop();
 2347              		.loc 1 506 0
 2348 07ec FFF7FEFF 		bl	isr_1_Stop
 507:.\Protocolo.c **** 			Timer_RxSurtidor_Stop();
 2349              		.loc 1 507 0
 2350 07f0 FFF7FEFF 		bl	Timer_RxSurtidor_Stop
 508:.\Protocolo.c ****     		Surtidor_ClearRxBuffer();			
 2351              		.loc 1 508 0
 2352 07f4 FFF7FEFF 		bl	Surtidor_ClearRxBuffer
 509:.\Protocolo.c **** 			return 0;
 2353              		.loc 1 509 0
 2354 07f8 0023     		movs	r3, #0
 2355 07fa 39E0     		b	.L123
 2356              	.L117:
 504:.\Protocolo.c **** 		if(rx_timeout==1){
 2357              		.loc 1 504 0
 2358 07fc FFF7FEFF 		bl	Surtidor_GetRxBufferSize
 2359 0800 0346     		mov	r3, r0
 2360 0802 002B     		cmp	r3, #0
 2361 0804 EED0     		beq	.L118
 510:.\Protocolo.c **** 		}
 511:.\Protocolo.c **** 	}
 512:.\Protocolo.c **** 	isr_1_Stop();
 2362              		.loc 1 512 0
 2363 0806 FFF7FEFF 		bl	isr_1_Stop
 513:.\Protocolo.c **** 	Timer_RxSurtidor_Stop();	
 2364              		.loc 1 513 0
 2365 080a FFF7FEFF 		bl	Timer_RxSurtidor_Stop
 514:.\Protocolo.c **** 	if(Surtidor_ReadRxData()==(0xD0|dir)){
 2366              		.loc 1 514 0
 2367 080e FFF7FEFF 		bl	Surtidor_ReadRxData
 2368 0812 0346     		mov	r3, r0
 2369 0814 1A46     		mov	r2, r3
 2370 0816 FB79     		ldrb	r3, [r7, #7]
 2371 0818 63F02F03 		orn	r3, r3, #47
 2372 081c DBB2     		uxtb	r3, r3
 2373 081e 9A42     		cmp	r2, r3
 2374 0820 25D1     		bne	.L119
 515:.\Protocolo.c ****         Surtidor_ClearRxBuffer();
 2375              		.loc 1 515 0
 2376 0822 FFF7FEFF 		bl	Surtidor_ClearRxBuffer
 516:.\Protocolo.c **** 		CyDelay(10);
 2377              		.loc 1 516 0
 2378 0826 0A20     		movs	r0, #10
 2379 0828 FFF7FEFF 		bl	CyDelay
 517:.\Protocolo.c ****         for(i=0;i<=size;i++){
 2380              		.loc 1 517 0
ARM GAS  C:\Users\IN-002~1\AppData\Local\Temp\cchaWHVS.s 			page 53


 2381 082c 0023     		movs	r3, #0
 2382 082e 7B77     		strb	r3, [r7, #29]
 2383 0830 0BE0     		b	.L120
 2384              	.L121:
 518:.\Protocolo.c ****            	Surtidor_PutChar(buffer[i]);
 2385              		.loc 1 518 0 discriminator 3
 2386 0832 7B7F     		ldrb	r3, [r7, #29]	@ zero_extendqisi2
 2387 0834 07F12002 		add	r2, r7, #32
 2388 0838 1344     		add	r3, r3, r2
 2389 083a 13F8183C 		ldrb	r3, [r3, #-24]	@ zero_extendqisi2
 2390 083e 1846     		mov	r0, r3
 2391 0840 FFF7FEFF 		bl	Surtidor_PutChar
 517:.\Protocolo.c ****         for(i=0;i<=size;i++){
 2392              		.loc 1 517 0 discriminator 3
 2393 0844 7B7F     		ldrb	r3, [r7, #29]	@ zero_extendqisi2
 2394 0846 0133     		adds	r3, r3, #1
 2395 0848 7B77     		strb	r3, [r7, #29]
 2396              	.L120:
 517:.\Protocolo.c ****         for(i=0;i<=size;i++){
 2397              		.loc 1 517 0 is_stmt 0 discriminator 1
 2398 084a 7A7F     		ldrb	r2, [r7, #29]	@ zero_extendqisi2
 2399 084c FB7F     		ldrb	r3, [r7, #31]	@ zero_extendqisi2
 2400 084e 9A42     		cmp	r2, r3
 2401 0850 EFD9     		bls	.L121
 519:.\Protocolo.c ****         }
 520:.\Protocolo.c **** 		CyDelay(50);		
 2402              		.loc 1 520 0 is_stmt 1
 2403 0852 3220     		movs	r0, #50
 2404 0854 FFF7FEFF 		bl	CyDelay
 521:.\Protocolo.c **** 		if(get_estado(dir)==0){
 2405              		.loc 1 521 0
 2406 0858 FB79     		ldrb	r3, [r7, #7]	@ zero_extendqisi2
 2407 085a 1846     		mov	r0, r3
 2408 085c FFF7FEFF 		bl	get_estado
 2409 0860 0346     		mov	r3, r0
 2410 0862 002B     		cmp	r3, #0
 2411 0864 01D1     		bne	.L122
 522:.\Protocolo.c **** 			return 0;
 2412              		.loc 1 522 0
 2413 0866 0023     		movs	r3, #0
 2414 0868 02E0     		b	.L123
 2415              	.L122:
 523:.\Protocolo.c **** 		}
 524:.\Protocolo.c **** 		else{
 525:.\Protocolo.c **** 			return 1;
 2416              		.loc 1 525 0
 2417 086a 0123     		movs	r3, #1
 2418 086c 00E0     		b	.L123
 2419              	.L119:
 526:.\Protocolo.c **** 		}
 527:.\Protocolo.c **** 	}
 528:.\Protocolo.c **** 	else{
 529:.\Protocolo.c **** 		return 0;
 2420              		.loc 1 529 0
 2421 086e 0023     		movs	r3, #0
 2422              	.L123:
 530:.\Protocolo.c **** 	}
ARM GAS  C:\Users\IN-002~1\AppData\Local\Temp\cchaWHVS.s 			page 54


 531:.\Protocolo.c **** }
 2423              		.loc 1 531 0 discriminator 1
 2424 0870 1846     		mov	r0, r3
 2425 0872 2037     		adds	r7, r7, #32
 2426              		.cfi_def_cfa_offset 8
 2427 0874 BD46     		mov	sp, r7
 2428              		.cfi_def_cfa_register 13
 2429              		@ sp needed
 2430 0876 80BD     		pop	{r7, pc}
 2431              	.L129:
 2432              		.align	2
 2433              	.L128:
 2434 0878 00000000 		.word	Rx_Surtidor
 2435 087c 00000000 		.word	rx_timeout
 2436              		.cfi_endproc
 2437              	.LFE69:
 2438              		.size	programar, .-programar
 2439              		.section	.text.cambiar_precio,"ax",%progbits
 2440              		.align	2
 2441              		.global	cambiar_precio
 2442              		.thumb
 2443              		.thumb_func
 2444              		.type	cambiar_precio, %function
 2445              	cambiar_precio:
 2446              	.LFB70:
 532:.\Protocolo.c **** 
 533:.\Protocolo.c **** /**
 534:.\Protocolo.c **** * cambiar_precio
 535:.\Protocolo.c **** * @brief Realiza el cambio de precio al producto según lo enviado por el Beagle
 536:.\Protocolo.c **** * @param dir posición del surtidor
 537:.\Protocolo.c **** * @param *precio apuntador al precio con el que se va a realizar el cambio
 538:.\Protocolo.c **** * @param num_man grado del equipo (manguera)
 539:.\Protocolo.c **** * @return 0 si hay error, 1 si realiza el cambio de precio
 540:.\Protocolo.c **** *
 541:.\Protocolo.c **** */
 542:.\Protocolo.c **** uint8 cambiar_precio(uint8 dir, uint8 *precio, uint8 num_man){
 2447              		.loc 1 542 0
 2448              		.cfi_startproc
 2449              		@ args = 0, pretend = 0, frame = 32
 2450              		@ frame_needed = 1, uses_anonymous_args = 0
 2451 0000 80B5     		push	{r7, lr}
 2452              		.cfi_def_cfa_offset 8
 2453              		.cfi_offset 7, -8
 2454              		.cfi_offset 14, -4
 2455 0002 88B0     		sub	sp, sp, #32
 2456              		.cfi_def_cfa_offset 40
 2457 0004 00AF     		add	r7, sp, #0
 2458              		.cfi_def_cfa_register 7
 2459 0006 0346     		mov	r3, r0
 2460 0008 3960     		str	r1, [r7]
 2461 000a FB71     		strb	r3, [r7, #7]
 2462 000c 1346     		mov	r3, r2
 2463 000e BB71     		strb	r3, [r7, #6]
 543:.\Protocolo.c **** 	uint8 buffer[15]={0,0,0,0,0,0,0,0,0,0,0,0,0,0,0},size,x;
 2464              		.loc 1 543 0
 2465 0010 0023     		movs	r3, #0
 2466 0012 3B73     		strb	r3, [r7, #12]
ARM GAS  C:\Users\IN-002~1\AppData\Local\Temp\cchaWHVS.s 			page 55


 2467 0014 0023     		movs	r3, #0
 2468 0016 7B73     		strb	r3, [r7, #13]
 2469 0018 0023     		movs	r3, #0
 2470 001a BB73     		strb	r3, [r7, #14]
 2471 001c 0023     		movs	r3, #0
 2472 001e FB73     		strb	r3, [r7, #15]
 2473 0020 0023     		movs	r3, #0
 2474 0022 3B74     		strb	r3, [r7, #16]
 2475 0024 0023     		movs	r3, #0
 2476 0026 7B74     		strb	r3, [r7, #17]
 2477 0028 0023     		movs	r3, #0
 2478 002a BB74     		strb	r3, [r7, #18]
 2479 002c 0023     		movs	r3, #0
 2480 002e FB74     		strb	r3, [r7, #19]
 2481 0030 0023     		movs	r3, #0
 2482 0032 3B75     		strb	r3, [r7, #20]
 2483 0034 0023     		movs	r3, #0
 2484 0036 7B75     		strb	r3, [r7, #21]
 2485 0038 0023     		movs	r3, #0
 2486 003a BB75     		strb	r3, [r7, #22]
 2487 003c 0023     		movs	r3, #0
 2488 003e FB75     		strb	r3, [r7, #23]
 2489 0040 0023     		movs	r3, #0
 2490 0042 3B76     		strb	r3, [r7, #24]
 2491 0044 0023     		movs	r3, #0
 2492 0046 7B76     		strb	r3, [r7, #25]
 2493 0048 0023     		movs	r3, #0
 2494 004a BB76     		strb	r3, [r7, #26]
 544:.\Protocolo.c **** 	if(version[1]!=7){
 2495              		.loc 1 544 0
 2496 004c 884B     		ldr	r3, .L149
 2497 004e 5B78     		ldrb	r3, [r3, #1]
 2498 0050 DBB2     		uxtb	r3, r3
 2499 0052 072B     		cmp	r3, #7
 2500 0054 56D0     		beq	.L131
 545:.\Protocolo.c **** 		buffer[0]=0xFF;
 2501              		.loc 1 545 0
 2502 0056 FF23     		movs	r3, #255
 2503 0058 3B73     		strb	r3, [r7, #12]
 546:.\Protocolo.c **** 		buffer[1]=0xE5;
 2504              		.loc 1 546 0
 2505 005a E523     		movs	r3, #229
 2506 005c 7B73     		strb	r3, [r7, #13]
 547:.\Protocolo.c **** 		buffer[2]=0xF4;
 2507              		.loc 1 547 0
 2508 005e F423     		movs	r3, #244
 2509 0060 BB73     		strb	r3, [r7, #14]
 548:.\Protocolo.c **** 		buffer[3]=0xF6;
 2510              		.loc 1 548 0
 2511 0062 F623     		movs	r3, #246
 2512 0064 FB73     		strb	r3, [r7, #15]
 549:.\Protocolo.c **** 		buffer[4]=(0xE0|(num_man-1));
 2513              		.loc 1 549 0
 2514 0066 BB79     		ldrb	r3, [r7, #6]
 2515 0068 013B     		subs	r3, r3, #1
 2516 006a DBB2     		uxtb	r3, r3
 2517 006c DBB2     		uxtb	r3, r3
ARM GAS  C:\Users\IN-002~1\AppData\Local\Temp\cchaWHVS.s 			page 56


 2518 006e 63F01F03 		orn	r3, r3, #31
 2519 0072 DBB2     		uxtb	r3, r3
 2520 0074 DBB2     		uxtb	r3, r3
 2521 0076 3B74     		strb	r3, [r7, #16]
 550:.\Protocolo.c **** 		buffer[5]=0xF7;	
 2522              		.loc 1 550 0
 2523 0078 F723     		movs	r3, #247
 2524 007a 7B74     		strb	r3, [r7, #17]
 551:.\Protocolo.c **** 		for(x=6;x<=9;x++){
 2525              		.loc 1 551 0
 2526 007c 0623     		movs	r3, #6
 2527 007e BB77     		strb	r3, [r7, #30]
 2528 0080 15E0     		b	.L132
 2529              	.L133:
 552:.\Protocolo.c **** 			buffer[x]=(0xE0|(precio[x-6]&0x0F));
 2530              		.loc 1 552 0 discriminator 3
 2531 0082 BB7F     		ldrb	r3, [r7, #30]	@ zero_extendqisi2
 2532 0084 BA7F     		ldrb	r2, [r7, #30]	@ zero_extendqisi2
 2533 0086 063A     		subs	r2, r2, #6
 2534 0088 3968     		ldr	r1, [r7]
 2535 008a 0A44     		add	r2, r2, r1
 2536 008c 1278     		ldrb	r2, [r2]	@ zero_extendqisi2
 2537 008e D2B2     		uxtb	r2, r2
 2538 0090 02F00F02 		and	r2, r2, #15
 2539 0094 D2B2     		uxtb	r2, r2
 2540 0096 62F01F02 		orn	r2, r2, #31
 2541 009a D2B2     		uxtb	r2, r2
 2542 009c D2B2     		uxtb	r2, r2
 2543 009e 07F12001 		add	r1, r7, #32
 2544 00a2 0B44     		add	r3, r3, r1
 2545 00a4 03F8142C 		strb	r2, [r3, #-20]
 551:.\Protocolo.c **** 		for(x=6;x<=9;x++){
 2546              		.loc 1 551 0 discriminator 3
 2547 00a8 BB7F     		ldrb	r3, [r7, #30]	@ zero_extendqisi2
 2548 00aa 0133     		adds	r3, r3, #1
 2549 00ac BB77     		strb	r3, [r7, #30]
 2550              	.L132:
 551:.\Protocolo.c **** 		for(x=6;x<=9;x++){
 2551              		.loc 1 551 0 is_stmt 0 discriminator 1
 2552 00ae BB7F     		ldrb	r3, [r7, #30]	@ zero_extendqisi2
 2553 00b0 092B     		cmp	r3, #9
 2554 00b2 E6D9     		bls	.L133
 553:.\Protocolo.c **** 		}
 554:.\Protocolo.c **** 		buffer[10]=0xFB;
 2555              		.loc 1 554 0 is_stmt 1
 2556 00b4 FB23     		movs	r3, #251
 2557 00b6 BB75     		strb	r3, [r7, #22]
 555:.\Protocolo.c **** 		for(x=0;x<=10;x++){
 2558              		.loc 1 555 0
 2559 00b8 0023     		movs	r3, #0
 2560 00ba BB77     		strb	r3, [r7, #30]
 2561 00bc 0FE0     		b	.L134
 2562              	.L135:
 556:.\Protocolo.c **** 			buffer[11]+=(buffer[x]&0x0F);	
 2563              		.loc 1 556 0 discriminator 3
 2564 00be FA7D     		ldrb	r2, [r7, #23]	@ zero_extendqisi2
 2565 00c0 BB7F     		ldrb	r3, [r7, #30]	@ zero_extendqisi2
ARM GAS  C:\Users\IN-002~1\AppData\Local\Temp\cchaWHVS.s 			page 57


 2566 00c2 07F12001 		add	r1, r7, #32
 2567 00c6 0B44     		add	r3, r3, r1
 2568 00c8 13F8143C 		ldrb	r3, [r3, #-20]	@ zero_extendqisi2
 2569 00cc 03F00F03 		and	r3, r3, #15
 2570 00d0 DBB2     		uxtb	r3, r3
 2571 00d2 1344     		add	r3, r3, r2
 2572 00d4 DBB2     		uxtb	r3, r3
 2573 00d6 FB75     		strb	r3, [r7, #23]
 555:.\Protocolo.c **** 		for(x=0;x<=10;x++){
 2574              		.loc 1 555 0 discriminator 3
 2575 00d8 BB7F     		ldrb	r3, [r7, #30]	@ zero_extendqisi2
 2576 00da 0133     		adds	r3, r3, #1
 2577 00dc BB77     		strb	r3, [r7, #30]
 2578              	.L134:
 555:.\Protocolo.c **** 		for(x=0;x<=10;x++){
 2579              		.loc 1 555 0 is_stmt 0 discriminator 1
 2580 00de BB7F     		ldrb	r3, [r7, #30]	@ zero_extendqisi2
 2581 00e0 0A2B     		cmp	r3, #10
 2582 00e2 ECD9     		bls	.L135
 557:.\Protocolo.c **** 		}
 558:.\Protocolo.c **** 		buffer[11]=(((~buffer[11])+1)&0x0F)|0xE0;
 2583              		.loc 1 558 0 is_stmt 1
 2584 00e4 FB7D     		ldrb	r3, [r7, #23]	@ zero_extendqisi2
 2585 00e6 5B42     		negs	r3, r3
 2586 00e8 DBB2     		uxtb	r3, r3
 2587 00ea DBB2     		uxtb	r3, r3
 2588 00ec 03F00F03 		and	r3, r3, #15
 2589 00f0 DBB2     		uxtb	r3, r3
 2590 00f2 63F01F03 		orn	r3, r3, #31
 2591 00f6 DBB2     		uxtb	r3, r3
 2592 00f8 DBB2     		uxtb	r3, r3
 2593 00fa FB75     		strb	r3, [r7, #23]
 559:.\Protocolo.c **** 		buffer[12]=0xF0;
 2594              		.loc 1 559 0
 2595 00fc F023     		movs	r3, #240
 2596 00fe 3B76     		strb	r3, [r7, #24]
 560:.\Protocolo.c **** 		size=12;
 2597              		.loc 1 560 0
 2598 0100 0C23     		movs	r3, #12
 2599 0102 FB77     		strb	r3, [r7, #31]
 2600              	.L131:
 561:.\Protocolo.c **** 	}
 562:.\Protocolo.c **** 	if(version[1]==7){
 2601              		.loc 1 562 0
 2602 0104 5A4B     		ldr	r3, .L149
 2603 0106 5B78     		ldrb	r3, [r3, #1]
 2604 0108 DBB2     		uxtb	r3, r3
 2605 010a 072B     		cmp	r3, #7
 2606 010c 53D1     		bne	.L136
 563:.\Protocolo.c **** 		buffer[0]=0xFF;
 2607              		.loc 1 563 0
 2608 010e FF23     		movs	r3, #255
 2609 0110 3B73     		strb	r3, [r7, #12]
 564:.\Protocolo.c **** 		buffer[1]=0xE3;
 2610              		.loc 1 564 0
 2611 0112 E323     		movs	r3, #227
 2612 0114 7B73     		strb	r3, [r7, #13]
ARM GAS  C:\Users\IN-002~1\AppData\Local\Temp\cchaWHVS.s 			page 58


 565:.\Protocolo.c **** 		buffer[2]=0xF4;
 2613              		.loc 1 565 0
 2614 0116 F423     		movs	r3, #244
 2615 0118 BB73     		strb	r3, [r7, #14]
 566:.\Protocolo.c **** 		buffer[3]=0xF6;
 2616              		.loc 1 566 0
 2617 011a F623     		movs	r3, #246
 2618 011c FB73     		strb	r3, [r7, #15]
 567:.\Protocolo.c **** 		buffer[4]=(0xE0|(num_man-1));
 2619              		.loc 1 567 0
 2620 011e BB79     		ldrb	r3, [r7, #6]
 2621 0120 013B     		subs	r3, r3, #1
 2622 0122 DBB2     		uxtb	r3, r3
 2623 0124 DBB2     		uxtb	r3, r3
 2624 0126 63F01F03 		orn	r3, r3, #31
 2625 012a DBB2     		uxtb	r3, r3
 2626 012c DBB2     		uxtb	r3, r3
 2627 012e 3B74     		strb	r3, [r7, #16]
 568:.\Protocolo.c **** 		buffer[5]=0xF7;		
 2628              		.loc 1 568 0
 2629 0130 F723     		movs	r3, #247
 2630 0132 7B74     		strb	r3, [r7, #17]
 569:.\Protocolo.c **** 		for(x=6;x<=10;x++){
 2631              		.loc 1 569 0
 2632 0134 0623     		movs	r3, #6
 2633 0136 BB77     		strb	r3, [r7, #30]
 2634 0138 10E0     		b	.L137
 2635              	.L138:
 570:.\Protocolo.c **** 			buffer[x]=(0xE0|precio[x-6]);
 2636              		.loc 1 570 0 discriminator 3
 2637 013a BB7F     		ldrb	r3, [r7, #30]	@ zero_extendqisi2
 2638 013c BA7F     		ldrb	r2, [r7, #30]	@ zero_extendqisi2
 2639 013e 063A     		subs	r2, r2, #6
 2640 0140 3968     		ldr	r1, [r7]
 2641 0142 0A44     		add	r2, r2, r1
 2642 0144 1278     		ldrb	r2, [r2]	@ zero_extendqisi2
 2643 0146 62F01F02 		orn	r2, r2, #31
 2644 014a D2B2     		uxtb	r2, r2
 2645 014c 07F12001 		add	r1, r7, #32
 2646 0150 0B44     		add	r3, r3, r1
 2647 0152 03F8142C 		strb	r2, [r3, #-20]
 569:.\Protocolo.c **** 		for(x=6;x<=10;x++){
 2648              		.loc 1 569 0 discriminator 3
 2649 0156 BB7F     		ldrb	r3, [r7, #30]	@ zero_extendqisi2
 2650 0158 0133     		adds	r3, r3, #1
 2651 015a BB77     		strb	r3, [r7, #30]
 2652              	.L137:
 569:.\Protocolo.c **** 		for(x=6;x<=10;x++){
 2653              		.loc 1 569 0 is_stmt 0 discriminator 1
 2654 015c BB7F     		ldrb	r3, [r7, #30]	@ zero_extendqisi2
 2655 015e 0A2B     		cmp	r3, #10
 2656 0160 EBD9     		bls	.L138
 571:.\Protocolo.c **** 		}
 572:.\Protocolo.c **** 		buffer[11]=0xE0;
 2657              		.loc 1 572 0 is_stmt 1
 2658 0162 E023     		movs	r3, #224
 2659 0164 FB75     		strb	r3, [r7, #23]
ARM GAS  C:\Users\IN-002~1\AppData\Local\Temp\cchaWHVS.s 			page 59


 573:.\Protocolo.c **** 		buffer[12]=0xFB;
 2660              		.loc 1 573 0
 2661 0166 FB23     		movs	r3, #251
 2662 0168 3B76     		strb	r3, [r7, #24]
 574:.\Protocolo.c **** 		for(x=0;x<=12;x++){
 2663              		.loc 1 574 0
 2664 016a 0023     		movs	r3, #0
 2665 016c BB77     		strb	r3, [r7, #30]
 2666 016e 0FE0     		b	.L139
 2667              	.L140:
 575:.\Protocolo.c **** 			buffer[13]+=(buffer[x]&0x0F);	
 2668              		.loc 1 575 0 discriminator 3
 2669 0170 7A7E     		ldrb	r2, [r7, #25]	@ zero_extendqisi2
 2670 0172 BB7F     		ldrb	r3, [r7, #30]	@ zero_extendqisi2
 2671 0174 07F12001 		add	r1, r7, #32
 2672 0178 0B44     		add	r3, r3, r1
 2673 017a 13F8143C 		ldrb	r3, [r3, #-20]	@ zero_extendqisi2
 2674 017e 03F00F03 		and	r3, r3, #15
 2675 0182 DBB2     		uxtb	r3, r3
 2676 0184 1344     		add	r3, r3, r2
 2677 0186 DBB2     		uxtb	r3, r3
 2678 0188 7B76     		strb	r3, [r7, #25]
 574:.\Protocolo.c **** 		for(x=0;x<=12;x++){
 2679              		.loc 1 574 0 discriminator 3
 2680 018a BB7F     		ldrb	r3, [r7, #30]	@ zero_extendqisi2
 2681 018c 0133     		adds	r3, r3, #1
 2682 018e BB77     		strb	r3, [r7, #30]
 2683              	.L139:
 574:.\Protocolo.c **** 		for(x=0;x<=12;x++){
 2684              		.loc 1 574 0 is_stmt 0 discriminator 1
 2685 0190 BB7F     		ldrb	r3, [r7, #30]	@ zero_extendqisi2
 2686 0192 0C2B     		cmp	r3, #12
 2687 0194 ECD9     		bls	.L140
 576:.\Protocolo.c **** 		}
 577:.\Protocolo.c **** 		buffer[13]=(((~buffer[13])+1)&0x0F)|0xE0;
 2688              		.loc 1 577 0 is_stmt 1
 2689 0196 7B7E     		ldrb	r3, [r7, #25]	@ zero_extendqisi2
 2690 0198 5B42     		negs	r3, r3
 2691 019a DBB2     		uxtb	r3, r3
 2692 019c DBB2     		uxtb	r3, r3
 2693 019e 03F00F03 		and	r3, r3, #15
 2694 01a2 DBB2     		uxtb	r3, r3
 2695 01a4 63F01F03 		orn	r3, r3, #31
 2696 01a8 DBB2     		uxtb	r3, r3
 2697 01aa DBB2     		uxtb	r3, r3
 2698 01ac 7B76     		strb	r3, [r7, #25]
 578:.\Protocolo.c **** 		buffer[14]=0xF0;
 2699              		.loc 1 578 0
 2700 01ae F023     		movs	r3, #240
 2701 01b0 BB76     		strb	r3, [r7, #26]
 579:.\Protocolo.c **** 		size=14;
 2702              		.loc 1 579 0
 2703 01b2 0E23     		movs	r3, #14
 2704 01b4 FB77     		strb	r3, [r7, #31]
 2705              	.L136:
 580:.\Protocolo.c **** 	}
 581:.\Protocolo.c **** 	Surtidor_ClearRxBuffer();
ARM GAS  C:\Users\IN-002~1\AppData\Local\Temp\cchaWHVS.s 			page 60


 2706              		.loc 1 581 0
 2707 01b6 FFF7FEFF 		bl	Surtidor_ClearRxBuffer
 582:.\Protocolo.c **** 	Surtidor_PutChar(0x20|dir);
 2708              		.loc 1 582 0
 2709 01ba FB79     		ldrb	r3, [r7, #7]
 2710 01bc 43F02003 		orr	r3, r3, #32
 2711 01c0 DBB2     		uxtb	r3, r3
 2712 01c2 1846     		mov	r0, r3
 2713 01c4 FFF7FEFF 		bl	Surtidor_PutChar
 583:.\Protocolo.c **** 	isr_1_StartEx(Rx_Surtidor);
 2714              		.loc 1 583 0
 2715 01c8 2A48     		ldr	r0, .L149+4
 2716 01ca FFF7FEFF 		bl	isr_1_StartEx
 584:.\Protocolo.c ****     Timer_RxSurtidor_Start();	
 2717              		.loc 1 584 0
 2718 01ce FFF7FEFF 		bl	Timer_RxSurtidor_Start
 585:.\Protocolo.c ****     rx_timeout=0;
 2719              		.loc 1 585 0
 2720 01d2 294B     		ldr	r3, .L149+8
 2721 01d4 0022     		movs	r2, #0
 2722 01d6 1A70     		strb	r2, [r3]
 586:.\Protocolo.c **** 	while(Surtidor_GetRxBufferSize()==0){
 2723              		.loc 1 586 0
 2724 01d8 0BE0     		b	.L141
 2725              	.L143:
 587:.\Protocolo.c **** 		if(rx_timeout==1){
 2726              		.loc 1 587 0
 2727 01da 274B     		ldr	r3, .L149+8
 2728 01dc 1B78     		ldrb	r3, [r3]	@ zero_extendqisi2
 2729 01de 012B     		cmp	r3, #1
 2730 01e0 07D1     		bne	.L141
 588:.\Protocolo.c **** 			isr_1_Stop();
 2731              		.loc 1 588 0
 2732 01e2 FFF7FEFF 		bl	isr_1_Stop
 589:.\Protocolo.c **** 			Timer_RxSurtidor_Stop();
 2733              		.loc 1 589 0
 2734 01e6 FFF7FEFF 		bl	Timer_RxSurtidor_Stop
 590:.\Protocolo.c ****     		Surtidor_ClearRxBuffer();			
 2735              		.loc 1 590 0
 2736 01ea FFF7FEFF 		bl	Surtidor_ClearRxBuffer
 591:.\Protocolo.c **** 			return 0;
 2737              		.loc 1 591 0
 2738 01ee 0023     		movs	r3, #0
 2739 01f0 39E0     		b	.L148
 2740              	.L141:
 586:.\Protocolo.c **** 		if(rx_timeout==1){
 2741              		.loc 1 586 0
 2742 01f2 FFF7FEFF 		bl	Surtidor_GetRxBufferSize
 2743 01f6 0346     		mov	r3, r0
 2744 01f8 002B     		cmp	r3, #0
 2745 01fa EED0     		beq	.L143
 592:.\Protocolo.c **** 		}
 593:.\Protocolo.c **** 	}
 594:.\Protocolo.c **** 	isr_1_Stop();
 2746              		.loc 1 594 0
 2747 01fc FFF7FEFF 		bl	isr_1_Stop
 595:.\Protocolo.c **** 	Timer_RxSurtidor_Stop();
ARM GAS  C:\Users\IN-002~1\AppData\Local\Temp\cchaWHVS.s 			page 61


 2748              		.loc 1 595 0
 2749 0200 FFF7FEFF 		bl	Timer_RxSurtidor_Stop
 596:.\Protocolo.c **** 	if(Surtidor_ReadRxData()==(0xD0|dir)){
 2750              		.loc 1 596 0
 2751 0204 FFF7FEFF 		bl	Surtidor_ReadRxData
 2752 0208 0346     		mov	r3, r0
 2753 020a 1A46     		mov	r2, r3
 2754 020c FB79     		ldrb	r3, [r7, #7]
 2755 020e 63F02F03 		orn	r3, r3, #47
 2756 0212 DBB2     		uxtb	r3, r3
 2757 0214 9A42     		cmp	r2, r3
 2758 0216 25D1     		bne	.L144
 597:.\Protocolo.c ****         Surtidor_ClearRxBuffer();
 2759              		.loc 1 597 0
 2760 0218 FFF7FEFF 		bl	Surtidor_ClearRxBuffer
 598:.\Protocolo.c **** 		CyDelay(10);
 2761              		.loc 1 598 0
 2762 021c 0A20     		movs	r0, #10
 2763 021e FFF7FEFF 		bl	CyDelay
 599:.\Protocolo.c ****         for(x=0;x<=size;x++){
 2764              		.loc 1 599 0
 2765 0222 0023     		movs	r3, #0
 2766 0224 BB77     		strb	r3, [r7, #30]
 2767 0226 0BE0     		b	.L145
 2768              	.L146:
 600:.\Protocolo.c ****            	Surtidor_PutChar(buffer[x]);
 2769              		.loc 1 600 0 discriminator 3
 2770 0228 BB7F     		ldrb	r3, [r7, #30]	@ zero_extendqisi2
 2771 022a 07F12002 		add	r2, r7, #32
 2772 022e 1344     		add	r3, r3, r2
 2773 0230 13F8143C 		ldrb	r3, [r3, #-20]	@ zero_extendqisi2
 2774 0234 1846     		mov	r0, r3
 2775 0236 FFF7FEFF 		bl	Surtidor_PutChar
 599:.\Protocolo.c ****         for(x=0;x<=size;x++){
 2776              		.loc 1 599 0 discriminator 3
 2777 023a BB7F     		ldrb	r3, [r7, #30]	@ zero_extendqisi2
 2778 023c 0133     		adds	r3, r3, #1
 2779 023e BB77     		strb	r3, [r7, #30]
 2780              	.L145:
 599:.\Protocolo.c ****         for(x=0;x<=size;x++){
 2781              		.loc 1 599 0 is_stmt 0 discriminator 1
 2782 0240 BA7F     		ldrb	r2, [r7, #30]	@ zero_extendqisi2
 2783 0242 FB7F     		ldrb	r3, [r7, #31]	@ zero_extendqisi2
 2784 0244 9A42     		cmp	r2, r3
 2785 0246 EFD9     		bls	.L146
 601:.\Protocolo.c ****         }
 602:.\Protocolo.c **** 		CyDelay(50);		
 2786              		.loc 1 602 0 is_stmt 1
 2787 0248 3220     		movs	r0, #50
 2788 024a FFF7FEFF 		bl	CyDelay
 603:.\Protocolo.c **** 		if(get_estado(dir)==0){
 2789              		.loc 1 603 0
 2790 024e FB79     		ldrb	r3, [r7, #7]	@ zero_extendqisi2
 2791 0250 1846     		mov	r0, r3
 2792 0252 FFF7FEFF 		bl	get_estado
 2793 0256 0346     		mov	r3, r0
 2794 0258 002B     		cmp	r3, #0
ARM GAS  C:\Users\IN-002~1\AppData\Local\Temp\cchaWHVS.s 			page 62


 2795 025a 01D1     		bne	.L147
 604:.\Protocolo.c **** 			return 0;
 2796              		.loc 1 604 0
 2797 025c 0023     		movs	r3, #0
 2798 025e 02E0     		b	.L148
 2799              	.L147:
 605:.\Protocolo.c **** 		}
 606:.\Protocolo.c **** 		else{
 607:.\Protocolo.c **** 			return 1;
 2800              		.loc 1 607 0
 2801 0260 0123     		movs	r3, #1
 2802 0262 00E0     		b	.L148
 2803              	.L144:
 608:.\Protocolo.c **** 		}
 609:.\Protocolo.c **** 	}
 610:.\Protocolo.c **** 	else{
 611:.\Protocolo.c **** 		return 0;
 2804              		.loc 1 611 0
 2805 0264 0023     		movs	r3, #0
 2806              	.L148:
 612:.\Protocolo.c **** 	}
 613:.\Protocolo.c **** }
 2807              		.loc 1 613 0 discriminator 1
 2808 0266 1846     		mov	r0, r3
 2809 0268 2037     		adds	r7, r7, #32
 2810              		.cfi_def_cfa_offset 8
 2811 026a BD46     		mov	sp, r7
 2812              		.cfi_def_cfa_register 13
 2813              		@ sp needed
 2814 026c 80BD     		pop	{r7, pc}
 2815              	.L150:
 2816 026e 00BF     		.align	2
 2817              	.L149:
 2818 0270 00000000 		.word	version
 2819 0274 00000000 		.word	Rx_Surtidor
 2820 0278 00000000 		.word	rx_timeout
 2821              		.cfi_endproc
 2822              	.LFE70:
 2823              		.size	cambiar_precio, .-cambiar_precio
 2824              		.section	.text.totales,"ax",%progbits
 2825              		.align	2
 2826              		.global	totales
 2827              		.thumb
 2828              		.thumb_func
 2829              		.type	totales, %function
 2830              	totales:
 2831              	.LFB71:
 614:.\Protocolo.c **** 
 615:.\Protocolo.c **** /**
 616:.\Protocolo.c **** * totales
 617:.\Protocolo.c **** * @brief Obtiene los totales electrónicos del equipo
 618:.\Protocolo.c **** * almacena los valores obtenidos en las variables ladox.totales
 619:.\Protocolo.c **** * @param dir posición del surtidor
 620:.\Protocolo.c **** * @param nmangueras numero de mangueras definidas
 621:.\Protocolo.c **** * @return 0 si hay error, =!0 si se realizan las operaciones   
 622:.\Protocolo.c **** *
 623:.\Protocolo.c **** */
ARM GAS  C:\Users\IN-002~1\AppData\Local\Temp\cchaWHVS.s 			page 63


 624:.\Protocolo.c **** uint8 totales(uint8 dir, uint8 nmangueras){
 2832              		.loc 1 624 0
 2833              		.cfi_startproc
 2834              		@ args = 0, pretend = 0, frame = 16
 2835              		@ frame_needed = 1, uses_anonymous_args = 0
 2836 0000 80B5     		push	{r7, lr}
 2837              		.cfi_def_cfa_offset 8
 2838              		.cfi_offset 7, -8
 2839              		.cfi_offset 14, -4
 2840 0002 84B0     		sub	sp, sp, #16
 2841              		.cfi_def_cfa_offset 24
 2842 0004 00AF     		add	r7, sp, #0
 2843              		.cfi_def_cfa_register 7
 2844 0006 0346     		mov	r3, r0
 2845 0008 0A46     		mov	r2, r1
 2846 000a FB71     		strb	r3, [r7, #7]
 2847 000c 1346     		mov	r3, r2
 2848 000e BB71     		strb	r3, [r7, #6]
 625:.\Protocolo.c **** 	uint8 x,y;
 626:.\Protocolo.c **** 	Surtidor_ClearRxBuffer();
 2849              		.loc 1 626 0
 2850 0010 FFF7FEFF 		bl	Surtidor_ClearRxBuffer
 627:.\Protocolo.c ****     Surtidor_PutChar(0x50|dir);
 2851              		.loc 1 627 0
 2852 0014 FB79     		ldrb	r3, [r7, #7]
 2853 0016 43F05003 		orr	r3, r3, #80
 2854 001a DBB2     		uxtb	r3, r3
 2855 001c 1846     		mov	r0, r3
 2856 001e FFF7FEFF 		bl	Surtidor_PutChar
 628:.\Protocolo.c ****     rx_timeout=0;
 2857              		.loc 1 628 0
 2858 0022 B04B     		ldr	r3, .L353
 2859 0024 0022     		movs	r2, #0
 2860 0026 1A70     		strb	r2, [r3]
 629:.\Protocolo.c **** 	CyDelay(300);
 2861              		.loc 1 629 0
 2862 0028 4FF49670 		mov	r0, #300
 2863 002c FFF7FEFF 		bl	CyDelay
 630:.\Protocolo.c **** 	if(Surtidor_GetRxBufferSize()>=1){
 2864              		.loc 1 630 0
 2865 0030 FFF7FEFF 		bl	Surtidor_GetRxBufferSize
 2866 0034 0346     		mov	r3, r0
 2867 0036 002B     		cmp	r3, #0
 2868 0038 01F02280 		beq	.L152
 631:.\Protocolo.c **** 		if(dir==lado1.dir){
 2869              		.loc 1 631 0
 2870 003c AA4B     		ldr	r3, .L353+4
 2871 003e 1B78     		ldrb	r3, [r3]
 2872 0040 DBB2     		uxtb	r3, r3
 2873 0042 FA79     		ldrb	r2, [r7, #7]	@ zero_extendqisi2
 2874 0044 9A42     		cmp	r2, r3
 2875 0046 40F01F84 		bne	.L153
 632:.\Protocolo.c **** 			if(version[1]!=7){
 2876              		.loc 1 632 0
 2877 004a A84B     		ldr	r3, .L353+8
 2878 004c 5B78     		ldrb	r3, [r3, #1]
 2879 004e DBB2     		uxtb	r3, r3
ARM GAS  C:\Users\IN-002~1\AppData\Local\Temp\cchaWHVS.s 			page 64


 2880 0050 072B     		cmp	r3, #7
 2881 0052 00F00C82 		beq	.L154
 633:.\Protocolo.c **** 				CyDelay(900);
 2882              		.loc 1 633 0
 2883 0056 4FF46170 		mov	r0, #900
 2884 005a FFF7FEFF 		bl	CyDelay
 634:.\Protocolo.c **** 				x=Surtidor_GetRxBufferSize();
 2885              		.loc 1 634 0
 2886 005e FFF7FEFF 		bl	Surtidor_GetRxBufferSize
 2887 0062 0346     		mov	r3, r0
 2888 0064 FB73     		strb	r3, [r7, #15]
 635:.\Protocolo.c **** 				if((x==34)||(x==64)||(x==94)){
 2889              		.loc 1 635 0
 2890 0066 FB7B     		ldrb	r3, [r7, #15]	@ zero_extendqisi2
 2891 0068 222B     		cmp	r3, #34
 2892 006a 06D0     		beq	.L155
 2893              		.loc 1 635 0 is_stmt 0 discriminator 1
 2894 006c FB7B     		ldrb	r3, [r7, #15]	@ zero_extendqisi2
 2895 006e 402B     		cmp	r3, #64
 2896 0070 03D0     		beq	.L155
 2897              		.loc 1 635 0 discriminator 2
 2898 0072 FB7B     		ldrb	r3, [r7, #15]	@ zero_extendqisi2
 2899 0074 5E2B     		cmp	r3, #94
 2900 0076 40F0F581 		bne	.L156
 2901              	.L155:
 636:.\Protocolo.c **** 					if((Surtidor_rxBuffer[0]==0xFF)&&(Surtidor_rxBuffer[1]==0xF6)&&(Surtidor_rxBuffer[3]==0xF9))  
 2902              		.loc 1 636 0 is_stmt 1
 2903 007a 9D4B     		ldr	r3, .L353+12
 2904 007c 1B78     		ldrb	r3, [r3]
 2905 007e DBB2     		uxtb	r3, r3
 2906 0080 FF2B     		cmp	r3, #255
 2907 0082 40F0EA81 		bne	.L157
 2908              		.loc 1 636 0 is_stmt 0 discriminator 1
 2909 0086 9A4B     		ldr	r3, .L353+12
 2910 0088 5B78     		ldrb	r3, [r3, #1]
 2911 008a DBB2     		uxtb	r3, r3
 2912 008c F62B     		cmp	r3, #246
 2913 008e 40F0E481 		bne	.L157
 2914              		.loc 1 636 0 discriminator 2
 2915 0092 974B     		ldr	r3, .L353+12
 2916 0094 DB78     		ldrb	r3, [r3, #3]
 2917 0096 DBB2     		uxtb	r3, r3
 2918 0098 F92B     		cmp	r3, #249
 2919 009a 40F0DE81 		bne	.L157
 637:.\Protocolo.c ****                     {                     
 638:.\Protocolo.c ****                     	for(y=0;y<=2;y++){// MOD: inicializa valores en cero
 2920              		.loc 1 638 0 is_stmt 1
 2921 009e 0023     		movs	r3, #0
 2922 00a0 BB73     		strb	r3, [r7, #14]
 2923 00a2 16E0     		b	.L158
 2924              	.L161:
 639:.\Protocolo.c ****                     		for(x=0;x<=23;x++){
 2925              		.loc 1 639 0
 2926 00a4 0023     		movs	r3, #0
 2927 00a6 FB73     		strb	r3, [r7, #15]
 2928 00a8 0DE0     		b	.L159
 2929              	.L160:
ARM GAS  C:\Users\IN-002~1\AppData\Local\Temp\cchaWHVS.s 			page 65


 640:.\Protocolo.c ****                     			lado1.totales[y][x]=0;
 2930              		.loc 1 640 0 discriminator 3
 2931 00aa BA7B     		ldrb	r2, [r7, #14]	@ zero_extendqisi2
 2932 00ac F97B     		ldrb	r1, [r7, #15]	@ zero_extendqisi2
 2933 00ae 8E48     		ldr	r0, .L353+4
 2934 00b0 1346     		mov	r3, r2
 2935 00b2 5B00     		lsls	r3, r3, #1
 2936 00b4 1344     		add	r3, r3, r2
 2937 00b6 DB00     		lsls	r3, r3, #3
 2938 00b8 0B44     		add	r3, r3, r1
 2939 00ba 0344     		add	r3, r3, r0
 2940 00bc 0022     		movs	r2, #0
 2941 00be 9A70     		strb	r2, [r3, #2]
 639:.\Protocolo.c ****                     		for(x=0;x<=23;x++){
 2942              		.loc 1 639 0 discriminator 3
 2943 00c0 FB7B     		ldrb	r3, [r7, #15]	@ zero_extendqisi2
 2944 00c2 0133     		adds	r3, r3, #1
 2945 00c4 FB73     		strb	r3, [r7, #15]
 2946              	.L159:
 639:.\Protocolo.c ****                     		for(x=0;x<=23;x++){
 2947              		.loc 1 639 0 is_stmt 0 discriminator 1
 2948 00c6 FB7B     		ldrb	r3, [r7, #15]	@ zero_extendqisi2
 2949 00c8 172B     		cmp	r3, #23
 2950 00ca EED9     		bls	.L160
 638:.\Protocolo.c ****                     		for(x=0;x<=23;x++){
 2951              		.loc 1 638 0 is_stmt 1 discriminator 2
 2952 00cc BB7B     		ldrb	r3, [r7, #14]	@ zero_extendqisi2
 2953 00ce 0133     		adds	r3, r3, #1
 2954 00d0 BB73     		strb	r3, [r7, #14]
 2955              	.L158:
 638:.\Protocolo.c ****                     		for(x=0;x<=23;x++){
 2956              		.loc 1 638 0 is_stmt 0 discriminator 1
 2957 00d2 BB7B     		ldrb	r3, [r7, #14]	@ zero_extendqisi2
 2958 00d4 022B     		cmp	r3, #2
 2959 00d6 E5D9     		bls	.L161
 641:.\Protocolo.c ****                     		}
 642:.\Protocolo.c ****                     	}                        
 643:.\Protocolo.c **** 						for(x=0;x<=7;x++){///producto 1 6xto digito
 2960              		.loc 1 643 0 is_stmt 1
 2961 00d8 0023     		movs	r3, #0
 2962 00da FB73     		strb	r3, [r7, #15]
 2963 00dc 21E0     		b	.L162
 2964              	.L166:
 644:.\Protocolo.c **** 							lado1.totales[0][x]=Surtidor_rxBuffer[x+4];
 2965              		.loc 1 644 0
 2966 00de FB7B     		ldrb	r3, [r7, #15]	@ zero_extendqisi2
 2967 00e0 FA7B     		ldrb	r2, [r7, #15]	@ zero_extendqisi2
 2968 00e2 0432     		adds	r2, r2, #4
 2969 00e4 8249     		ldr	r1, .L353+12
 2970 00e6 8A5C     		ldrb	r2, [r1, r2]
 2971 00e8 D1B2     		uxtb	r1, r2
 2972 00ea 7F4A     		ldr	r2, .L353+4
 2973 00ec 1344     		add	r3, r3, r2
 2974 00ee 0A46     		mov	r2, r1
 2975 00f0 9A70     		strb	r2, [r3, #2]
 645:.\Protocolo.c ****                             ///////////''modificacion actual''//// Se añade esta verificacion para
 646:.\Protocolo.c **** 							if(lado1.totales[0][x]==0||(lado1.totales[0][x]&0xF0)!=0xE0){
ARM GAS  C:\Users\IN-002~1\AppData\Local\Temp\cchaWHVS.s 			page 66


 2976              		.loc 1 646 0
 2977 00f2 FB7B     		ldrb	r3, [r7, #15]	@ zero_extendqisi2
 2978 00f4 7C4A     		ldr	r2, .L353+4
 2979 00f6 1344     		add	r3, r3, r2
 2980 00f8 9B78     		ldrb	r3, [r3, #2]
 2981 00fa DBB2     		uxtb	r3, r3
 2982 00fc 002B     		cmp	r3, #0
 2983 00fe 08D0     		beq	.L163
 2984              		.loc 1 646 0 is_stmt 0 discriminator 1
 2985 0100 FB7B     		ldrb	r3, [r7, #15]	@ zero_extendqisi2
 2986 0102 794A     		ldr	r2, .L353+4
 2987 0104 1344     		add	r3, r3, r2
 2988 0106 9B78     		ldrb	r3, [r3, #2]
 2989 0108 DBB2     		uxtb	r3, r3
 2990 010a 03F0F003 		and	r3, r3, #240
 2991 010e E02B     		cmp	r3, #224
 2992 0110 04D0     		beq	.L164
 2993              	.L163:
 647:.\Protocolo.c **** 								Surtidor_ClearRxBuffer();
 2994              		.loc 1 647 0 is_stmt 1
 2995 0112 FFF7FEFF 		bl	Surtidor_ClearRxBuffer
 648:.\Protocolo.c **** 								return 0;
 2996              		.loc 1 648 0
 2997 0116 0023     		movs	r3, #0
 2998 0118 00F0B3BF 		b	.L165
 2999              	.L164:
 643:.\Protocolo.c **** 							lado1.totales[0][x]=Surtidor_rxBuffer[x+4];
 3000              		.loc 1 643 0 discriminator 2
 3001 011c FB7B     		ldrb	r3, [r7, #15]	@ zero_extendqisi2
 3002 011e 0133     		adds	r3, r3, #1
 3003 0120 FB73     		strb	r3, [r7, #15]
 3004              	.L162:
 643:.\Protocolo.c **** 							lado1.totales[0][x]=Surtidor_rxBuffer[x+4];
 3005              		.loc 1 643 0 is_stmt 0 discriminator 1
 3006 0122 FB7B     		ldrb	r3, [r7, #15]	@ zero_extendqisi2
 3007 0124 072B     		cmp	r3, #7
 3008 0126 DAD9     		bls	.L166
 649:.\Protocolo.c **** 							}
 650:.\Protocolo.c ****                             ///////////''modificacion actual''////
 651:.\Protocolo.c **** 						}
 652:.\Protocolo.c **** 						for(x=0;x<=7;x++){
 3009              		.loc 1 652 0 is_stmt 1
 3010 0128 0023     		movs	r3, #0
 3011 012a FB73     		strb	r3, [r7, #15]
 3012 012c 24E0     		b	.L167
 3013              	.L170:
 653:.\Protocolo.c **** 							lado1.totales[0][x+12]=Surtidor_rxBuffer[x+13];
 3014              		.loc 1 653 0
 3015 012e FB7B     		ldrb	r3, [r7, #15]	@ zero_extendqisi2
 3016 0130 0C33     		adds	r3, r3, #12
 3017 0132 FA7B     		ldrb	r2, [r7, #15]	@ zero_extendqisi2
 3018 0134 0D32     		adds	r2, r2, #13
 3019 0136 6E49     		ldr	r1, .L353+12
 3020 0138 8A5C     		ldrb	r2, [r1, r2]
 3021 013a D1B2     		uxtb	r1, r2
 3022 013c 6A4A     		ldr	r2, .L353+4
 3023 013e 1344     		add	r3, r3, r2
ARM GAS  C:\Users\IN-002~1\AppData\Local\Temp\cchaWHVS.s 			page 67


 3024 0140 0A46     		mov	r2, r1
 3025 0142 9A70     		strb	r2, [r3, #2]
 654:.\Protocolo.c **** 							if(lado1.totales[0][x+12]==0||(lado1.totales[0][x+12]&0xF0)!=0xE0){
 3026              		.loc 1 654 0
 3027 0144 FB7B     		ldrb	r3, [r7, #15]	@ zero_extendqisi2
 3028 0146 0C33     		adds	r3, r3, #12
 3029 0148 674A     		ldr	r2, .L353+4
 3030 014a 1344     		add	r3, r3, r2
 3031 014c 9B78     		ldrb	r3, [r3, #2]
 3032 014e DBB2     		uxtb	r3, r3
 3033 0150 002B     		cmp	r3, #0
 3034 0152 09D0     		beq	.L168
 3035              		.loc 1 654 0 is_stmt 0 discriminator 1
 3036 0154 FB7B     		ldrb	r3, [r7, #15]	@ zero_extendqisi2
 3037 0156 0C33     		adds	r3, r3, #12
 3038 0158 634A     		ldr	r2, .L353+4
 3039 015a 1344     		add	r3, r3, r2
 3040 015c 9B78     		ldrb	r3, [r3, #2]
 3041 015e DBB2     		uxtb	r3, r3
 3042 0160 03F0F003 		and	r3, r3, #240
 3043 0164 E02B     		cmp	r3, #224
 3044 0166 04D0     		beq	.L169
 3045              	.L168:
 655:.\Protocolo.c **** 								Surtidor_ClearRxBuffer();
 3046              		.loc 1 655 0 is_stmt 1
 3047 0168 FFF7FEFF 		bl	Surtidor_ClearRxBuffer
 656:.\Protocolo.c **** 								return 0;
 3048              		.loc 1 656 0
 3049 016c 0023     		movs	r3, #0
 3050 016e 00F088BF 		b	.L165
 3051              	.L169:
 652:.\Protocolo.c **** 							lado1.totales[0][x+12]=Surtidor_rxBuffer[x+13];
 3052              		.loc 1 652 0 discriminator 2
 3053 0172 FB7B     		ldrb	r3, [r7, #15]	@ zero_extendqisi2
 3054 0174 0133     		adds	r3, r3, #1
 3055 0176 FB73     		strb	r3, [r7, #15]
 3056              	.L167:
 652:.\Protocolo.c **** 							lado1.totales[0][x+12]=Surtidor_rxBuffer[x+13];
 3057              		.loc 1 652 0 is_stmt 0 discriminator 1
 3058 0178 FB7B     		ldrb	r3, [r7, #15]	@ zero_extendqisi2
 3059 017a 072B     		cmp	r3, #7
 3060 017c D7D9     		bls	.L170
 657:.\Protocolo.c **** 							}							
 658:.\Protocolo.c **** 						}
 659:.\Protocolo.c **** 						for(x=0;x<=3;x++){
 3061              		.loc 1 659 0 is_stmt 1
 3062 017e 0023     		movs	r3, #0
 3063 0180 FB73     		strb	r3, [r7, #15]
 3064 0182 0DE0     		b	.L171
 3065              	.L172:
 660:.\Protocolo.c **** 							lado1.ppu[0][x]=Surtidor_rxBuffer[x+22];							
 3066              		.loc 1 660 0 discriminator 3
 3067 0184 FB7B     		ldrb	r3, [r7, #15]	@ zero_extendqisi2
 3068 0186 FA7B     		ldrb	r2, [r7, #15]	@ zero_extendqisi2
 3069 0188 1632     		adds	r2, r2, #22
 3070 018a 5949     		ldr	r1, .L353+12
 3071 018c 8A5C     		ldrb	r2, [r1, r2]
ARM GAS  C:\Users\IN-002~1\AppData\Local\Temp\cchaWHVS.s 			page 68


 3072 018e D1B2     		uxtb	r1, r2
 3073 0190 554A     		ldr	r2, .L353+4
 3074 0192 1344     		add	r3, r3, r2
 3075 0194 0A46     		mov	r2, r1
 3076 0196 83F84A20 		strb	r2, [r3, #74]
 659:.\Protocolo.c **** 							lado1.ppu[0][x]=Surtidor_rxBuffer[x+22];							
 3077              		.loc 1 659 0 discriminator 3
 3078 019a FB7B     		ldrb	r3, [r7, #15]	@ zero_extendqisi2
 3079 019c 0133     		adds	r3, r3, #1
 3080 019e FB73     		strb	r3, [r7, #15]
 3081              	.L171:
 659:.\Protocolo.c **** 							lado1.ppu[0][x]=Surtidor_rxBuffer[x+22];							
 3082              		.loc 1 659 0 is_stmt 0 discriminator 1
 3083 01a0 FB7B     		ldrb	r3, [r7, #15]	@ zero_extendqisi2
 3084 01a2 032B     		cmp	r3, #3
 3085 01a4 EED9     		bls	.L172
 661:.\Protocolo.c **** 						}					
 662:.\Protocolo.c **** 						if(nmangueras==2){
 3086              		.loc 1 662 0 is_stmt 1
 3087 01a6 BB79     		ldrb	r3, [r7, #6]	@ zero_extendqisi2
 3088 01a8 022B     		cmp	r3, #2
 3089 01aa 6BD1     		bne	.L173
 663:.\Protocolo.c **** 							for(x=0;x<=7;x++){ ///producto 2
 3090              		.loc 1 663 0
 3091 01ac 0023     		movs	r3, #0
 3092 01ae FB73     		strb	r3, [r7, #15]
 3093 01b0 21E0     		b	.L174
 3094              	.L177:
 664:.\Protocolo.c **** 								lado1.totales[1][x]=Surtidor_rxBuffer[x+34];
 3095              		.loc 1 664 0
 3096 01b2 FB7B     		ldrb	r3, [r7, #15]	@ zero_extendqisi2
 3097 01b4 FA7B     		ldrb	r2, [r7, #15]	@ zero_extendqisi2
 3098 01b6 2232     		adds	r2, r2, #34
 3099 01b8 4D49     		ldr	r1, .L353+12
 3100 01ba 8A5C     		ldrb	r2, [r1, r2]
 3101 01bc D1B2     		uxtb	r1, r2
 3102 01be 4A4A     		ldr	r2, .L353+4
 3103 01c0 1344     		add	r3, r3, r2
 3104 01c2 0A46     		mov	r2, r1
 3105 01c4 9A76     		strb	r2, [r3, #26]
 665:.\Protocolo.c **** 								if(lado1.totales[1][x]==0||(lado1.totales[1][x]&0xF0)!=0xE0){
 3106              		.loc 1 665 0
 3107 01c6 FB7B     		ldrb	r3, [r7, #15]	@ zero_extendqisi2
 3108 01c8 474A     		ldr	r2, .L353+4
 3109 01ca 1344     		add	r3, r3, r2
 3110 01cc 9B7E     		ldrb	r3, [r3, #26]
 3111 01ce DBB2     		uxtb	r3, r3
 3112 01d0 002B     		cmp	r3, #0
 3113 01d2 08D0     		beq	.L175
 3114              		.loc 1 665 0 is_stmt 0 discriminator 1
 3115 01d4 FB7B     		ldrb	r3, [r7, #15]	@ zero_extendqisi2
 3116 01d6 444A     		ldr	r2, .L353+4
 3117 01d8 1344     		add	r3, r3, r2
 3118 01da 9B7E     		ldrb	r3, [r3, #26]
 3119 01dc DBB2     		uxtb	r3, r3
 3120 01de 03F0F003 		and	r3, r3, #240
 3121 01e2 E02B     		cmp	r3, #224
ARM GAS  C:\Users\IN-002~1\AppData\Local\Temp\cchaWHVS.s 			page 69


 3122 01e4 04D0     		beq	.L176
 3123              	.L175:
 666:.\Protocolo.c **** 									Surtidor_ClearRxBuffer();
 3124              		.loc 1 666 0 is_stmt 1
 3125 01e6 FFF7FEFF 		bl	Surtidor_ClearRxBuffer
 667:.\Protocolo.c **** 									return 0;
 3126              		.loc 1 667 0
 3127 01ea 0023     		movs	r3, #0
 3128 01ec 00F049BF 		b	.L165
 3129              	.L176:
 663:.\Protocolo.c **** 								lado1.totales[1][x]=Surtidor_rxBuffer[x+34];
 3130              		.loc 1 663 0 discriminator 2
 3131 01f0 FB7B     		ldrb	r3, [r7, #15]	@ zero_extendqisi2
 3132 01f2 0133     		adds	r3, r3, #1
 3133 01f4 FB73     		strb	r3, [r7, #15]
 3134              	.L174:
 663:.\Protocolo.c **** 								lado1.totales[1][x]=Surtidor_rxBuffer[x+34];
 3135              		.loc 1 663 0 is_stmt 0 discriminator 1
 3136 01f6 FB7B     		ldrb	r3, [r7, #15]	@ zero_extendqisi2
 3137 01f8 072B     		cmp	r3, #7
 3138 01fa DAD9     		bls	.L177
 668:.\Protocolo.c **** 								}								
 669:.\Protocolo.c **** 							}
 670:.\Protocolo.c **** 							for(x=0;x<=7;x++){
 3139              		.loc 1 670 0 is_stmt 1
 3140 01fc 0023     		movs	r3, #0
 3141 01fe FB73     		strb	r3, [r7, #15]
 3142 0200 24E0     		b	.L178
 3143              	.L181:
 671:.\Protocolo.c **** 								lado1.totales[1][x+12]=Surtidor_rxBuffer[x+43];
 3144              		.loc 1 671 0
 3145 0202 FB7B     		ldrb	r3, [r7, #15]	@ zero_extendqisi2
 3146 0204 0C33     		adds	r3, r3, #12
 3147 0206 FA7B     		ldrb	r2, [r7, #15]	@ zero_extendqisi2
 3148 0208 2B32     		adds	r2, r2, #43
 3149 020a 3949     		ldr	r1, .L353+12
 3150 020c 8A5C     		ldrb	r2, [r1, r2]
 3151 020e D1B2     		uxtb	r1, r2
 3152 0210 354A     		ldr	r2, .L353+4
 3153 0212 1344     		add	r3, r3, r2
 3154 0214 0A46     		mov	r2, r1
 3155 0216 9A76     		strb	r2, [r3, #26]
 672:.\Protocolo.c **** 								if(lado1.totales[1][x+12]==0||(lado1.totales[1][x+12]&0xF0)!=0xE0){
 3156              		.loc 1 672 0
 3157 0218 FB7B     		ldrb	r3, [r7, #15]	@ zero_extendqisi2
 3158 021a 0C33     		adds	r3, r3, #12
 3159 021c 324A     		ldr	r2, .L353+4
 3160 021e 1344     		add	r3, r3, r2
 3161 0220 9B7E     		ldrb	r3, [r3, #26]
 3162 0222 DBB2     		uxtb	r3, r3
 3163 0224 002B     		cmp	r3, #0
 3164 0226 09D0     		beq	.L179
 3165              		.loc 1 672 0 is_stmt 0 discriminator 1
 3166 0228 FB7B     		ldrb	r3, [r7, #15]	@ zero_extendqisi2
 3167 022a 0C33     		adds	r3, r3, #12
 3168 022c 2E4A     		ldr	r2, .L353+4
 3169 022e 1344     		add	r3, r3, r2
ARM GAS  C:\Users\IN-002~1\AppData\Local\Temp\cchaWHVS.s 			page 70


 3170 0230 9B7E     		ldrb	r3, [r3, #26]
 3171 0232 DBB2     		uxtb	r3, r3
 3172 0234 03F0F003 		and	r3, r3, #240
 3173 0238 E02B     		cmp	r3, #224
 3174 023a 04D0     		beq	.L180
 3175              	.L179:
 673:.\Protocolo.c **** 									Surtidor_ClearRxBuffer();
 3176              		.loc 1 673 0 is_stmt 1
 3177 023c FFF7FEFF 		bl	Surtidor_ClearRxBuffer
 674:.\Protocolo.c **** 									return 0;
 3178              		.loc 1 674 0
 3179 0240 0023     		movs	r3, #0
 3180 0242 00F01EBF 		b	.L165
 3181              	.L180:
 670:.\Protocolo.c **** 								lado1.totales[1][x+12]=Surtidor_rxBuffer[x+43];
 3182              		.loc 1 670 0 discriminator 2
 3183 0246 FB7B     		ldrb	r3, [r7, #15]	@ zero_extendqisi2
 3184 0248 0133     		adds	r3, r3, #1
 3185 024a FB73     		strb	r3, [r7, #15]
 3186              	.L178:
 670:.\Protocolo.c **** 								lado1.totales[1][x+12]=Surtidor_rxBuffer[x+43];
 3187              		.loc 1 670 0 is_stmt 0 discriminator 1
 3188 024c FB7B     		ldrb	r3, [r7, #15]	@ zero_extendqisi2
 3189 024e 072B     		cmp	r3, #7
 3190 0250 D7D9     		bls	.L181
 675:.\Protocolo.c **** 								}								
 676:.\Protocolo.c **** 							}
 677:.\Protocolo.c **** 							for(x=0;x<=3;x++){
 3191              		.loc 1 677 0 is_stmt 1
 3192 0252 0023     		movs	r3, #0
 3193 0254 FB73     		strb	r3, [r7, #15]
 3194 0256 0DE0     		b	.L182
 3195              	.L183:
 678:.\Protocolo.c **** 								lado1.ppu[1][x]=Surtidor_rxBuffer[x+52];
 3196              		.loc 1 678 0 discriminator 3
 3197 0258 FB7B     		ldrb	r3, [r7, #15]	@ zero_extendqisi2
 3198 025a FA7B     		ldrb	r2, [r7, #15]	@ zero_extendqisi2
 3199 025c 3432     		adds	r2, r2, #52
 3200 025e 2449     		ldr	r1, .L353+12
 3201 0260 8A5C     		ldrb	r2, [r1, r2]
 3202 0262 D1B2     		uxtb	r1, r2
 3203 0264 204A     		ldr	r2, .L353+4
 3204 0266 1344     		add	r3, r3, r2
 3205 0268 0A46     		mov	r2, r1
 3206 026a 83F84F20 		strb	r2, [r3, #79]
 677:.\Protocolo.c **** 								lado1.ppu[1][x]=Surtidor_rxBuffer[x+52];
 3207              		.loc 1 677 0 discriminator 3
 3208 026e FB7B     		ldrb	r3, [r7, #15]	@ zero_extendqisi2
 3209 0270 0133     		adds	r3, r3, #1
 3210 0272 FB73     		strb	r3, [r7, #15]
 3211              	.L182:
 677:.\Protocolo.c **** 								lado1.ppu[1][x]=Surtidor_rxBuffer[x+52];
 3212              		.loc 1 677 0 is_stmt 0 discriminator 1
 3213 0274 FB7B     		ldrb	r3, [r7, #15]	@ zero_extendqisi2
 3214 0276 032B     		cmp	r3, #3
 3215 0278 EED9     		bls	.L183
 679:.\Protocolo.c **** 							}	
ARM GAS  C:\Users\IN-002~1\AppData\Local\Temp\cchaWHVS.s 			page 71


 680:.\Protocolo.c ****     						Surtidor_ClearRxBuffer();
 3216              		.loc 1 680 0 is_stmt 1
 3217 027a FFF7FEFF 		bl	Surtidor_ClearRxBuffer
 681:.\Protocolo.c ****     						return 2;                            
 3218              		.loc 1 681 0
 3219 027e 0223     		movs	r3, #2
 3220 0280 00F0FFBE 		b	.L165
 3221              	.L173:
 682:.\Protocolo.c **** 						}
 683:.\Protocolo.c **** 						if(nmangueras==3){
 3222              		.loc 1 683 0
 3223 0284 BB79     		ldrb	r3, [r7, #6]	@ zero_extendqisi2
 3224 0286 032B     		cmp	r3, #3
 3225 0288 40F0E280 		bne	.L184
 684:.\Protocolo.c **** 							for(x=0;x<=7;x++){///producto 2
 3226              		.loc 1 684 0
 3227 028c 0023     		movs	r3, #0
 3228 028e FB73     		strb	r3, [r7, #15]
 3229 0290 21E0     		b	.L185
 3230              	.L188:
 685:.\Protocolo.c **** 								lado1.totales[1][x]=Surtidor_rxBuffer[x+34];
 3231              		.loc 1 685 0
 3232 0292 FB7B     		ldrb	r3, [r7, #15]	@ zero_extendqisi2
 3233 0294 FA7B     		ldrb	r2, [r7, #15]	@ zero_extendqisi2
 3234 0296 2232     		adds	r2, r2, #34
 3235 0298 1549     		ldr	r1, .L353+12
 3236 029a 8A5C     		ldrb	r2, [r1, r2]
 3237 029c D1B2     		uxtb	r1, r2
 3238 029e 124A     		ldr	r2, .L353+4
 3239 02a0 1344     		add	r3, r3, r2
 3240 02a2 0A46     		mov	r2, r1
 3241 02a4 9A76     		strb	r2, [r3, #26]
 686:.\Protocolo.c **** 								if(lado1.totales[1][x]==0||(lado1.totales[1][x]&0xF0)!=0xE0){
 3242              		.loc 1 686 0
 3243 02a6 FB7B     		ldrb	r3, [r7, #15]	@ zero_extendqisi2
 3244 02a8 0F4A     		ldr	r2, .L353+4
 3245 02aa 1344     		add	r3, r3, r2
 3246 02ac 9B7E     		ldrb	r3, [r3, #26]
 3247 02ae DBB2     		uxtb	r3, r3
 3248 02b0 002B     		cmp	r3, #0
 3249 02b2 08D0     		beq	.L186
 3250              		.loc 1 686 0 is_stmt 0 discriminator 1
 3251 02b4 FB7B     		ldrb	r3, [r7, #15]	@ zero_extendqisi2
 3252 02b6 0C4A     		ldr	r2, .L353+4
 3253 02b8 1344     		add	r3, r3, r2
 3254 02ba 9B7E     		ldrb	r3, [r3, #26]
 3255 02bc DBB2     		uxtb	r3, r3
 3256 02be 03F0F003 		and	r3, r3, #240
 3257 02c2 E02B     		cmp	r3, #224
 3258 02c4 04D0     		beq	.L187
 3259              	.L186:
 687:.\Protocolo.c **** 									Surtidor_ClearRxBuffer();
 3260              		.loc 1 687 0 is_stmt 1
 3261 02c6 FFF7FEFF 		bl	Surtidor_ClearRxBuffer
 688:.\Protocolo.c **** 									return 0;
 3262              		.loc 1 688 0
 3263 02ca 0023     		movs	r3, #0
ARM GAS  C:\Users\IN-002~1\AppData\Local\Temp\cchaWHVS.s 			page 72


 3264 02cc 00F0D9BE 		b	.L165
 3265              	.L187:
 684:.\Protocolo.c **** 								lado1.totales[1][x]=Surtidor_rxBuffer[x+34];
 3266              		.loc 1 684 0 discriminator 2
 3267 02d0 FB7B     		ldrb	r3, [r7, #15]	@ zero_extendqisi2
 3268 02d2 0133     		adds	r3, r3, #1
 3269 02d4 FB73     		strb	r3, [r7, #15]
 3270              	.L185:
 684:.\Protocolo.c **** 								lado1.totales[1][x]=Surtidor_rxBuffer[x+34];
 3271              		.loc 1 684 0 is_stmt 0 discriminator 1
 3272 02d6 FB7B     		ldrb	r3, [r7, #15]	@ zero_extendqisi2
 3273 02d8 072B     		cmp	r3, #7
 3274 02da DAD9     		bls	.L188
 689:.\Protocolo.c **** 								}								
 690:.\Protocolo.c **** 							}
 691:.\Protocolo.c **** 							for(x=0;x<=7;x++){
 3275              		.loc 1 691 0 is_stmt 1
 3276 02dc 0023     		movs	r3, #0
 3277 02de FB73     		strb	r3, [r7, #15]
 3278 02e0 2DE0     		b	.L189
 3279              	.L354:
 3280 02e2 00BF     		.align	2
 3281              	.L353:
 3282 02e4 00000000 		.word	rx_timeout
 3283 02e8 00000000 		.word	lado1
 3284 02ec 00000000 		.word	version
 3285 02f0 00000000 		.word	Surtidor_rxBuffer
 3286              	.L192:
 692:.\Protocolo.c **** 								lado1.totales[1][x+12]=Surtidor_rxBuffer[x+43];
 3287              		.loc 1 692 0
 3288 02f4 FB7B     		ldrb	r3, [r7, #15]	@ zero_extendqisi2
 3289 02f6 0C33     		adds	r3, r3, #12
 3290 02f8 FA7B     		ldrb	r2, [r7, #15]	@ zero_extendqisi2
 3291 02fa 2B32     		adds	r2, r2, #43
 3292 02fc B349     		ldr	r1, .L355
 3293 02fe 8A5C     		ldrb	r2, [r1, r2]
 3294 0300 D1B2     		uxtb	r1, r2
 3295 0302 B34A     		ldr	r2, .L355+4
 3296 0304 1344     		add	r3, r3, r2
 3297 0306 0A46     		mov	r2, r1
 3298 0308 9A76     		strb	r2, [r3, #26]
 693:.\Protocolo.c **** 								if(lado1.totales[1][x+12]==0||(lado1.totales[1][x+12]&0xF0)!=0xE0){
 3299              		.loc 1 693 0
 3300 030a FB7B     		ldrb	r3, [r7, #15]	@ zero_extendqisi2
 3301 030c 0C33     		adds	r3, r3, #12
 3302 030e B04A     		ldr	r2, .L355+4
 3303 0310 1344     		add	r3, r3, r2
 3304 0312 9B7E     		ldrb	r3, [r3, #26]
 3305 0314 DBB2     		uxtb	r3, r3
 3306 0316 002B     		cmp	r3, #0
 3307 0318 09D0     		beq	.L190
 3308              		.loc 1 693 0 is_stmt 0 discriminator 1
 3309 031a FB7B     		ldrb	r3, [r7, #15]	@ zero_extendqisi2
 3310 031c 0C33     		adds	r3, r3, #12
 3311 031e AC4A     		ldr	r2, .L355+4
 3312 0320 1344     		add	r3, r3, r2
 3313 0322 9B7E     		ldrb	r3, [r3, #26]
ARM GAS  C:\Users\IN-002~1\AppData\Local\Temp\cchaWHVS.s 			page 73


 3314 0324 DBB2     		uxtb	r3, r3
 3315 0326 03F0F003 		and	r3, r3, #240
 3316 032a E02B     		cmp	r3, #224
 3317 032c 04D0     		beq	.L191
 3318              	.L190:
 694:.\Protocolo.c **** 									Surtidor_ClearRxBuffer();
 3319              		.loc 1 694 0 is_stmt 1
 3320 032e FFF7FEFF 		bl	Surtidor_ClearRxBuffer
 695:.\Protocolo.c **** 									return 0;
 3321              		.loc 1 695 0
 3322 0332 0023     		movs	r3, #0
 3323 0334 00F0A5BE 		b	.L165
 3324              	.L191:
 691:.\Protocolo.c **** 								lado1.totales[1][x+12]=Surtidor_rxBuffer[x+43];
 3325              		.loc 1 691 0 discriminator 2
 3326 0338 FB7B     		ldrb	r3, [r7, #15]	@ zero_extendqisi2
 3327 033a 0133     		adds	r3, r3, #1
 3328 033c FB73     		strb	r3, [r7, #15]
 3329              	.L189:
 691:.\Protocolo.c **** 								lado1.totales[1][x+12]=Surtidor_rxBuffer[x+43];
 3330              		.loc 1 691 0 is_stmt 0 discriminator 1
 3331 033e FB7B     		ldrb	r3, [r7, #15]	@ zero_extendqisi2
 3332 0340 072B     		cmp	r3, #7
 3333 0342 D7D9     		bls	.L192
 696:.\Protocolo.c **** 								}								
 697:.\Protocolo.c **** 							}
 698:.\Protocolo.c **** 							for(x=0;x<=3;x++){
 3334              		.loc 1 698 0 is_stmt 1
 3335 0344 0023     		movs	r3, #0
 3336 0346 FB73     		strb	r3, [r7, #15]
 3337 0348 0DE0     		b	.L193
 3338              	.L194:
 699:.\Protocolo.c **** 								lado1.ppu[1][x]=Surtidor_rxBuffer[x+52];
 3339              		.loc 1 699 0 discriminator 3
 3340 034a FB7B     		ldrb	r3, [r7, #15]	@ zero_extendqisi2
 3341 034c FA7B     		ldrb	r2, [r7, #15]	@ zero_extendqisi2
 3342 034e 3432     		adds	r2, r2, #52
 3343 0350 9E49     		ldr	r1, .L355
 3344 0352 8A5C     		ldrb	r2, [r1, r2]
 3345 0354 D1B2     		uxtb	r1, r2
 3346 0356 9E4A     		ldr	r2, .L355+4
 3347 0358 1344     		add	r3, r3, r2
 3348 035a 0A46     		mov	r2, r1
 3349 035c 83F84F20 		strb	r2, [r3, #79]
 698:.\Protocolo.c **** 								lado1.ppu[1][x]=Surtidor_rxBuffer[x+52];
 3350              		.loc 1 698 0 discriminator 3
 3351 0360 FB7B     		ldrb	r3, [r7, #15]	@ zero_extendqisi2
 3352 0362 0133     		adds	r3, r3, #1
 3353 0364 FB73     		strb	r3, [r7, #15]
 3354              	.L193:
 698:.\Protocolo.c **** 								lado1.ppu[1][x]=Surtidor_rxBuffer[x+52];
 3355              		.loc 1 698 0 is_stmt 0 discriminator 1
 3356 0366 FB7B     		ldrb	r3, [r7, #15]	@ zero_extendqisi2
 3357 0368 032B     		cmp	r3, #3
 3358 036a EED9     		bls	.L194
 700:.\Protocolo.c **** 							}					
 701:.\Protocolo.c **** 							for(x=0;x<=7;x++){///producto 3
ARM GAS  C:\Users\IN-002~1\AppData\Local\Temp\cchaWHVS.s 			page 74


 3359              		.loc 1 701 0 is_stmt 1
 3360 036c 0023     		movs	r3, #0
 3361 036e FB73     		strb	r3, [r7, #15]
 3362 0370 24E0     		b	.L195
 3363              	.L198:
 702:.\Protocolo.c **** 								lado1.totales[2][x]=Surtidor_rxBuffer[x+64];
 3364              		.loc 1 702 0
 3365 0372 FB7B     		ldrb	r3, [r7, #15]	@ zero_extendqisi2
 3366 0374 FA7B     		ldrb	r2, [r7, #15]	@ zero_extendqisi2
 3367 0376 4032     		adds	r2, r2, #64
 3368 0378 9449     		ldr	r1, .L355
 3369 037a 8A5C     		ldrb	r2, [r1, r2]
 3370 037c D1B2     		uxtb	r1, r2
 3371 037e 944A     		ldr	r2, .L355+4
 3372 0380 1344     		add	r3, r3, r2
 3373 0382 0A46     		mov	r2, r1
 3374 0384 83F83220 		strb	r2, [r3, #50]
 703:.\Protocolo.c **** 								if(lado1.totales[2][x]==0||(lado1.totales[2][x]&0xF0)!=0xE0){
 3375              		.loc 1 703 0
 3376 0388 FB7B     		ldrb	r3, [r7, #15]	@ zero_extendqisi2
 3377 038a 914A     		ldr	r2, .L355+4
 3378 038c 1344     		add	r3, r3, r2
 3379 038e 93F83230 		ldrb	r3, [r3, #50]
 3380 0392 DBB2     		uxtb	r3, r3
 3381 0394 002B     		cmp	r3, #0
 3382 0396 09D0     		beq	.L196
 3383              		.loc 1 703 0 is_stmt 0 discriminator 1
 3384 0398 FB7B     		ldrb	r3, [r7, #15]	@ zero_extendqisi2
 3385 039a 8D4A     		ldr	r2, .L355+4
 3386 039c 1344     		add	r3, r3, r2
 3387 039e 93F83230 		ldrb	r3, [r3, #50]
 3388 03a2 DBB2     		uxtb	r3, r3
 3389 03a4 03F0F003 		and	r3, r3, #240
 3390 03a8 E02B     		cmp	r3, #224
 3391 03aa 04D0     		beq	.L197
 3392              	.L196:
 704:.\Protocolo.c **** 									Surtidor_ClearRxBuffer();
 3393              		.loc 1 704 0 is_stmt 1
 3394 03ac FFF7FEFF 		bl	Surtidor_ClearRxBuffer
 705:.\Protocolo.c **** 									return 0;
 3395              		.loc 1 705 0
 3396 03b0 0023     		movs	r3, #0
 3397 03b2 00F066BE 		b	.L165
 3398              	.L197:
 701:.\Protocolo.c **** 								lado1.totales[2][x]=Surtidor_rxBuffer[x+64];
 3399              		.loc 1 701 0 discriminator 2
 3400 03b6 FB7B     		ldrb	r3, [r7, #15]	@ zero_extendqisi2
 3401 03b8 0133     		adds	r3, r3, #1
 3402 03ba FB73     		strb	r3, [r7, #15]
 3403              	.L195:
 701:.\Protocolo.c **** 								lado1.totales[2][x]=Surtidor_rxBuffer[x+64];
 3404              		.loc 1 701 0 is_stmt 0 discriminator 1
 3405 03bc FB7B     		ldrb	r3, [r7, #15]	@ zero_extendqisi2
 3406 03be 072B     		cmp	r3, #7
 3407 03c0 D7D9     		bls	.L198
 706:.\Protocolo.c **** 								}								
 707:.\Protocolo.c **** 							}
ARM GAS  C:\Users\IN-002~1\AppData\Local\Temp\cchaWHVS.s 			page 75


 708:.\Protocolo.c **** 							for(x=0;x<=7;x++){
 3408              		.loc 1 708 0 is_stmt 1
 3409 03c2 0023     		movs	r3, #0
 3410 03c4 FB73     		strb	r3, [r7, #15]
 3411 03c6 27E0     		b	.L199
 3412              	.L202:
 709:.\Protocolo.c **** 								lado1.totales[2][x+12]=Surtidor_rxBuffer[x+73];
 3413              		.loc 1 709 0
 3414 03c8 FB7B     		ldrb	r3, [r7, #15]	@ zero_extendqisi2
 3415 03ca 0C33     		adds	r3, r3, #12
 3416 03cc FA7B     		ldrb	r2, [r7, #15]	@ zero_extendqisi2
 3417 03ce 4932     		adds	r2, r2, #73
 3418 03d0 7E49     		ldr	r1, .L355
 3419 03d2 8A5C     		ldrb	r2, [r1, r2]
 3420 03d4 D1B2     		uxtb	r1, r2
 3421 03d6 7E4A     		ldr	r2, .L355+4
 3422 03d8 1344     		add	r3, r3, r2
 3423 03da 0A46     		mov	r2, r1
 3424 03dc 83F83220 		strb	r2, [r3, #50]
 710:.\Protocolo.c **** 								if(lado1.totales[2][x+12]==0||(lado1.totales[2][x+12]&0xF0)!=0xE0){
 3425              		.loc 1 710 0
 3426 03e0 FB7B     		ldrb	r3, [r7, #15]	@ zero_extendqisi2
 3427 03e2 0C33     		adds	r3, r3, #12
 3428 03e4 7A4A     		ldr	r2, .L355+4
 3429 03e6 1344     		add	r3, r3, r2
 3430 03e8 93F83230 		ldrb	r3, [r3, #50]
 3431 03ec DBB2     		uxtb	r3, r3
 3432 03ee 002B     		cmp	r3, #0
 3433 03f0 0AD0     		beq	.L200
 3434              		.loc 1 710 0 is_stmt 0 discriminator 1
 3435 03f2 FB7B     		ldrb	r3, [r7, #15]	@ zero_extendqisi2
 3436 03f4 0C33     		adds	r3, r3, #12
 3437 03f6 764A     		ldr	r2, .L355+4
 3438 03f8 1344     		add	r3, r3, r2
 3439 03fa 93F83230 		ldrb	r3, [r3, #50]
 3440 03fe DBB2     		uxtb	r3, r3
 3441 0400 03F0F003 		and	r3, r3, #240
 3442 0404 E02B     		cmp	r3, #224
 3443 0406 04D0     		beq	.L201
 3444              	.L200:
 711:.\Protocolo.c **** 									Surtidor_ClearRxBuffer();
 3445              		.loc 1 711 0 is_stmt 1
 3446 0408 FFF7FEFF 		bl	Surtidor_ClearRxBuffer
 712:.\Protocolo.c **** 									return 0;
 3447              		.loc 1 712 0
 3448 040c 0023     		movs	r3, #0
 3449 040e 00F038BE 		b	.L165
 3450              	.L201:
 708:.\Protocolo.c **** 								lado1.totales[2][x+12]=Surtidor_rxBuffer[x+73];
 3451              		.loc 1 708 0 discriminator 2
 3452 0412 FB7B     		ldrb	r3, [r7, #15]	@ zero_extendqisi2
 3453 0414 0133     		adds	r3, r3, #1
 3454 0416 FB73     		strb	r3, [r7, #15]
 3455              	.L199:
 708:.\Protocolo.c **** 								lado1.totales[2][x+12]=Surtidor_rxBuffer[x+73];
 3456              		.loc 1 708 0 is_stmt 0 discriminator 1
 3457 0418 FB7B     		ldrb	r3, [r7, #15]	@ zero_extendqisi2
ARM GAS  C:\Users\IN-002~1\AppData\Local\Temp\cchaWHVS.s 			page 76


 3458 041a 072B     		cmp	r3, #7
 3459 041c D4D9     		bls	.L202
 713:.\Protocolo.c **** 								}								
 714:.\Protocolo.c **** 							}
 715:.\Protocolo.c **** 							for(x=0;x<=3;x++){
 3460              		.loc 1 715 0 is_stmt 1
 3461 041e 0023     		movs	r3, #0
 3462 0420 FB73     		strb	r3, [r7, #15]
 3463 0422 0DE0     		b	.L203
 3464              	.L204:
 716:.\Protocolo.c **** 								lado1.ppu[2][x]=Surtidor_rxBuffer[x+82];
 3465              		.loc 1 716 0 discriminator 3
 3466 0424 FB7B     		ldrb	r3, [r7, #15]	@ zero_extendqisi2
 3467 0426 FA7B     		ldrb	r2, [r7, #15]	@ zero_extendqisi2
 3468 0428 5232     		adds	r2, r2, #82
 3469 042a 6849     		ldr	r1, .L355
 3470 042c 8A5C     		ldrb	r2, [r1, r2]
 3471 042e D1B2     		uxtb	r1, r2
 3472 0430 674A     		ldr	r2, .L355+4
 3473 0432 1344     		add	r3, r3, r2
 3474 0434 0A46     		mov	r2, r1
 3475 0436 83F85420 		strb	r2, [r3, #84]
 715:.\Protocolo.c **** 								lado1.ppu[2][x]=Surtidor_rxBuffer[x+82];
 3476              		.loc 1 715 0 discriminator 3
 3477 043a FB7B     		ldrb	r3, [r7, #15]	@ zero_extendqisi2
 3478 043c 0133     		adds	r3, r3, #1
 3479 043e FB73     		strb	r3, [r7, #15]
 3480              	.L203:
 715:.\Protocolo.c **** 								lado1.ppu[2][x]=Surtidor_rxBuffer[x+82];
 3481              		.loc 1 715 0 is_stmt 0 discriminator 1
 3482 0440 FB7B     		ldrb	r3, [r7, #15]	@ zero_extendqisi2
 3483 0442 032B     		cmp	r3, #3
 3484 0444 EED9     		bls	.L204
 717:.\Protocolo.c **** 							}
 718:.\Protocolo.c ****     						Surtidor_ClearRxBuffer();
 3485              		.loc 1 718 0 is_stmt 1
 3486 0446 FFF7FEFF 		bl	Surtidor_ClearRxBuffer
 719:.\Protocolo.c ****     						return 3;                            
 3487              		.loc 1 719 0
 3488 044a 0323     		movs	r3, #3
 3489 044c 00F019BE 		b	.L165
 3490              	.L184:
 720:.\Protocolo.c **** 						}
 721:.\Protocolo.c **** 						Surtidor_ClearRxBuffer();
 3491              		.loc 1 721 0
 3492 0450 FFF7FEFF 		bl	Surtidor_ClearRxBuffer
 722:.\Protocolo.c **** 						return 1;
 3493              		.loc 1 722 0
 3494 0454 0123     		movs	r3, #1
 3495 0456 00F014BE 		b	.L165
 3496              	.L157:
 723:.\Protocolo.c **** 					}
 724:.\Protocolo.c **** 					else{
 725:.\Protocolo.c **** 						Surtidor_ClearRxBuffer();
 3497              		.loc 1 725 0
 3498 045a FFF7FEFF 		bl	Surtidor_ClearRxBuffer
 726:.\Protocolo.c **** 						return 0;
ARM GAS  C:\Users\IN-002~1\AppData\Local\Temp\cchaWHVS.s 			page 77


 3499              		.loc 1 726 0
 3500 045e 0023     		movs	r3, #0
 3501 0460 00F00FBE 		b	.L165
 3502              	.L156:
 727:.\Protocolo.c **** 					}					
 728:.\Protocolo.c **** 				}
 729:.\Protocolo.c **** 				else{
 730:.\Protocolo.c **** 					Surtidor_ClearRxBuffer();
 3503              		.loc 1 730 0
 3504 0464 FFF7FEFF 		bl	Surtidor_ClearRxBuffer
 731:.\Protocolo.c **** 					return 0;		
 3505              		.loc 1 731 0
 3506 0468 0023     		movs	r3, #0
 3507 046a 00F00ABE 		b	.L165
 3508              	.L154:
 732:.\Protocolo.c **** 				}
 733:.\Protocolo.c **** 			}
 734:.\Protocolo.c **** 			else{
 735:.\Protocolo.c **** 				CyDelay(900);
 3509              		.loc 1 735 0
 3510 046e 4FF46170 		mov	r0, #900
 3511 0472 FFF7FEFF 		bl	CyDelay
 736:.\Protocolo.c **** 				x=Surtidor_GetRxBufferSize();
 3512              		.loc 1 736 0
 3513 0476 FFF7FEFF 		bl	Surtidor_GetRxBufferSize
 3514 047a 0346     		mov	r3, r0
 3515 047c FB73     		strb	r3, [r7, #15]
 737:.\Protocolo.c **** 				if((x==46)||(x==88)||(x==130)){				
 3516              		.loc 1 737 0
 3517 047e FB7B     		ldrb	r3, [r7, #15]	@ zero_extendqisi2
 3518 0480 2E2B     		cmp	r3, #46
 3519 0482 06D0     		beq	.L205
 3520              		.loc 1 737 0 is_stmt 0 discriminator 1
 3521 0484 FB7B     		ldrb	r3, [r7, #15]	@ zero_extendqisi2
 3522 0486 582B     		cmp	r3, #88
 3523 0488 03D0     		beq	.L205
 3524              		.loc 1 737 0 discriminator 2
 3525 048a FB7B     		ldrb	r3, [r7, #15]	@ zero_extendqisi2
 3526 048c 822B     		cmp	r3, #130
 3527 048e 40F0F181 		bne	.L206
 3528              	.L205:
 738:.\Protocolo.c **** 					if((Surtidor_rxBuffer[0]==0xFF)&&(Surtidor_rxBuffer[1]==0xF6)&&(Surtidor_rxBuffer[3]==0xF9)){
 3529              		.loc 1 738 0 is_stmt 1
 3530 0492 4E4B     		ldr	r3, .L355
 3531 0494 1B78     		ldrb	r3, [r3]
 3532 0496 DBB2     		uxtb	r3, r3
 3533 0498 FF2B     		cmp	r3, #255
 3534 049a 40F0E681 		bne	.L207
 3535              		.loc 1 738 0 is_stmt 0 discriminator 1
 3536 049e 4B4B     		ldr	r3, .L355
 3537 04a0 5B78     		ldrb	r3, [r3, #1]
 3538 04a2 DBB2     		uxtb	r3, r3
 3539 04a4 F62B     		cmp	r3, #246
 3540 04a6 40F0E081 		bne	.L207
 3541              		.loc 1 738 0 discriminator 2
 3542 04aa 484B     		ldr	r3, .L355
 3543 04ac DB78     		ldrb	r3, [r3, #3]
ARM GAS  C:\Users\IN-002~1\AppData\Local\Temp\cchaWHVS.s 			page 78


 3544 04ae DBB2     		uxtb	r3, r3
 3545 04b0 F92B     		cmp	r3, #249
 3546 04b2 40F0DA81 		bne	.L207
 739:.\Protocolo.c ****                     	for(y=0;y<=2;y++){
 3547              		.loc 1 739 0 is_stmt 1
 3548 04b6 0023     		movs	r3, #0
 3549 04b8 BB73     		strb	r3, [r7, #14]
 3550 04ba 16E0     		b	.L208
 3551              	.L211:
 740:.\Protocolo.c ****                     		for(x=0;x<=23;x++){
 3552              		.loc 1 740 0
 3553 04bc 0023     		movs	r3, #0
 3554 04be FB73     		strb	r3, [r7, #15]
 3555 04c0 0DE0     		b	.L209
 3556              	.L210:
 741:.\Protocolo.c ****                     			lado1.totales[y][x]=0;
 3557              		.loc 1 741 0 discriminator 3
 3558 04c2 BA7B     		ldrb	r2, [r7, #14]	@ zero_extendqisi2
 3559 04c4 F97B     		ldrb	r1, [r7, #15]	@ zero_extendqisi2
 3560 04c6 4248     		ldr	r0, .L355+4
 3561 04c8 1346     		mov	r3, r2
 3562 04ca 5B00     		lsls	r3, r3, #1
 3563 04cc 1344     		add	r3, r3, r2
 3564 04ce DB00     		lsls	r3, r3, #3
 3565 04d0 0B44     		add	r3, r3, r1
 3566 04d2 0344     		add	r3, r3, r0
 3567 04d4 0022     		movs	r2, #0
 3568 04d6 9A70     		strb	r2, [r3, #2]
 740:.\Protocolo.c ****                     		for(x=0;x<=23;x++){
 3569              		.loc 1 740 0 discriminator 3
 3570 04d8 FB7B     		ldrb	r3, [r7, #15]	@ zero_extendqisi2
 3571 04da 0133     		adds	r3, r3, #1
 3572 04dc FB73     		strb	r3, [r7, #15]
 3573              	.L209:
 740:.\Protocolo.c ****                     		for(x=0;x<=23;x++){
 3574              		.loc 1 740 0 is_stmt 0 discriminator 1
 3575 04de FB7B     		ldrb	r3, [r7, #15]	@ zero_extendqisi2
 3576 04e0 172B     		cmp	r3, #23
 3577 04e2 EED9     		bls	.L210
 739:.\Protocolo.c ****                     	for(y=0;y<=2;y++){
 3578              		.loc 1 739 0 is_stmt 1 discriminator 2
 3579 04e4 BB7B     		ldrb	r3, [r7, #14]	@ zero_extendqisi2
 3580 04e6 0133     		adds	r3, r3, #1
 3581 04e8 BB73     		strb	r3, [r7, #14]
 3582              	.L208:
 739:.\Protocolo.c ****                     	for(y=0;y<=2;y++){
 3583              		.loc 1 739 0 is_stmt 0 discriminator 1
 3584 04ea BB7B     		ldrb	r3, [r7, #14]	@ zero_extendqisi2
 3585 04ec 022B     		cmp	r3, #2
 3586 04ee E5D9     		bls	.L211
 742:.\Protocolo.c ****                     		}
 743:.\Protocolo.c ****                     	}                        
 744:.\Protocolo.c **** 						for(x=0;x<=11;x++){
 3587              		.loc 1 744 0 is_stmt 1
 3588 04f0 0023     		movs	r3, #0
 3589 04f2 FB73     		strb	r3, [r7, #15]
 3590 04f4 21E0     		b	.L212
ARM GAS  C:\Users\IN-002~1\AppData\Local\Temp\cchaWHVS.s 			page 79


 3591              	.L215:
 745:.\Protocolo.c **** 							lado1.totales[0][x]=Surtidor_rxBuffer[x+4];
 3592              		.loc 1 745 0
 3593 04f6 FB7B     		ldrb	r3, [r7, #15]	@ zero_extendqisi2
 3594 04f8 FA7B     		ldrb	r2, [r7, #15]	@ zero_extendqisi2
 3595 04fa 0432     		adds	r2, r2, #4
 3596 04fc 3349     		ldr	r1, .L355
 3597 04fe 8A5C     		ldrb	r2, [r1, r2]
 3598 0500 D1B2     		uxtb	r1, r2
 3599 0502 334A     		ldr	r2, .L355+4
 3600 0504 1344     		add	r3, r3, r2
 3601 0506 0A46     		mov	r2, r1
 3602 0508 9A70     		strb	r2, [r3, #2]
 746:.\Protocolo.c **** 							if(lado1.totales[0][x]==0||(lado1.totales[0][x]&0xF0)!=0xE0){
 3603              		.loc 1 746 0
 3604 050a FB7B     		ldrb	r3, [r7, #15]	@ zero_extendqisi2
 3605 050c 304A     		ldr	r2, .L355+4
 3606 050e 1344     		add	r3, r3, r2
 3607 0510 9B78     		ldrb	r3, [r3, #2]
 3608 0512 DBB2     		uxtb	r3, r3
 3609 0514 002B     		cmp	r3, #0
 3610 0516 08D0     		beq	.L213
 3611              		.loc 1 746 0 is_stmt 0 discriminator 1
 3612 0518 FB7B     		ldrb	r3, [r7, #15]	@ zero_extendqisi2
 3613 051a 2D4A     		ldr	r2, .L355+4
 3614 051c 1344     		add	r3, r3, r2
 3615 051e 9B78     		ldrb	r3, [r3, #2]
 3616 0520 DBB2     		uxtb	r3, r3
 3617 0522 03F0F003 		and	r3, r3, #240
 3618 0526 E02B     		cmp	r3, #224
 3619 0528 04D0     		beq	.L214
 3620              	.L213:
 747:.\Protocolo.c **** 								Surtidor_ClearRxBuffer();
 3621              		.loc 1 747 0 is_stmt 1
 3622 052a FFF7FEFF 		bl	Surtidor_ClearRxBuffer
 748:.\Protocolo.c **** 								return 0;
 3623              		.loc 1 748 0
 3624 052e 0023     		movs	r3, #0
 3625 0530 00F0A7BD 		b	.L165
 3626              	.L214:
 744:.\Protocolo.c **** 							lado1.totales[0][x]=Surtidor_rxBuffer[x+4];
 3627              		.loc 1 744 0 discriminator 2
 3628 0534 FB7B     		ldrb	r3, [r7, #15]	@ zero_extendqisi2
 3629 0536 0133     		adds	r3, r3, #1
 3630 0538 FB73     		strb	r3, [r7, #15]
 3631              	.L212:
 744:.\Protocolo.c **** 							lado1.totales[0][x]=Surtidor_rxBuffer[x+4];
 3632              		.loc 1 744 0 is_stmt 0 discriminator 1
 3633 053a FB7B     		ldrb	r3, [r7, #15]	@ zero_extendqisi2
 3634 053c 0B2B     		cmp	r3, #11
 3635 053e DAD9     		bls	.L215
 749:.\Protocolo.c **** 							}							
 750:.\Protocolo.c **** 						}
 751:.\Protocolo.c **** 						for(x=0;x<=11;x++){
 3636              		.loc 1 751 0 is_stmt 1
 3637 0540 0023     		movs	r3, #0
 3638 0542 FB73     		strb	r3, [r7, #15]
ARM GAS  C:\Users\IN-002~1\AppData\Local\Temp\cchaWHVS.s 			page 80


 3639 0544 24E0     		b	.L216
 3640              	.L219:
 752:.\Protocolo.c **** 							lado1.totales[0][x+12]=Surtidor_rxBuffer[x+17];
 3641              		.loc 1 752 0
 3642 0546 FB7B     		ldrb	r3, [r7, #15]	@ zero_extendqisi2
 3643 0548 0C33     		adds	r3, r3, #12
 3644 054a FA7B     		ldrb	r2, [r7, #15]	@ zero_extendqisi2
 3645 054c 1132     		adds	r2, r2, #17
 3646 054e 1F49     		ldr	r1, .L355
 3647 0550 8A5C     		ldrb	r2, [r1, r2]
 3648 0552 D1B2     		uxtb	r1, r2
 3649 0554 1E4A     		ldr	r2, .L355+4
 3650 0556 1344     		add	r3, r3, r2
 3651 0558 0A46     		mov	r2, r1
 3652 055a 9A70     		strb	r2, [r3, #2]
 753:.\Protocolo.c **** 							if(lado1.totales[0][x+12]==0||(lado1.totales[0][x+12]&0xF0)!=0xE0){
 3653              		.loc 1 753 0
 3654 055c FB7B     		ldrb	r3, [r7, #15]	@ zero_extendqisi2
 3655 055e 0C33     		adds	r3, r3, #12
 3656 0560 1B4A     		ldr	r2, .L355+4
 3657 0562 1344     		add	r3, r3, r2
 3658 0564 9B78     		ldrb	r3, [r3, #2]
 3659 0566 DBB2     		uxtb	r3, r3
 3660 0568 002B     		cmp	r3, #0
 3661 056a 09D0     		beq	.L217
 3662              		.loc 1 753 0 is_stmt 0 discriminator 1
 3663 056c FB7B     		ldrb	r3, [r7, #15]	@ zero_extendqisi2
 3664 056e 0C33     		adds	r3, r3, #12
 3665 0570 174A     		ldr	r2, .L355+4
 3666 0572 1344     		add	r3, r3, r2
 3667 0574 9B78     		ldrb	r3, [r3, #2]
 3668 0576 DBB2     		uxtb	r3, r3
 3669 0578 03F0F003 		and	r3, r3, #240
 3670 057c E02B     		cmp	r3, #224
 3671 057e 04D0     		beq	.L218
 3672              	.L217:
 754:.\Protocolo.c **** 								Surtidor_ClearRxBuffer();
 3673              		.loc 1 754 0 is_stmt 1
 3674 0580 FFF7FEFF 		bl	Surtidor_ClearRxBuffer
 755:.\Protocolo.c **** 								return 0;
 3675              		.loc 1 755 0
 3676 0584 0023     		movs	r3, #0
 3677 0586 00F07CBD 		b	.L165
 3678              	.L218:
 751:.\Protocolo.c **** 							lado1.totales[0][x+12]=Surtidor_rxBuffer[x+17];
 3679              		.loc 1 751 0 discriminator 2
 3680 058a FB7B     		ldrb	r3, [r7, #15]	@ zero_extendqisi2
 3681 058c 0133     		adds	r3, r3, #1
 3682 058e FB73     		strb	r3, [r7, #15]
 3683              	.L216:
 751:.\Protocolo.c **** 							lado1.totales[0][x+12]=Surtidor_rxBuffer[x+17];
 3684              		.loc 1 751 0 is_stmt 0 discriminator 1
 3685 0590 FB7B     		ldrb	r3, [r7, #15]	@ zero_extendqisi2
 3686 0592 0B2B     		cmp	r3, #11
 3687 0594 D7D9     		bls	.L219
 756:.\Protocolo.c **** 							}							
 757:.\Protocolo.c **** 						}
ARM GAS  C:\Users\IN-002~1\AppData\Local\Temp\cchaWHVS.s 			page 81


 758:.\Protocolo.c **** 						for(x=0;x<=4;x++){
 3688              		.loc 1 758 0 is_stmt 1
 3689 0596 0023     		movs	r3, #0
 3690 0598 FB73     		strb	r3, [r7, #15]
 3691 059a 0DE0     		b	.L220
 3692              	.L221:
 759:.\Protocolo.c **** 							lado1.ppu[0][x]=Surtidor_rxBuffer[x+30];
 3693              		.loc 1 759 0 discriminator 3
 3694 059c FB7B     		ldrb	r3, [r7, #15]	@ zero_extendqisi2
 3695 059e FA7B     		ldrb	r2, [r7, #15]	@ zero_extendqisi2
 3696 05a0 1E32     		adds	r2, r2, #30
 3697 05a2 0A49     		ldr	r1, .L355
 3698 05a4 8A5C     		ldrb	r2, [r1, r2]
 3699 05a6 D1B2     		uxtb	r1, r2
 3700 05a8 094A     		ldr	r2, .L355+4
 3701 05aa 1344     		add	r3, r3, r2
 3702 05ac 0A46     		mov	r2, r1
 3703 05ae 83F84A20 		strb	r2, [r3, #74]
 758:.\Protocolo.c **** 							lado1.ppu[0][x]=Surtidor_rxBuffer[x+30];
 3704              		.loc 1 758 0 discriminator 3
 3705 05b2 FB7B     		ldrb	r3, [r7, #15]	@ zero_extendqisi2
 3706 05b4 0133     		adds	r3, r3, #1
 3707 05b6 FB73     		strb	r3, [r7, #15]
 3708              	.L220:
 758:.\Protocolo.c **** 							lado1.ppu[0][x]=Surtidor_rxBuffer[x+30];
 3709              		.loc 1 758 0 is_stmt 0 discriminator 1
 3710 05b8 FB7B     		ldrb	r3, [r7, #15]	@ zero_extendqisi2
 3711 05ba 042B     		cmp	r3, #4
 3712 05bc EED9     		bls	.L221
 760:.\Protocolo.c **** 						}				
 761:.\Protocolo.c **** 						if(nmangueras==2){
 3713              		.loc 1 761 0 is_stmt 1
 3714 05be BB79     		ldrb	r3, [r7, #6]	@ zero_extendqisi2
 3715 05c0 022B     		cmp	r3, #2
 3716 05c2 70D1     		bne	.L222
 762:.\Protocolo.c **** 							for(x=0;x<=11;x++){
 3717              		.loc 1 762 0
 3718 05c4 0023     		movs	r3, #0
 3719 05c6 FB73     		strb	r3, [r7, #15]
 3720 05c8 26E0     		b	.L223
 3721              	.L356:
 3722 05ca 00BF     		.align	2
 3723              	.L355:
 3724 05cc 00000000 		.word	Surtidor_rxBuffer
 3725 05d0 00000000 		.word	lado1
 3726              	.L226:
 763:.\Protocolo.c **** 								lado1.totales[1][x]=Surtidor_rxBuffer[x+46];
 3727              		.loc 1 763 0
 3728 05d4 FB7B     		ldrb	r3, [r7, #15]	@ zero_extendqisi2
 3729 05d6 FA7B     		ldrb	r2, [r7, #15]	@ zero_extendqisi2
 3730 05d8 2E32     		adds	r2, r2, #46
 3731 05da A949     		ldr	r1, .L357
 3732 05dc 8A5C     		ldrb	r2, [r1, r2]
 3733 05de D1B2     		uxtb	r1, r2
 3734 05e0 A84A     		ldr	r2, .L357+4
 3735 05e2 1344     		add	r3, r3, r2
 3736 05e4 0A46     		mov	r2, r1
ARM GAS  C:\Users\IN-002~1\AppData\Local\Temp\cchaWHVS.s 			page 82


 3737 05e6 9A76     		strb	r2, [r3, #26]
 764:.\Protocolo.c **** 								if(lado1.totales[1][x]==0||(lado1.totales[1][x]&0xF0)!=0xE0){
 3738              		.loc 1 764 0
 3739 05e8 FB7B     		ldrb	r3, [r7, #15]	@ zero_extendqisi2
 3740 05ea A64A     		ldr	r2, .L357+4
 3741 05ec 1344     		add	r3, r3, r2
 3742 05ee 9B7E     		ldrb	r3, [r3, #26]
 3743 05f0 DBB2     		uxtb	r3, r3
 3744 05f2 002B     		cmp	r3, #0
 3745 05f4 08D0     		beq	.L224
 3746              		.loc 1 764 0 is_stmt 0 discriminator 1
 3747 05f6 FB7B     		ldrb	r3, [r7, #15]	@ zero_extendqisi2
 3748 05f8 A24A     		ldr	r2, .L357+4
 3749 05fa 1344     		add	r3, r3, r2
 3750 05fc 9B7E     		ldrb	r3, [r3, #26]
 3751 05fe DBB2     		uxtb	r3, r3
 3752 0600 03F0F003 		and	r3, r3, #240
 3753 0604 E02B     		cmp	r3, #224
 3754 0606 04D0     		beq	.L225
 3755              	.L224:
 765:.\Protocolo.c **** 									Surtidor_ClearRxBuffer();
 3756              		.loc 1 765 0 is_stmt 1
 3757 0608 FFF7FEFF 		bl	Surtidor_ClearRxBuffer
 766:.\Protocolo.c **** 									return 0;
 3758              		.loc 1 766 0
 3759 060c 0023     		movs	r3, #0
 3760 060e 00F038BD 		b	.L165
 3761              	.L225:
 762:.\Protocolo.c **** 								lado1.totales[1][x]=Surtidor_rxBuffer[x+46];
 3762              		.loc 1 762 0 discriminator 2
 3763 0612 FB7B     		ldrb	r3, [r7, #15]	@ zero_extendqisi2
 3764 0614 0133     		adds	r3, r3, #1
 3765 0616 FB73     		strb	r3, [r7, #15]
 3766              	.L223:
 762:.\Protocolo.c **** 								lado1.totales[1][x]=Surtidor_rxBuffer[x+46];
 3767              		.loc 1 762 0 is_stmt 0 discriminator 1
 3768 0618 FB7B     		ldrb	r3, [r7, #15]	@ zero_extendqisi2
 3769 061a 0B2B     		cmp	r3, #11
 3770 061c DAD9     		bls	.L226
 767:.\Protocolo.c **** 								}								
 768:.\Protocolo.c **** 							}
 769:.\Protocolo.c **** 							for(x=0;x<=11;x++){
 3771              		.loc 1 769 0 is_stmt 1
 3772 061e 0023     		movs	r3, #0
 3773 0620 FB73     		strb	r3, [r7, #15]
 3774 0622 24E0     		b	.L227
 3775              	.L230:
 770:.\Protocolo.c **** 								lado1.totales[1][x+12]=Surtidor_rxBuffer[x+59];
 3776              		.loc 1 770 0
 3777 0624 FB7B     		ldrb	r3, [r7, #15]	@ zero_extendqisi2
 3778 0626 0C33     		adds	r3, r3, #12
 3779 0628 FA7B     		ldrb	r2, [r7, #15]	@ zero_extendqisi2
 3780 062a 3B32     		adds	r2, r2, #59
 3781 062c 9449     		ldr	r1, .L357
 3782 062e 8A5C     		ldrb	r2, [r1, r2]
 3783 0630 D1B2     		uxtb	r1, r2
 3784 0632 944A     		ldr	r2, .L357+4
ARM GAS  C:\Users\IN-002~1\AppData\Local\Temp\cchaWHVS.s 			page 83


 3785 0634 1344     		add	r3, r3, r2
 3786 0636 0A46     		mov	r2, r1
 3787 0638 9A76     		strb	r2, [r3, #26]
 771:.\Protocolo.c **** 								if(lado1.totales[1][x+12]==0||(lado1.totales[1][x+12]&0xF0)!=0xE0){
 3788              		.loc 1 771 0
 3789 063a FB7B     		ldrb	r3, [r7, #15]	@ zero_extendqisi2
 3790 063c 0C33     		adds	r3, r3, #12
 3791 063e 914A     		ldr	r2, .L357+4
 3792 0640 1344     		add	r3, r3, r2
 3793 0642 9B7E     		ldrb	r3, [r3, #26]
 3794 0644 DBB2     		uxtb	r3, r3
 3795 0646 002B     		cmp	r3, #0
 3796 0648 09D0     		beq	.L228
 3797              		.loc 1 771 0 is_stmt 0 discriminator 1
 3798 064a FB7B     		ldrb	r3, [r7, #15]	@ zero_extendqisi2
 3799 064c 0C33     		adds	r3, r3, #12
 3800 064e 8D4A     		ldr	r2, .L357+4
 3801 0650 1344     		add	r3, r3, r2
 3802 0652 9B7E     		ldrb	r3, [r3, #26]
 3803 0654 DBB2     		uxtb	r3, r3
 3804 0656 03F0F003 		and	r3, r3, #240
 3805 065a E02B     		cmp	r3, #224
 3806 065c 04D0     		beq	.L229
 3807              	.L228:
 772:.\Protocolo.c **** 									Surtidor_ClearRxBuffer();
 3808              		.loc 1 772 0 is_stmt 1
 3809 065e FFF7FEFF 		bl	Surtidor_ClearRxBuffer
 773:.\Protocolo.c **** 									return 0;
 3810              		.loc 1 773 0
 3811 0662 0023     		movs	r3, #0
 3812 0664 00F00DBD 		b	.L165
 3813              	.L229:
 769:.\Protocolo.c **** 								lado1.totales[1][x+12]=Surtidor_rxBuffer[x+59];
 3814              		.loc 1 769 0 discriminator 2
 3815 0668 FB7B     		ldrb	r3, [r7, #15]	@ zero_extendqisi2
 3816 066a 0133     		adds	r3, r3, #1
 3817 066c FB73     		strb	r3, [r7, #15]
 3818              	.L227:
 769:.\Protocolo.c **** 								lado1.totales[1][x+12]=Surtidor_rxBuffer[x+59];
 3819              		.loc 1 769 0 is_stmt 0 discriminator 1
 3820 066e FB7B     		ldrb	r3, [r7, #15]	@ zero_extendqisi2
 3821 0670 0B2B     		cmp	r3, #11
 3822 0672 D7D9     		bls	.L230
 774:.\Protocolo.c **** 								}								
 775:.\Protocolo.c **** 							}
 776:.\Protocolo.c **** 							for(x=0;x<=4;x++){
 3823              		.loc 1 776 0 is_stmt 1
 3824 0674 0023     		movs	r3, #0
 3825 0676 FB73     		strb	r3, [r7, #15]
 3826 0678 0DE0     		b	.L231
 3827              	.L232:
 777:.\Protocolo.c **** 								lado1.ppu[1][x]=Surtidor_rxBuffer[x+72];
 3828              		.loc 1 777 0 discriminator 3
 3829 067a FB7B     		ldrb	r3, [r7, #15]	@ zero_extendqisi2
 3830 067c FA7B     		ldrb	r2, [r7, #15]	@ zero_extendqisi2
 3831 067e 4832     		adds	r2, r2, #72
 3832 0680 7F49     		ldr	r1, .L357
ARM GAS  C:\Users\IN-002~1\AppData\Local\Temp\cchaWHVS.s 			page 84


 3833 0682 8A5C     		ldrb	r2, [r1, r2]
 3834 0684 D1B2     		uxtb	r1, r2
 3835 0686 7F4A     		ldr	r2, .L357+4
 3836 0688 1344     		add	r3, r3, r2
 3837 068a 0A46     		mov	r2, r1
 3838 068c 83F84F20 		strb	r2, [r3, #79]
 776:.\Protocolo.c **** 								lado1.ppu[1][x]=Surtidor_rxBuffer[x+72];
 3839              		.loc 1 776 0 discriminator 3
 3840 0690 FB7B     		ldrb	r3, [r7, #15]	@ zero_extendqisi2
 3841 0692 0133     		adds	r3, r3, #1
 3842 0694 FB73     		strb	r3, [r7, #15]
 3843              	.L231:
 776:.\Protocolo.c **** 								lado1.ppu[1][x]=Surtidor_rxBuffer[x+72];
 3844              		.loc 1 776 0 is_stmt 0 discriminator 1
 3845 0696 FB7B     		ldrb	r3, [r7, #15]	@ zero_extendqisi2
 3846 0698 042B     		cmp	r3, #4
 3847 069a EED9     		bls	.L232
 778:.\Protocolo.c **** 							}
 779:.\Protocolo.c ****     						Surtidor_ClearRxBuffer();
 3848              		.loc 1 779 0 is_stmt 1
 3849 069c FFF7FEFF 		bl	Surtidor_ClearRxBuffer
 780:.\Protocolo.c ****     						return 2;                            
 3850              		.loc 1 780 0
 3851 06a0 0223     		movs	r3, #2
 3852 06a2 00F0EEBC 		b	.L165
 3853              	.L222:
 781:.\Protocolo.c **** 						}
 782:.\Protocolo.c **** 						if(nmangueras==3){
 3854              		.loc 1 782 0
 3855 06a6 BB79     		ldrb	r3, [r7, #6]	@ zero_extendqisi2
 3856 06a8 032B     		cmp	r3, #3
 3857 06aa 40F0D980 		bne	.L233
 783:.\Protocolo.c **** 							for(x=0;x<=11;x++){
 3858              		.loc 1 783 0
 3859 06ae 0023     		movs	r3, #0
 3860 06b0 FB73     		strb	r3, [r7, #15]
 3861 06b2 21E0     		b	.L234
 3862              	.L237:
 784:.\Protocolo.c **** 								lado1.totales[1][x]=Surtidor_rxBuffer[x+46];
 3863              		.loc 1 784 0
 3864 06b4 FB7B     		ldrb	r3, [r7, #15]	@ zero_extendqisi2
 3865 06b6 FA7B     		ldrb	r2, [r7, #15]	@ zero_extendqisi2
 3866 06b8 2E32     		adds	r2, r2, #46
 3867 06ba 7149     		ldr	r1, .L357
 3868 06bc 8A5C     		ldrb	r2, [r1, r2]
 3869 06be D1B2     		uxtb	r1, r2
 3870 06c0 704A     		ldr	r2, .L357+4
 3871 06c2 1344     		add	r3, r3, r2
 3872 06c4 0A46     		mov	r2, r1
 3873 06c6 9A76     		strb	r2, [r3, #26]
 785:.\Protocolo.c **** 								if(lado1.totales[1][x]==0||(lado1.totales[1][x]&0xF0)!=0xE0){
 3874              		.loc 1 785 0
 3875 06c8 FB7B     		ldrb	r3, [r7, #15]	@ zero_extendqisi2
 3876 06ca 6E4A     		ldr	r2, .L357+4
 3877 06cc 1344     		add	r3, r3, r2
 3878 06ce 9B7E     		ldrb	r3, [r3, #26]
 3879 06d0 DBB2     		uxtb	r3, r3
ARM GAS  C:\Users\IN-002~1\AppData\Local\Temp\cchaWHVS.s 			page 85


 3880 06d2 002B     		cmp	r3, #0
 3881 06d4 08D0     		beq	.L235
 3882              		.loc 1 785 0 is_stmt 0 discriminator 1
 3883 06d6 FB7B     		ldrb	r3, [r7, #15]	@ zero_extendqisi2
 3884 06d8 6A4A     		ldr	r2, .L357+4
 3885 06da 1344     		add	r3, r3, r2
 3886 06dc 9B7E     		ldrb	r3, [r3, #26]
 3887 06de DBB2     		uxtb	r3, r3
 3888 06e0 03F0F003 		and	r3, r3, #240
 3889 06e4 E02B     		cmp	r3, #224
 3890 06e6 04D0     		beq	.L236
 3891              	.L235:
 786:.\Protocolo.c **** 									Surtidor_ClearRxBuffer();
 3892              		.loc 1 786 0 is_stmt 1
 3893 06e8 FFF7FEFF 		bl	Surtidor_ClearRxBuffer
 787:.\Protocolo.c **** 									return 0;
 3894              		.loc 1 787 0
 3895 06ec 0023     		movs	r3, #0
 3896 06ee 00F0C8BC 		b	.L165
 3897              	.L236:
 783:.\Protocolo.c **** 								lado1.totales[1][x]=Surtidor_rxBuffer[x+46];
 3898              		.loc 1 783 0 discriminator 2
 3899 06f2 FB7B     		ldrb	r3, [r7, #15]	@ zero_extendqisi2
 3900 06f4 0133     		adds	r3, r3, #1
 3901 06f6 FB73     		strb	r3, [r7, #15]
 3902              	.L234:
 783:.\Protocolo.c **** 								lado1.totales[1][x]=Surtidor_rxBuffer[x+46];
 3903              		.loc 1 783 0 is_stmt 0 discriminator 1
 3904 06f8 FB7B     		ldrb	r3, [r7, #15]	@ zero_extendqisi2
 3905 06fa 0B2B     		cmp	r3, #11
 3906 06fc DAD9     		bls	.L237
 788:.\Protocolo.c **** 								}								
 789:.\Protocolo.c **** 							}
 790:.\Protocolo.c **** 							for(x=0;x<=11;x++){
 3907              		.loc 1 790 0 is_stmt 1
 3908 06fe 0023     		movs	r3, #0
 3909 0700 FB73     		strb	r3, [r7, #15]
 3910 0702 24E0     		b	.L238
 3911              	.L241:
 791:.\Protocolo.c **** 								lado1.totales[1][x+12]=Surtidor_rxBuffer[x+59];
 3912              		.loc 1 791 0
 3913 0704 FB7B     		ldrb	r3, [r7, #15]	@ zero_extendqisi2
 3914 0706 0C33     		adds	r3, r3, #12
 3915 0708 FA7B     		ldrb	r2, [r7, #15]	@ zero_extendqisi2
 3916 070a 3B32     		adds	r2, r2, #59
 3917 070c 5C49     		ldr	r1, .L357
 3918 070e 8A5C     		ldrb	r2, [r1, r2]
 3919 0710 D1B2     		uxtb	r1, r2
 3920 0712 5C4A     		ldr	r2, .L357+4
 3921 0714 1344     		add	r3, r3, r2
 3922 0716 0A46     		mov	r2, r1
 3923 0718 9A76     		strb	r2, [r3, #26]
 792:.\Protocolo.c **** 								if(lado1.totales[1][x+12]==0||(lado1.totales[1][x+12]&0xF0)!=0xE0){
 3924              		.loc 1 792 0
 3925 071a FB7B     		ldrb	r3, [r7, #15]	@ zero_extendqisi2
 3926 071c 0C33     		adds	r3, r3, #12
 3927 071e 594A     		ldr	r2, .L357+4
ARM GAS  C:\Users\IN-002~1\AppData\Local\Temp\cchaWHVS.s 			page 86


 3928 0720 1344     		add	r3, r3, r2
 3929 0722 9B7E     		ldrb	r3, [r3, #26]
 3930 0724 DBB2     		uxtb	r3, r3
 3931 0726 002B     		cmp	r3, #0
 3932 0728 09D0     		beq	.L239
 3933              		.loc 1 792 0 is_stmt 0 discriminator 1
 3934 072a FB7B     		ldrb	r3, [r7, #15]	@ zero_extendqisi2
 3935 072c 0C33     		adds	r3, r3, #12
 3936 072e 554A     		ldr	r2, .L357+4
 3937 0730 1344     		add	r3, r3, r2
 3938 0732 9B7E     		ldrb	r3, [r3, #26]
 3939 0734 DBB2     		uxtb	r3, r3
 3940 0736 03F0F003 		and	r3, r3, #240
 3941 073a E02B     		cmp	r3, #224
 3942 073c 04D0     		beq	.L240
 3943              	.L239:
 793:.\Protocolo.c **** 									Surtidor_ClearRxBuffer();
 3944              		.loc 1 793 0 is_stmt 1
 3945 073e FFF7FEFF 		bl	Surtidor_ClearRxBuffer
 794:.\Protocolo.c **** 									return 0;
 3946              		.loc 1 794 0
 3947 0742 0023     		movs	r3, #0
 3948 0744 00F09DBC 		b	.L165
 3949              	.L240:
 790:.\Protocolo.c **** 								lado1.totales[1][x+12]=Surtidor_rxBuffer[x+59];
 3950              		.loc 1 790 0 discriminator 2
 3951 0748 FB7B     		ldrb	r3, [r7, #15]	@ zero_extendqisi2
 3952 074a 0133     		adds	r3, r3, #1
 3953 074c FB73     		strb	r3, [r7, #15]
 3954              	.L238:
 790:.\Protocolo.c **** 								lado1.totales[1][x+12]=Surtidor_rxBuffer[x+59];
 3955              		.loc 1 790 0 is_stmt 0 discriminator 1
 3956 074e FB7B     		ldrb	r3, [r7, #15]	@ zero_extendqisi2
 3957 0750 0B2B     		cmp	r3, #11
 3958 0752 D7D9     		bls	.L241
 795:.\Protocolo.c **** 								}								
 796:.\Protocolo.c **** 							}
 797:.\Protocolo.c **** 							for(x=0;x<=4;x++){
 3959              		.loc 1 797 0 is_stmt 1
 3960 0754 0023     		movs	r3, #0
 3961 0756 FB73     		strb	r3, [r7, #15]
 3962 0758 0DE0     		b	.L242
 3963              	.L243:
 798:.\Protocolo.c **** 								lado1.ppu[1][x]=Surtidor_rxBuffer[x+72];
 3964              		.loc 1 798 0 discriminator 3
 3965 075a FB7B     		ldrb	r3, [r7, #15]	@ zero_extendqisi2
 3966 075c FA7B     		ldrb	r2, [r7, #15]	@ zero_extendqisi2
 3967 075e 4832     		adds	r2, r2, #72
 3968 0760 4749     		ldr	r1, .L357
 3969 0762 8A5C     		ldrb	r2, [r1, r2]
 3970 0764 D1B2     		uxtb	r1, r2
 3971 0766 474A     		ldr	r2, .L357+4
 3972 0768 1344     		add	r3, r3, r2
 3973 076a 0A46     		mov	r2, r1
 3974 076c 83F84F20 		strb	r2, [r3, #79]
 797:.\Protocolo.c **** 								lado1.ppu[1][x]=Surtidor_rxBuffer[x+72];
 3975              		.loc 1 797 0 discriminator 3
ARM GAS  C:\Users\IN-002~1\AppData\Local\Temp\cchaWHVS.s 			page 87


 3976 0770 FB7B     		ldrb	r3, [r7, #15]	@ zero_extendqisi2
 3977 0772 0133     		adds	r3, r3, #1
 3978 0774 FB73     		strb	r3, [r7, #15]
 3979              	.L242:
 797:.\Protocolo.c **** 								lado1.ppu[1][x]=Surtidor_rxBuffer[x+72];
 3980              		.loc 1 797 0 is_stmt 0 discriminator 1
 3981 0776 FB7B     		ldrb	r3, [r7, #15]	@ zero_extendqisi2
 3982 0778 042B     		cmp	r3, #4
 3983 077a EED9     		bls	.L243
 799:.\Protocolo.c **** 							}					
 800:.\Protocolo.c **** 							for(x=0;x<=11;x++){
 3984              		.loc 1 800 0 is_stmt 1
 3985 077c 0023     		movs	r3, #0
 3986 077e FB73     		strb	r3, [r7, #15]
 3987 0780 24E0     		b	.L244
 3988              	.L247:
 801:.\Protocolo.c **** 								lado1.totales[2][x]=Surtidor_rxBuffer[x+88];
 3989              		.loc 1 801 0
 3990 0782 FB7B     		ldrb	r3, [r7, #15]	@ zero_extendqisi2
 3991 0784 FA7B     		ldrb	r2, [r7, #15]	@ zero_extendqisi2
 3992 0786 5832     		adds	r2, r2, #88
 3993 0788 3D49     		ldr	r1, .L357
 3994 078a 8A5C     		ldrb	r2, [r1, r2]
 3995 078c D1B2     		uxtb	r1, r2
 3996 078e 3D4A     		ldr	r2, .L357+4
 3997 0790 1344     		add	r3, r3, r2
 3998 0792 0A46     		mov	r2, r1
 3999 0794 83F83220 		strb	r2, [r3, #50]
 802:.\Protocolo.c **** 								if(lado1.totales[2][x]==0||(lado1.totales[2][x]&0xF0)!=0xE0){
 4000              		.loc 1 802 0
 4001 0798 FB7B     		ldrb	r3, [r7, #15]	@ zero_extendqisi2
 4002 079a 3A4A     		ldr	r2, .L357+4
 4003 079c 1344     		add	r3, r3, r2
 4004 079e 93F83230 		ldrb	r3, [r3, #50]
 4005 07a2 DBB2     		uxtb	r3, r3
 4006 07a4 002B     		cmp	r3, #0
 4007 07a6 09D0     		beq	.L245
 4008              		.loc 1 802 0 is_stmt 0 discriminator 1
 4009 07a8 FB7B     		ldrb	r3, [r7, #15]	@ zero_extendqisi2
 4010 07aa 364A     		ldr	r2, .L357+4
 4011 07ac 1344     		add	r3, r3, r2
 4012 07ae 93F83230 		ldrb	r3, [r3, #50]
 4013 07b2 DBB2     		uxtb	r3, r3
 4014 07b4 03F0F003 		and	r3, r3, #240
 4015 07b8 E02B     		cmp	r3, #224
 4016 07ba 04D0     		beq	.L246
 4017              	.L245:
 803:.\Protocolo.c **** 									Surtidor_ClearRxBuffer();
 4018              		.loc 1 803 0 is_stmt 1
 4019 07bc FFF7FEFF 		bl	Surtidor_ClearRxBuffer
 804:.\Protocolo.c **** 									return 0;
 4020              		.loc 1 804 0
 4021 07c0 0023     		movs	r3, #0
 4022 07c2 00F05EBC 		b	.L165
 4023              	.L246:
 800:.\Protocolo.c **** 								lado1.totales[2][x]=Surtidor_rxBuffer[x+88];
 4024              		.loc 1 800 0 discriminator 2
ARM GAS  C:\Users\IN-002~1\AppData\Local\Temp\cchaWHVS.s 			page 88


 4025 07c6 FB7B     		ldrb	r3, [r7, #15]	@ zero_extendqisi2
 4026 07c8 0133     		adds	r3, r3, #1
 4027 07ca FB73     		strb	r3, [r7, #15]
 4028              	.L244:
 800:.\Protocolo.c **** 								lado1.totales[2][x]=Surtidor_rxBuffer[x+88];
 4029              		.loc 1 800 0 is_stmt 0 discriminator 1
 4030 07cc FB7B     		ldrb	r3, [r7, #15]	@ zero_extendqisi2
 4031 07ce 0B2B     		cmp	r3, #11
 4032 07d0 D7D9     		bls	.L247
 805:.\Protocolo.c **** 								}								
 806:.\Protocolo.c **** 							}
 807:.\Protocolo.c **** 							for(x=0;x<=11;x++){
 4033              		.loc 1 807 0 is_stmt 1
 4034 07d2 0023     		movs	r3, #0
 4035 07d4 FB73     		strb	r3, [r7, #15]
 4036 07d6 27E0     		b	.L248
 4037              	.L251:
 808:.\Protocolo.c **** 								lado1.totales[2][x+12]=Surtidor_rxBuffer[x+101];
 4038              		.loc 1 808 0
 4039 07d8 FB7B     		ldrb	r3, [r7, #15]	@ zero_extendqisi2
 4040 07da 0C33     		adds	r3, r3, #12
 4041 07dc FA7B     		ldrb	r2, [r7, #15]	@ zero_extendqisi2
 4042 07de 6532     		adds	r2, r2, #101
 4043 07e0 2749     		ldr	r1, .L357
 4044 07e2 8A5C     		ldrb	r2, [r1, r2]
 4045 07e4 D1B2     		uxtb	r1, r2
 4046 07e6 274A     		ldr	r2, .L357+4
 4047 07e8 1344     		add	r3, r3, r2
 4048 07ea 0A46     		mov	r2, r1
 4049 07ec 83F83220 		strb	r2, [r3, #50]
 809:.\Protocolo.c **** 								if(lado1.totales[2][x+12]==0||(lado1.totales[2][x+12]&0xF0)!=0xE0){
 4050              		.loc 1 809 0
 4051 07f0 FB7B     		ldrb	r3, [r7, #15]	@ zero_extendqisi2
 4052 07f2 0C33     		adds	r3, r3, #12
 4053 07f4 234A     		ldr	r2, .L357+4
 4054 07f6 1344     		add	r3, r3, r2
 4055 07f8 93F83230 		ldrb	r3, [r3, #50]
 4056 07fc DBB2     		uxtb	r3, r3
 4057 07fe 002B     		cmp	r3, #0
 4058 0800 0AD0     		beq	.L249
 4059              		.loc 1 809 0 is_stmt 0 discriminator 1
 4060 0802 FB7B     		ldrb	r3, [r7, #15]	@ zero_extendqisi2
 4061 0804 0C33     		adds	r3, r3, #12
 4062 0806 1F4A     		ldr	r2, .L357+4
 4063 0808 1344     		add	r3, r3, r2
 4064 080a 93F83230 		ldrb	r3, [r3, #50]
 4065 080e DBB2     		uxtb	r3, r3
 4066 0810 03F0F003 		and	r3, r3, #240
 4067 0814 E02B     		cmp	r3, #224
 4068 0816 04D0     		beq	.L250
 4069              	.L249:
 810:.\Protocolo.c **** 									Surtidor_ClearRxBuffer();
 4070              		.loc 1 810 0 is_stmt 1
 4071 0818 FFF7FEFF 		bl	Surtidor_ClearRxBuffer
 811:.\Protocolo.c **** 									return 0;
 4072              		.loc 1 811 0
 4073 081c 0023     		movs	r3, #0
ARM GAS  C:\Users\IN-002~1\AppData\Local\Temp\cchaWHVS.s 			page 89


 4074 081e 00F030BC 		b	.L165
 4075              	.L250:
 807:.\Protocolo.c **** 								lado1.totales[2][x+12]=Surtidor_rxBuffer[x+101];
 4076              		.loc 1 807 0 discriminator 2
 4077 0822 FB7B     		ldrb	r3, [r7, #15]	@ zero_extendqisi2
 4078 0824 0133     		adds	r3, r3, #1
 4079 0826 FB73     		strb	r3, [r7, #15]
 4080              	.L248:
 807:.\Protocolo.c **** 								lado1.totales[2][x+12]=Surtidor_rxBuffer[x+101];
 4081              		.loc 1 807 0 is_stmt 0 discriminator 1
 4082 0828 FB7B     		ldrb	r3, [r7, #15]	@ zero_extendqisi2
 4083 082a 0B2B     		cmp	r3, #11
 4084 082c D4D9     		bls	.L251
 812:.\Protocolo.c **** 								}								
 813:.\Protocolo.c **** 							}
 814:.\Protocolo.c **** 							for(x=0;x<=4;x++){
 4085              		.loc 1 814 0 is_stmt 1
 4086 082e 0023     		movs	r3, #0
 4087 0830 FB73     		strb	r3, [r7, #15]
 4088 0832 0DE0     		b	.L252
 4089              	.L253:
 815:.\Protocolo.c **** 								lado1.ppu[2][x]=Surtidor_rxBuffer[x+114];
 4090              		.loc 1 815 0 discriminator 3
 4091 0834 FB7B     		ldrb	r3, [r7, #15]	@ zero_extendqisi2
 4092 0836 FA7B     		ldrb	r2, [r7, #15]	@ zero_extendqisi2
 4093 0838 7232     		adds	r2, r2, #114
 4094 083a 1149     		ldr	r1, .L357
 4095 083c 8A5C     		ldrb	r2, [r1, r2]
 4096 083e D1B2     		uxtb	r1, r2
 4097 0840 104A     		ldr	r2, .L357+4
 4098 0842 1344     		add	r3, r3, r2
 4099 0844 0A46     		mov	r2, r1
 4100 0846 83F85420 		strb	r2, [r3, #84]
 814:.\Protocolo.c **** 								lado1.ppu[2][x]=Surtidor_rxBuffer[x+114];
 4101              		.loc 1 814 0 discriminator 3
 4102 084a FB7B     		ldrb	r3, [r7, #15]	@ zero_extendqisi2
 4103 084c 0133     		adds	r3, r3, #1
 4104 084e FB73     		strb	r3, [r7, #15]
 4105              	.L252:
 814:.\Protocolo.c **** 								lado1.ppu[2][x]=Surtidor_rxBuffer[x+114];
 4106              		.loc 1 814 0 is_stmt 0 discriminator 1
 4107 0850 FB7B     		ldrb	r3, [r7, #15]	@ zero_extendqisi2
 4108 0852 042B     		cmp	r3, #4
 4109 0854 EED9     		bls	.L253
 816:.\Protocolo.c **** 							}
 817:.\Protocolo.c ****     						Surtidor_ClearRxBuffer();
 4110              		.loc 1 817 0 is_stmt 1
 4111 0856 FFF7FEFF 		bl	Surtidor_ClearRxBuffer
 818:.\Protocolo.c ****     						return 3;                            
 4112              		.loc 1 818 0
 4113 085a 0323     		movs	r3, #3
 4114 085c 00F011BC 		b	.L165
 4115              	.L233:
 819:.\Protocolo.c **** 						}
 820:.\Protocolo.c **** 						Surtidor_ClearRxBuffer();
 4116              		.loc 1 820 0
 4117 0860 FFF7FEFF 		bl	Surtidor_ClearRxBuffer
ARM GAS  C:\Users\IN-002~1\AppData\Local\Temp\cchaWHVS.s 			page 90


 821:.\Protocolo.c **** 						return 1;			
 4118              		.loc 1 821 0
 4119 0864 0123     		movs	r3, #1
 4120 0866 00F00CBC 		b	.L165
 4121              	.L207:
 822:.\Protocolo.c **** 					}
 823:.\Protocolo.c **** 					else{
 824:.\Protocolo.c **** 						Surtidor_ClearRxBuffer();
 4122              		.loc 1 824 0
 4123 086a FFF7FEFF 		bl	Surtidor_ClearRxBuffer
 825:.\Protocolo.c **** 						return 0;					
 4124              		.loc 1 825 0
 4125 086e 0023     		movs	r3, #0
 4126 0870 00F007BC 		b	.L165
 4127              	.L206:
 826:.\Protocolo.c **** 					}
 827:.\Protocolo.c **** 				}
 828:.\Protocolo.c **** 				else{
 829:.\Protocolo.c **** 					Surtidor_ClearRxBuffer();
 4128              		.loc 1 829 0
 4129 0874 FFF7FEFF 		bl	Surtidor_ClearRxBuffer
 830:.\Protocolo.c **** 					return 0;		
 4130              		.loc 1 830 0
 4131 0878 0023     		movs	r3, #0
 4132 087a 00F002BC 		b	.L165
 4133              	.L358:
 4134 087e 00BF     		.align	2
 4135              	.L357:
 4136 0880 00000000 		.word	Surtidor_rxBuffer
 4137 0884 00000000 		.word	lado1
 4138              	.L153:
 831:.\Protocolo.c **** 				}	
 832:.\Protocolo.c **** 			}
 833:.\Protocolo.c **** 		}
 834:.\Protocolo.c **** 		else{
 835:.\Protocolo.c **** 			if(version[1]!=7){
 4139              		.loc 1 835 0
 4140 0888 A24B     		ldr	r3, .L359
 4141 088a 5B78     		ldrb	r3, [r3, #1]
 4142 088c DBB2     		uxtb	r3, r3
 4143 088e 072B     		cmp	r3, #7
 4144 0890 00F0FC81 		beq	.L254
 836:.\Protocolo.c **** 				CyDelay(900);
 4145              		.loc 1 836 0
 4146 0894 4FF46170 		mov	r0, #900
 4147 0898 FFF7FEFF 		bl	CyDelay
 837:.\Protocolo.c **** 				x=Surtidor_GetRxBufferSize();
 4148              		.loc 1 837 0
 4149 089c FFF7FEFF 		bl	Surtidor_GetRxBufferSize
 4150 08a0 0346     		mov	r3, r0
 4151 08a2 FB73     		strb	r3, [r7, #15]
 838:.\Protocolo.c **** 				if((x==34)||(x==64)||(x==94)){				
 4152              		.loc 1 838 0
 4153 08a4 FB7B     		ldrb	r3, [r7, #15]	@ zero_extendqisi2
 4154 08a6 222B     		cmp	r3, #34
 4155 08a8 06D0     		beq	.L255
 4156              		.loc 1 838 0 is_stmt 0 discriminator 1
ARM GAS  C:\Users\IN-002~1\AppData\Local\Temp\cchaWHVS.s 			page 91


 4157 08aa FB7B     		ldrb	r3, [r7, #15]	@ zero_extendqisi2
 4158 08ac 402B     		cmp	r3, #64
 4159 08ae 03D0     		beq	.L255
 4160              		.loc 1 838 0 discriminator 2
 4161 08b0 FB7B     		ldrb	r3, [r7, #15]	@ zero_extendqisi2
 4162 08b2 5E2B     		cmp	r3, #94
 4163 08b4 40F0E681 		bne	.L256
 4164              	.L255:
 839:.\Protocolo.c **** 					if((Surtidor_rxBuffer[0]==0xFF)&&(Surtidor_rxBuffer[1]==0xF6)&&(Surtidor_rxBuffer[3]==0xF9)){
 4165              		.loc 1 839 0 is_stmt 1
 4166 08b8 974B     		ldr	r3, .L359+4
 4167 08ba 1B78     		ldrb	r3, [r3]
 4168 08bc DBB2     		uxtb	r3, r3
 4169 08be FF2B     		cmp	r3, #255
 4170 08c0 40F0DC81 		bne	.L257
 4171              		.loc 1 839 0 is_stmt 0 discriminator 1
 4172 08c4 944B     		ldr	r3, .L359+4
 4173 08c6 5B78     		ldrb	r3, [r3, #1]
 4174 08c8 DBB2     		uxtb	r3, r3
 4175 08ca F62B     		cmp	r3, #246
 4176 08cc 40F0D681 		bne	.L257
 4177              		.loc 1 839 0 discriminator 2
 4178 08d0 914B     		ldr	r3, .L359+4
 4179 08d2 DB78     		ldrb	r3, [r3, #3]
 4180 08d4 DBB2     		uxtb	r3, r3
 4181 08d6 F92B     		cmp	r3, #249
 4182 08d8 40F0D081 		bne	.L257
 840:.\Protocolo.c ****                     	for(y=0;y<=2;y++){
 4183              		.loc 1 840 0 is_stmt 1
 4184 08dc 0023     		movs	r3, #0
 4185 08de BB73     		strb	r3, [r7, #14]
 4186 08e0 16E0     		b	.L258
 4187              	.L261:
 841:.\Protocolo.c ****                     		for(x=0;x<=23;x++){
 4188              		.loc 1 841 0
 4189 08e2 0023     		movs	r3, #0
 4190 08e4 FB73     		strb	r3, [r7, #15]
 4191 08e6 0DE0     		b	.L259
 4192              	.L260:
 842:.\Protocolo.c ****                     			lado2.totales[y][x]=0;
 4193              		.loc 1 842 0 discriminator 3
 4194 08e8 BA7B     		ldrb	r2, [r7, #14]	@ zero_extendqisi2
 4195 08ea F97B     		ldrb	r1, [r7, #15]	@ zero_extendqisi2
 4196 08ec 8B48     		ldr	r0, .L359+8
 4197 08ee 1346     		mov	r3, r2
 4198 08f0 5B00     		lsls	r3, r3, #1
 4199 08f2 1344     		add	r3, r3, r2
 4200 08f4 DB00     		lsls	r3, r3, #3
 4201 08f6 0B44     		add	r3, r3, r1
 4202 08f8 0344     		add	r3, r3, r0
 4203 08fa 0022     		movs	r2, #0
 4204 08fc 9A70     		strb	r2, [r3, #2]
 841:.\Protocolo.c ****                     		for(x=0;x<=23;x++){
 4205              		.loc 1 841 0 discriminator 3
 4206 08fe FB7B     		ldrb	r3, [r7, #15]	@ zero_extendqisi2
 4207 0900 0133     		adds	r3, r3, #1
 4208 0902 FB73     		strb	r3, [r7, #15]
ARM GAS  C:\Users\IN-002~1\AppData\Local\Temp\cchaWHVS.s 			page 92


 4209              	.L259:
 841:.\Protocolo.c ****                     		for(x=0;x<=23;x++){
 4210              		.loc 1 841 0 is_stmt 0 discriminator 1
 4211 0904 FB7B     		ldrb	r3, [r7, #15]	@ zero_extendqisi2
 4212 0906 172B     		cmp	r3, #23
 4213 0908 EED9     		bls	.L260
 840:.\Protocolo.c ****                     	for(y=0;y<=2;y++){
 4214              		.loc 1 840 0 is_stmt 1 discriminator 2
 4215 090a BB7B     		ldrb	r3, [r7, #14]	@ zero_extendqisi2
 4216 090c 0133     		adds	r3, r3, #1
 4217 090e BB73     		strb	r3, [r7, #14]
 4218              	.L258:
 840:.\Protocolo.c ****                     	for(y=0;y<=2;y++){
 4219              		.loc 1 840 0 is_stmt 0 discriminator 1
 4220 0910 BB7B     		ldrb	r3, [r7, #14]	@ zero_extendqisi2
 4221 0912 022B     		cmp	r3, #2
 4222 0914 E5D9     		bls	.L261
 843:.\Protocolo.c ****                     		}
 844:.\Protocolo.c ****                     	}                        
 845:.\Protocolo.c **** 						for(x=0;x<=7;x++){
 4223              		.loc 1 845 0 is_stmt 1
 4224 0916 0023     		movs	r3, #0
 4225 0918 FB73     		strb	r3, [r7, #15]
 4226 091a 20E0     		b	.L262
 4227              	.L265:
 846:.\Protocolo.c **** 							lado2.totales[0][x]=Surtidor_rxBuffer[x+4];
 4228              		.loc 1 846 0
 4229 091c FB7B     		ldrb	r3, [r7, #15]	@ zero_extendqisi2
 4230 091e FA7B     		ldrb	r2, [r7, #15]	@ zero_extendqisi2
 4231 0920 0432     		adds	r2, r2, #4
 4232 0922 7D49     		ldr	r1, .L359+4
 4233 0924 8A5C     		ldrb	r2, [r1, r2]
 4234 0926 D1B2     		uxtb	r1, r2
 4235 0928 7C4A     		ldr	r2, .L359+8
 4236 092a 1344     		add	r3, r3, r2
 4237 092c 0A46     		mov	r2, r1
 4238 092e 9A70     		strb	r2, [r3, #2]
 847:.\Protocolo.c **** 							if(lado2.totales[0][x]==0||(lado2.totales[0][x]&0xF0)!=0xE0){
 4239              		.loc 1 847 0
 4240 0930 FB7B     		ldrb	r3, [r7, #15]	@ zero_extendqisi2
 4241 0932 7A4A     		ldr	r2, .L359+8
 4242 0934 1344     		add	r3, r3, r2
 4243 0936 9B78     		ldrb	r3, [r3, #2]
 4244 0938 DBB2     		uxtb	r3, r3
 4245 093a 002B     		cmp	r3, #0
 4246 093c 08D0     		beq	.L263
 4247              		.loc 1 847 0 is_stmt 0 discriminator 1
 4248 093e FB7B     		ldrb	r3, [r7, #15]	@ zero_extendqisi2
 4249 0940 764A     		ldr	r2, .L359+8
 4250 0942 1344     		add	r3, r3, r2
 4251 0944 9B78     		ldrb	r3, [r3, #2]
 4252 0946 DBB2     		uxtb	r3, r3
 4253 0948 03F0F003 		and	r3, r3, #240
 4254 094c E02B     		cmp	r3, #224
 4255 094e 03D0     		beq	.L264
 4256              	.L263:
 848:.\Protocolo.c **** 								Surtidor_ClearRxBuffer();
ARM GAS  C:\Users\IN-002~1\AppData\Local\Temp\cchaWHVS.s 			page 93


 4257              		.loc 1 848 0 is_stmt 1
 4258 0950 FFF7FEFF 		bl	Surtidor_ClearRxBuffer
 849:.\Protocolo.c **** 								return 0;
 4259              		.loc 1 849 0
 4260 0954 0023     		movs	r3, #0
 4261 0956 94E3     		b	.L165
 4262              	.L264:
 845:.\Protocolo.c **** 							lado2.totales[0][x]=Surtidor_rxBuffer[x+4];
 4263              		.loc 1 845 0 discriminator 2
 4264 0958 FB7B     		ldrb	r3, [r7, #15]	@ zero_extendqisi2
 4265 095a 0133     		adds	r3, r3, #1
 4266 095c FB73     		strb	r3, [r7, #15]
 4267              	.L262:
 845:.\Protocolo.c **** 							lado2.totales[0][x]=Surtidor_rxBuffer[x+4];
 4268              		.loc 1 845 0 is_stmt 0 discriminator 1
 4269 095e FB7B     		ldrb	r3, [r7, #15]	@ zero_extendqisi2
 4270 0960 072B     		cmp	r3, #7
 4271 0962 DBD9     		bls	.L265
 850:.\Protocolo.c **** 							}							
 851:.\Protocolo.c **** 						}
 852:.\Protocolo.c **** 						for(x=0;x<=7;x++){
 4272              		.loc 1 852 0 is_stmt 1
 4273 0964 0023     		movs	r3, #0
 4274 0966 FB73     		strb	r3, [r7, #15]
 4275 0968 23E0     		b	.L266
 4276              	.L269:
 853:.\Protocolo.c **** 							lado2.totales[0][x+12]=Surtidor_rxBuffer[x+13];
 4277              		.loc 1 853 0
 4278 096a FB7B     		ldrb	r3, [r7, #15]	@ zero_extendqisi2
 4279 096c 0C33     		adds	r3, r3, #12
 4280 096e FA7B     		ldrb	r2, [r7, #15]	@ zero_extendqisi2
 4281 0970 0D32     		adds	r2, r2, #13
 4282 0972 6949     		ldr	r1, .L359+4
 4283 0974 8A5C     		ldrb	r2, [r1, r2]
 4284 0976 D1B2     		uxtb	r1, r2
 4285 0978 684A     		ldr	r2, .L359+8
 4286 097a 1344     		add	r3, r3, r2
 4287 097c 0A46     		mov	r2, r1
 4288 097e 9A70     		strb	r2, [r3, #2]
 854:.\Protocolo.c **** 							if(lado2.totales[0][x+12]==0||(lado2.totales[0][x+12]&0xF0)!=0xE0){
 4289              		.loc 1 854 0
 4290 0980 FB7B     		ldrb	r3, [r7, #15]	@ zero_extendqisi2
 4291 0982 0C33     		adds	r3, r3, #12
 4292 0984 654A     		ldr	r2, .L359+8
 4293 0986 1344     		add	r3, r3, r2
 4294 0988 9B78     		ldrb	r3, [r3, #2]
 4295 098a DBB2     		uxtb	r3, r3
 4296 098c 002B     		cmp	r3, #0
 4297 098e 09D0     		beq	.L267
 4298              		.loc 1 854 0 is_stmt 0 discriminator 1
 4299 0990 FB7B     		ldrb	r3, [r7, #15]	@ zero_extendqisi2
 4300 0992 0C33     		adds	r3, r3, #12
 4301 0994 614A     		ldr	r2, .L359+8
 4302 0996 1344     		add	r3, r3, r2
 4303 0998 9B78     		ldrb	r3, [r3, #2]
 4304 099a DBB2     		uxtb	r3, r3
 4305 099c 03F0F003 		and	r3, r3, #240
ARM GAS  C:\Users\IN-002~1\AppData\Local\Temp\cchaWHVS.s 			page 94


 4306 09a0 E02B     		cmp	r3, #224
 4307 09a2 03D0     		beq	.L268
 4308              	.L267:
 855:.\Protocolo.c **** 								Surtidor_ClearRxBuffer();
 4309              		.loc 1 855 0 is_stmt 1
 4310 09a4 FFF7FEFF 		bl	Surtidor_ClearRxBuffer
 856:.\Protocolo.c **** 								return 0;
 4311              		.loc 1 856 0
 4312 09a8 0023     		movs	r3, #0
 4313 09aa 6AE3     		b	.L165
 4314              	.L268:
 852:.\Protocolo.c **** 							lado2.totales[0][x+12]=Surtidor_rxBuffer[x+13];
 4315              		.loc 1 852 0 discriminator 2
 4316 09ac FB7B     		ldrb	r3, [r7, #15]	@ zero_extendqisi2
 4317 09ae 0133     		adds	r3, r3, #1
 4318 09b0 FB73     		strb	r3, [r7, #15]
 4319              	.L266:
 852:.\Protocolo.c **** 							lado2.totales[0][x+12]=Surtidor_rxBuffer[x+13];
 4320              		.loc 1 852 0 is_stmt 0 discriminator 1
 4321 09b2 FB7B     		ldrb	r3, [r7, #15]	@ zero_extendqisi2
 4322 09b4 072B     		cmp	r3, #7
 4323 09b6 D8D9     		bls	.L269
 857:.\Protocolo.c **** 							}							
 858:.\Protocolo.c **** 						}
 859:.\Protocolo.c **** 						for(x=0;x<=3;x++){
 4324              		.loc 1 859 0 is_stmt 1
 4325 09b8 0023     		movs	r3, #0
 4326 09ba FB73     		strb	r3, [r7, #15]
 4327 09bc 0DE0     		b	.L270
 4328              	.L271:
 860:.\Protocolo.c **** 							lado2.ppu[0][x]=Surtidor_rxBuffer[x+22];
 4329              		.loc 1 860 0 discriminator 3
 4330 09be FB7B     		ldrb	r3, [r7, #15]	@ zero_extendqisi2
 4331 09c0 FA7B     		ldrb	r2, [r7, #15]	@ zero_extendqisi2
 4332 09c2 1632     		adds	r2, r2, #22
 4333 09c4 5449     		ldr	r1, .L359+4
 4334 09c6 8A5C     		ldrb	r2, [r1, r2]
 4335 09c8 D1B2     		uxtb	r1, r2
 4336 09ca 544A     		ldr	r2, .L359+8
 4337 09cc 1344     		add	r3, r3, r2
 4338 09ce 0A46     		mov	r2, r1
 4339 09d0 83F84A20 		strb	r2, [r3, #74]
 859:.\Protocolo.c **** 							lado2.ppu[0][x]=Surtidor_rxBuffer[x+22];
 4340              		.loc 1 859 0 discriminator 3
 4341 09d4 FB7B     		ldrb	r3, [r7, #15]	@ zero_extendqisi2
 4342 09d6 0133     		adds	r3, r3, #1
 4343 09d8 FB73     		strb	r3, [r7, #15]
 4344              	.L270:
 859:.\Protocolo.c **** 							lado2.ppu[0][x]=Surtidor_rxBuffer[x+22];
 4345              		.loc 1 859 0 is_stmt 0 discriminator 1
 4346 09da FB7B     		ldrb	r3, [r7, #15]	@ zero_extendqisi2
 4347 09dc 032B     		cmp	r3, #3
 4348 09de EED9     		bls	.L271
 861:.\Protocolo.c **** 						}				
 862:.\Protocolo.c **** 						if(nmangueras==2){
 4349              		.loc 1 862 0 is_stmt 1
 4350 09e0 BB79     		ldrb	r3, [r7, #6]	@ zero_extendqisi2
ARM GAS  C:\Users\IN-002~1\AppData\Local\Temp\cchaWHVS.s 			page 95


 4351 09e2 022B     		cmp	r3, #2
 4352 09e4 68D1     		bne	.L272
 863:.\Protocolo.c **** 							for(x=0;x<=7;x++){
 4353              		.loc 1 863 0
 4354 09e6 0023     		movs	r3, #0
 4355 09e8 FB73     		strb	r3, [r7, #15]
 4356 09ea 20E0     		b	.L273
 4357              	.L276:
 864:.\Protocolo.c **** 								lado2.totales[1][x]=Surtidor_rxBuffer[x+34];
 4358              		.loc 1 864 0
 4359 09ec FB7B     		ldrb	r3, [r7, #15]	@ zero_extendqisi2
 4360 09ee FA7B     		ldrb	r2, [r7, #15]	@ zero_extendqisi2
 4361 09f0 2232     		adds	r2, r2, #34
 4362 09f2 4949     		ldr	r1, .L359+4
 4363 09f4 8A5C     		ldrb	r2, [r1, r2]
 4364 09f6 D1B2     		uxtb	r1, r2
 4365 09f8 484A     		ldr	r2, .L359+8
 4366 09fa 1344     		add	r3, r3, r2
 4367 09fc 0A46     		mov	r2, r1
 4368 09fe 9A76     		strb	r2, [r3, #26]
 865:.\Protocolo.c **** 								if(lado2.totales[1][x]==0||(lado2.totales[1][x]&0xF0)!=0xE0){
 4369              		.loc 1 865 0
 4370 0a00 FB7B     		ldrb	r3, [r7, #15]	@ zero_extendqisi2
 4371 0a02 464A     		ldr	r2, .L359+8
 4372 0a04 1344     		add	r3, r3, r2
 4373 0a06 9B7E     		ldrb	r3, [r3, #26]
 4374 0a08 DBB2     		uxtb	r3, r3
 4375 0a0a 002B     		cmp	r3, #0
 4376 0a0c 08D0     		beq	.L274
 4377              		.loc 1 865 0 is_stmt 0 discriminator 1
 4378 0a0e FB7B     		ldrb	r3, [r7, #15]	@ zero_extendqisi2
 4379 0a10 424A     		ldr	r2, .L359+8
 4380 0a12 1344     		add	r3, r3, r2
 4381 0a14 9B7E     		ldrb	r3, [r3, #26]
 4382 0a16 DBB2     		uxtb	r3, r3
 4383 0a18 03F0F003 		and	r3, r3, #240
 4384 0a1c E02B     		cmp	r3, #224
 4385 0a1e 03D0     		beq	.L275
 4386              	.L274:
 866:.\Protocolo.c **** 									Surtidor_ClearRxBuffer();
 4387              		.loc 1 866 0 is_stmt 1
 4388 0a20 FFF7FEFF 		bl	Surtidor_ClearRxBuffer
 867:.\Protocolo.c **** 									return 0;
 4389              		.loc 1 867 0
 4390 0a24 0023     		movs	r3, #0
 4391 0a26 2CE3     		b	.L165
 4392              	.L275:
 863:.\Protocolo.c **** 								lado2.totales[1][x]=Surtidor_rxBuffer[x+34];
 4393              		.loc 1 863 0 discriminator 2
 4394 0a28 FB7B     		ldrb	r3, [r7, #15]	@ zero_extendqisi2
 4395 0a2a 0133     		adds	r3, r3, #1
 4396 0a2c FB73     		strb	r3, [r7, #15]
 4397              	.L273:
 863:.\Protocolo.c **** 								lado2.totales[1][x]=Surtidor_rxBuffer[x+34];
 4398              		.loc 1 863 0 is_stmt 0 discriminator 1
 4399 0a2e FB7B     		ldrb	r3, [r7, #15]	@ zero_extendqisi2
 4400 0a30 072B     		cmp	r3, #7
ARM GAS  C:\Users\IN-002~1\AppData\Local\Temp\cchaWHVS.s 			page 96


 4401 0a32 DBD9     		bls	.L276
 868:.\Protocolo.c **** 								}								
 869:.\Protocolo.c **** 							}
 870:.\Protocolo.c **** 							for(x=0;x<=7;x++){
 4402              		.loc 1 870 0 is_stmt 1
 4403 0a34 0023     		movs	r3, #0
 4404 0a36 FB73     		strb	r3, [r7, #15]
 4405 0a38 23E0     		b	.L277
 4406              	.L280:
 871:.\Protocolo.c **** 								lado2.totales[1][x+12]=Surtidor_rxBuffer[x+43];
 4407              		.loc 1 871 0
 4408 0a3a FB7B     		ldrb	r3, [r7, #15]	@ zero_extendqisi2
 4409 0a3c 0C33     		adds	r3, r3, #12
 4410 0a3e FA7B     		ldrb	r2, [r7, #15]	@ zero_extendqisi2
 4411 0a40 2B32     		adds	r2, r2, #43
 4412 0a42 3549     		ldr	r1, .L359+4
 4413 0a44 8A5C     		ldrb	r2, [r1, r2]
 4414 0a46 D1B2     		uxtb	r1, r2
 4415 0a48 344A     		ldr	r2, .L359+8
 4416 0a4a 1344     		add	r3, r3, r2
 4417 0a4c 0A46     		mov	r2, r1
 4418 0a4e 9A76     		strb	r2, [r3, #26]
 872:.\Protocolo.c **** 								if(lado2.totales[1][x+12]==0||(lado2.totales[1][x+12]&0xF0)!=0xE0){
 4419              		.loc 1 872 0
 4420 0a50 FB7B     		ldrb	r3, [r7, #15]	@ zero_extendqisi2
 4421 0a52 0C33     		adds	r3, r3, #12
 4422 0a54 314A     		ldr	r2, .L359+8
 4423 0a56 1344     		add	r3, r3, r2
 4424 0a58 9B7E     		ldrb	r3, [r3, #26]
 4425 0a5a DBB2     		uxtb	r3, r3
 4426 0a5c 002B     		cmp	r3, #0
 4427 0a5e 09D0     		beq	.L278
 4428              		.loc 1 872 0 is_stmt 0 discriminator 1
 4429 0a60 FB7B     		ldrb	r3, [r7, #15]	@ zero_extendqisi2
 4430 0a62 0C33     		adds	r3, r3, #12
 4431 0a64 2D4A     		ldr	r2, .L359+8
 4432 0a66 1344     		add	r3, r3, r2
 4433 0a68 9B7E     		ldrb	r3, [r3, #26]
 4434 0a6a DBB2     		uxtb	r3, r3
 4435 0a6c 03F0F003 		and	r3, r3, #240
 4436 0a70 E02B     		cmp	r3, #224
 4437 0a72 03D0     		beq	.L279
 4438              	.L278:
 873:.\Protocolo.c **** 									Surtidor_ClearRxBuffer();
 4439              		.loc 1 873 0 is_stmt 1
 4440 0a74 FFF7FEFF 		bl	Surtidor_ClearRxBuffer
 874:.\Protocolo.c **** 									return 0;
 4441              		.loc 1 874 0
 4442 0a78 0023     		movs	r3, #0
 4443 0a7a 02E3     		b	.L165
 4444              	.L279:
 870:.\Protocolo.c **** 								lado2.totales[1][x+12]=Surtidor_rxBuffer[x+43];
 4445              		.loc 1 870 0 discriminator 2
 4446 0a7c FB7B     		ldrb	r3, [r7, #15]	@ zero_extendqisi2
 4447 0a7e 0133     		adds	r3, r3, #1
 4448 0a80 FB73     		strb	r3, [r7, #15]
 4449              	.L277:
ARM GAS  C:\Users\IN-002~1\AppData\Local\Temp\cchaWHVS.s 			page 97


 870:.\Protocolo.c **** 								lado2.totales[1][x+12]=Surtidor_rxBuffer[x+43];
 4450              		.loc 1 870 0 is_stmt 0 discriminator 1
 4451 0a82 FB7B     		ldrb	r3, [r7, #15]	@ zero_extendqisi2
 4452 0a84 072B     		cmp	r3, #7
 4453 0a86 D8D9     		bls	.L280
 875:.\Protocolo.c **** 								}								
 876:.\Protocolo.c **** 							}
 877:.\Protocolo.c **** 							for(x=0;x<=3;x++){
 4454              		.loc 1 877 0 is_stmt 1
 4455 0a88 0023     		movs	r3, #0
 4456 0a8a FB73     		strb	r3, [r7, #15]
 4457 0a8c 0DE0     		b	.L281
 4458              	.L282:
 878:.\Protocolo.c **** 								lado2.ppu[1][x]=Surtidor_rxBuffer[x+52];
 4459              		.loc 1 878 0 discriminator 3
 4460 0a8e FB7B     		ldrb	r3, [r7, #15]	@ zero_extendqisi2
 4461 0a90 FA7B     		ldrb	r2, [r7, #15]	@ zero_extendqisi2
 4462 0a92 3432     		adds	r2, r2, #52
 4463 0a94 2049     		ldr	r1, .L359+4
 4464 0a96 8A5C     		ldrb	r2, [r1, r2]
 4465 0a98 D1B2     		uxtb	r1, r2
 4466 0a9a 204A     		ldr	r2, .L359+8
 4467 0a9c 1344     		add	r3, r3, r2
 4468 0a9e 0A46     		mov	r2, r1
 4469 0aa0 83F84F20 		strb	r2, [r3, #79]
 877:.\Protocolo.c **** 								lado2.ppu[1][x]=Surtidor_rxBuffer[x+52];
 4470              		.loc 1 877 0 discriminator 3
 4471 0aa4 FB7B     		ldrb	r3, [r7, #15]	@ zero_extendqisi2
 4472 0aa6 0133     		adds	r3, r3, #1
 4473 0aa8 FB73     		strb	r3, [r7, #15]
 4474              	.L281:
 877:.\Protocolo.c **** 								lado2.ppu[1][x]=Surtidor_rxBuffer[x+52];
 4475              		.loc 1 877 0 is_stmt 0 discriminator 1
 4476 0aaa FB7B     		ldrb	r3, [r7, #15]	@ zero_extendqisi2
 4477 0aac 032B     		cmp	r3, #3
 4478 0aae EED9     		bls	.L282
 879:.\Protocolo.c **** 							}
 880:.\Protocolo.c ****     						Surtidor_ClearRxBuffer();
 4479              		.loc 1 880 0 is_stmt 1
 4480 0ab0 FFF7FEFF 		bl	Surtidor_ClearRxBuffer
 881:.\Protocolo.c ****     						return 2;                            
 4481              		.loc 1 881 0
 4482 0ab4 0223     		movs	r3, #2
 4483 0ab6 E4E2     		b	.L165
 4484              	.L272:
 882:.\Protocolo.c **** 						}
 883:.\Protocolo.c **** 						if(nmangueras==3){
 4485              		.loc 1 883 0
 4486 0ab8 BB79     		ldrb	r3, [r7, #6]	@ zero_extendqisi2
 4487 0aba 032B     		cmp	r3, #3
 4488 0abc 40F0DA80 		bne	.L283
 884:.\Protocolo.c **** 							for(x=0;x<=7;x++){
 4489              		.loc 1 884 0
 4490 0ac0 0023     		movs	r3, #0
 4491 0ac2 FB73     		strb	r3, [r7, #15]
 4492 0ac4 20E0     		b	.L284
 4493              	.L287:
ARM GAS  C:\Users\IN-002~1\AppData\Local\Temp\cchaWHVS.s 			page 98


 885:.\Protocolo.c **** 								lado2.totales[1][x]=Surtidor_rxBuffer[x+34];
 4494              		.loc 1 885 0
 4495 0ac6 FB7B     		ldrb	r3, [r7, #15]	@ zero_extendqisi2
 4496 0ac8 FA7B     		ldrb	r2, [r7, #15]	@ zero_extendqisi2
 4497 0aca 2232     		adds	r2, r2, #34
 4498 0acc 1249     		ldr	r1, .L359+4
 4499 0ace 8A5C     		ldrb	r2, [r1, r2]
 4500 0ad0 D1B2     		uxtb	r1, r2
 4501 0ad2 124A     		ldr	r2, .L359+8
 4502 0ad4 1344     		add	r3, r3, r2
 4503 0ad6 0A46     		mov	r2, r1
 4504 0ad8 9A76     		strb	r2, [r3, #26]
 886:.\Protocolo.c **** 								if(lado2.totales[1][x]==0||(lado2.totales[1][x]&0xF0)!=0xE0){
 4505              		.loc 1 886 0
 4506 0ada FB7B     		ldrb	r3, [r7, #15]	@ zero_extendqisi2
 4507 0adc 0F4A     		ldr	r2, .L359+8
 4508 0ade 1344     		add	r3, r3, r2
 4509 0ae0 9B7E     		ldrb	r3, [r3, #26]
 4510 0ae2 DBB2     		uxtb	r3, r3
 4511 0ae4 002B     		cmp	r3, #0
 4512 0ae6 08D0     		beq	.L285
 4513              		.loc 1 886 0 is_stmt 0 discriminator 1
 4514 0ae8 FB7B     		ldrb	r3, [r7, #15]	@ zero_extendqisi2
 4515 0aea 0C4A     		ldr	r2, .L359+8
 4516 0aec 1344     		add	r3, r3, r2
 4517 0aee 9B7E     		ldrb	r3, [r3, #26]
 4518 0af0 DBB2     		uxtb	r3, r3
 4519 0af2 03F0F003 		and	r3, r3, #240
 4520 0af6 E02B     		cmp	r3, #224
 4521 0af8 03D0     		beq	.L286
 4522              	.L285:
 887:.\Protocolo.c **** 									Surtidor_ClearRxBuffer();
 4523              		.loc 1 887 0 is_stmt 1
 4524 0afa FFF7FEFF 		bl	Surtidor_ClearRxBuffer
 888:.\Protocolo.c **** 									return 0;
 4525              		.loc 1 888 0
 4526 0afe 0023     		movs	r3, #0
 4527 0b00 BFE2     		b	.L165
 4528              	.L286:
 884:.\Protocolo.c **** 								lado2.totales[1][x]=Surtidor_rxBuffer[x+34];
 4529              		.loc 1 884 0 discriminator 2
 4530 0b02 FB7B     		ldrb	r3, [r7, #15]	@ zero_extendqisi2
 4531 0b04 0133     		adds	r3, r3, #1
 4532 0b06 FB73     		strb	r3, [r7, #15]
 4533              	.L284:
 884:.\Protocolo.c **** 								lado2.totales[1][x]=Surtidor_rxBuffer[x+34];
 4534              		.loc 1 884 0 is_stmt 0 discriminator 1
 4535 0b08 FB7B     		ldrb	r3, [r7, #15]	@ zero_extendqisi2
 4536 0b0a 072B     		cmp	r3, #7
 4537 0b0c DBD9     		bls	.L287
 889:.\Protocolo.c **** 								}								
 890:.\Protocolo.c **** 							}
 891:.\Protocolo.c **** 							for(x=0;x<=7;x++){
 4538              		.loc 1 891 0 is_stmt 1
 4539 0b0e 0023     		movs	r3, #0
 4540 0b10 FB73     		strb	r3, [r7, #15]
 4541 0b12 29E0     		b	.L288
ARM GAS  C:\Users\IN-002~1\AppData\Local\Temp\cchaWHVS.s 			page 99


 4542              	.L360:
 4543              		.align	2
 4544              	.L359:
 4545 0b14 00000000 		.word	version
 4546 0b18 00000000 		.word	Surtidor_rxBuffer
 4547 0b1c 00000000 		.word	lado2
 4548              	.L291:
 892:.\Protocolo.c **** 								lado2.totales[1][x+12]=Surtidor_rxBuffer[x+43];
 4549              		.loc 1 892 0
 4550 0b20 FB7B     		ldrb	r3, [r7, #15]	@ zero_extendqisi2
 4551 0b22 0C33     		adds	r3, r3, #12
 4552 0b24 FA7B     		ldrb	r2, [r7, #15]	@ zero_extendqisi2
 4553 0b26 2B32     		adds	r2, r2, #43
 4554 0b28 AE49     		ldr	r1, .L361
 4555 0b2a 8A5C     		ldrb	r2, [r1, r2]
 4556 0b2c D1B2     		uxtb	r1, r2
 4557 0b2e AE4A     		ldr	r2, .L361+4
 4558 0b30 1344     		add	r3, r3, r2
 4559 0b32 0A46     		mov	r2, r1
 4560 0b34 9A76     		strb	r2, [r3, #26]
 893:.\Protocolo.c **** 								if(lado2.totales[1][x+12]==0||(lado2.totales[1][x+12]&0xF0)!=0xE0){
 4561              		.loc 1 893 0
 4562 0b36 FB7B     		ldrb	r3, [r7, #15]	@ zero_extendqisi2
 4563 0b38 0C33     		adds	r3, r3, #12
 4564 0b3a AB4A     		ldr	r2, .L361+4
 4565 0b3c 1344     		add	r3, r3, r2
 4566 0b3e 9B7E     		ldrb	r3, [r3, #26]
 4567 0b40 DBB2     		uxtb	r3, r3
 4568 0b42 002B     		cmp	r3, #0
 4569 0b44 09D0     		beq	.L289
 4570              		.loc 1 893 0 is_stmt 0 discriminator 1
 4571 0b46 FB7B     		ldrb	r3, [r7, #15]	@ zero_extendqisi2
 4572 0b48 0C33     		adds	r3, r3, #12
 4573 0b4a A74A     		ldr	r2, .L361+4
 4574 0b4c 1344     		add	r3, r3, r2
 4575 0b4e 9B7E     		ldrb	r3, [r3, #26]
 4576 0b50 DBB2     		uxtb	r3, r3
 4577 0b52 03F0F003 		and	r3, r3, #240
 4578 0b56 E02B     		cmp	r3, #224
 4579 0b58 03D0     		beq	.L290
 4580              	.L289:
 894:.\Protocolo.c **** 									Surtidor_ClearRxBuffer();
 4581              		.loc 1 894 0 is_stmt 1
 4582 0b5a FFF7FEFF 		bl	Surtidor_ClearRxBuffer
 895:.\Protocolo.c **** 									return 0;
 4583              		.loc 1 895 0
 4584 0b5e 0023     		movs	r3, #0
 4585 0b60 8FE2     		b	.L165
 4586              	.L290:
 891:.\Protocolo.c **** 								lado2.totales[1][x+12]=Surtidor_rxBuffer[x+43];
 4587              		.loc 1 891 0 discriminator 2
 4588 0b62 FB7B     		ldrb	r3, [r7, #15]	@ zero_extendqisi2
 4589 0b64 0133     		adds	r3, r3, #1
 4590 0b66 FB73     		strb	r3, [r7, #15]
 4591              	.L288:
 891:.\Protocolo.c **** 								lado2.totales[1][x+12]=Surtidor_rxBuffer[x+43];
 4592              		.loc 1 891 0 is_stmt 0 discriminator 1
ARM GAS  C:\Users\IN-002~1\AppData\Local\Temp\cchaWHVS.s 			page 100


 4593 0b68 FB7B     		ldrb	r3, [r7, #15]	@ zero_extendqisi2
 4594 0b6a 072B     		cmp	r3, #7
 4595 0b6c D8D9     		bls	.L291
 896:.\Protocolo.c **** 								}								
 897:.\Protocolo.c **** 							}
 898:.\Protocolo.c **** 							for(x=0;x<=3;x++){
 4596              		.loc 1 898 0 is_stmt 1
 4597 0b6e 0023     		movs	r3, #0
 4598 0b70 FB73     		strb	r3, [r7, #15]
 4599 0b72 0DE0     		b	.L292
 4600              	.L293:
 899:.\Protocolo.c **** 								lado2.ppu[1][x]=Surtidor_rxBuffer[x+52];
 4601              		.loc 1 899 0 discriminator 3
 4602 0b74 FB7B     		ldrb	r3, [r7, #15]	@ zero_extendqisi2
 4603 0b76 FA7B     		ldrb	r2, [r7, #15]	@ zero_extendqisi2
 4604 0b78 3432     		adds	r2, r2, #52
 4605 0b7a 9A49     		ldr	r1, .L361
 4606 0b7c 8A5C     		ldrb	r2, [r1, r2]
 4607 0b7e D1B2     		uxtb	r1, r2
 4608 0b80 994A     		ldr	r2, .L361+4
 4609 0b82 1344     		add	r3, r3, r2
 4610 0b84 0A46     		mov	r2, r1
 4611 0b86 83F84F20 		strb	r2, [r3, #79]
 898:.\Protocolo.c **** 								lado2.ppu[1][x]=Surtidor_rxBuffer[x+52];
 4612              		.loc 1 898 0 discriminator 3
 4613 0b8a FB7B     		ldrb	r3, [r7, #15]	@ zero_extendqisi2
 4614 0b8c 0133     		adds	r3, r3, #1
 4615 0b8e FB73     		strb	r3, [r7, #15]
 4616              	.L292:
 898:.\Protocolo.c **** 								lado2.ppu[1][x]=Surtidor_rxBuffer[x+52];
 4617              		.loc 1 898 0 is_stmt 0 discriminator 1
 4618 0b90 FB7B     		ldrb	r3, [r7, #15]	@ zero_extendqisi2
 4619 0b92 032B     		cmp	r3, #3
 4620 0b94 EED9     		bls	.L293
 900:.\Protocolo.c **** 							}						
 901:.\Protocolo.c **** 							for(x=0;x<=7;x++){
 4621              		.loc 1 901 0 is_stmt 1
 4622 0b96 0023     		movs	r3, #0
 4623 0b98 FB73     		strb	r3, [r7, #15]
 4624 0b9a 23E0     		b	.L294
 4625              	.L297:
 902:.\Protocolo.c **** 								lado2.totales[2][x]=Surtidor_rxBuffer[x+64];
 4626              		.loc 1 902 0
 4627 0b9c FB7B     		ldrb	r3, [r7, #15]	@ zero_extendqisi2
 4628 0b9e FA7B     		ldrb	r2, [r7, #15]	@ zero_extendqisi2
 4629 0ba0 4032     		adds	r2, r2, #64
 4630 0ba2 9049     		ldr	r1, .L361
 4631 0ba4 8A5C     		ldrb	r2, [r1, r2]
 4632 0ba6 D1B2     		uxtb	r1, r2
 4633 0ba8 8F4A     		ldr	r2, .L361+4
 4634 0baa 1344     		add	r3, r3, r2
 4635 0bac 0A46     		mov	r2, r1
 4636 0bae 83F83220 		strb	r2, [r3, #50]
 903:.\Protocolo.c **** 								if(lado2.totales[2][x]==0||(lado2.totales[2][x]&0xF0)!=0xE0){
 4637              		.loc 1 903 0
 4638 0bb2 FB7B     		ldrb	r3, [r7, #15]	@ zero_extendqisi2
 4639 0bb4 8C4A     		ldr	r2, .L361+4
ARM GAS  C:\Users\IN-002~1\AppData\Local\Temp\cchaWHVS.s 			page 101


 4640 0bb6 1344     		add	r3, r3, r2
 4641 0bb8 93F83230 		ldrb	r3, [r3, #50]
 4642 0bbc DBB2     		uxtb	r3, r3
 4643 0bbe 002B     		cmp	r3, #0
 4644 0bc0 09D0     		beq	.L295
 4645              		.loc 1 903 0 is_stmt 0 discriminator 1
 4646 0bc2 FB7B     		ldrb	r3, [r7, #15]	@ zero_extendqisi2
 4647 0bc4 884A     		ldr	r2, .L361+4
 4648 0bc6 1344     		add	r3, r3, r2
 4649 0bc8 93F83230 		ldrb	r3, [r3, #50]
 4650 0bcc DBB2     		uxtb	r3, r3
 4651 0bce 03F0F003 		and	r3, r3, #240
 4652 0bd2 E02B     		cmp	r3, #224
 4653 0bd4 03D0     		beq	.L296
 4654              	.L295:
 904:.\Protocolo.c **** 									Surtidor_ClearRxBuffer();
 4655              		.loc 1 904 0 is_stmt 1
 4656 0bd6 FFF7FEFF 		bl	Surtidor_ClearRxBuffer
 905:.\Protocolo.c **** 									return 0;
 4657              		.loc 1 905 0
 4658 0bda 0023     		movs	r3, #0
 4659 0bdc 51E2     		b	.L165
 4660              	.L296:
 901:.\Protocolo.c **** 								lado2.totales[2][x]=Surtidor_rxBuffer[x+64];
 4661              		.loc 1 901 0 discriminator 2
 4662 0bde FB7B     		ldrb	r3, [r7, #15]	@ zero_extendqisi2
 4663 0be0 0133     		adds	r3, r3, #1
 4664 0be2 FB73     		strb	r3, [r7, #15]
 4665              	.L294:
 901:.\Protocolo.c **** 								lado2.totales[2][x]=Surtidor_rxBuffer[x+64];
 4666              		.loc 1 901 0 is_stmt 0 discriminator 1
 4667 0be4 FB7B     		ldrb	r3, [r7, #15]	@ zero_extendqisi2
 4668 0be6 072B     		cmp	r3, #7
 4669 0be8 D8D9     		bls	.L297
 906:.\Protocolo.c **** 								}								
 907:.\Protocolo.c **** 							}
 908:.\Protocolo.c **** 							for(x=0;x<=7;x++){
 4670              		.loc 1 908 0 is_stmt 1
 4671 0bea 0023     		movs	r3, #0
 4672 0bec FB73     		strb	r3, [r7, #15]
 4673 0bee 26E0     		b	.L298
 4674              	.L301:
 909:.\Protocolo.c **** 								lado2.totales[2][x+12]=Surtidor_rxBuffer[x+73];
 4675              		.loc 1 909 0
 4676 0bf0 FB7B     		ldrb	r3, [r7, #15]	@ zero_extendqisi2
 4677 0bf2 0C33     		adds	r3, r3, #12
 4678 0bf4 FA7B     		ldrb	r2, [r7, #15]	@ zero_extendqisi2
 4679 0bf6 4932     		adds	r2, r2, #73
 4680 0bf8 7A49     		ldr	r1, .L361
 4681 0bfa 8A5C     		ldrb	r2, [r1, r2]
 4682 0bfc D1B2     		uxtb	r1, r2
 4683 0bfe 7A4A     		ldr	r2, .L361+4
 4684 0c00 1344     		add	r3, r3, r2
 4685 0c02 0A46     		mov	r2, r1
 4686 0c04 83F83220 		strb	r2, [r3, #50]
 910:.\Protocolo.c **** 								if(lado2.totales[2][x+12]==0||(lado2.totales[2][x+12]&0xF0)!=0xE0){
 4687              		.loc 1 910 0
ARM GAS  C:\Users\IN-002~1\AppData\Local\Temp\cchaWHVS.s 			page 102


 4688 0c08 FB7B     		ldrb	r3, [r7, #15]	@ zero_extendqisi2
 4689 0c0a 0C33     		adds	r3, r3, #12
 4690 0c0c 764A     		ldr	r2, .L361+4
 4691 0c0e 1344     		add	r3, r3, r2
 4692 0c10 93F83230 		ldrb	r3, [r3, #50]
 4693 0c14 DBB2     		uxtb	r3, r3
 4694 0c16 002B     		cmp	r3, #0
 4695 0c18 0AD0     		beq	.L299
 4696              		.loc 1 910 0 is_stmt 0 discriminator 1
 4697 0c1a FB7B     		ldrb	r3, [r7, #15]	@ zero_extendqisi2
 4698 0c1c 0C33     		adds	r3, r3, #12
 4699 0c1e 724A     		ldr	r2, .L361+4
 4700 0c20 1344     		add	r3, r3, r2
 4701 0c22 93F83230 		ldrb	r3, [r3, #50]
 4702 0c26 DBB2     		uxtb	r3, r3
 4703 0c28 03F0F003 		and	r3, r3, #240
 4704 0c2c E02B     		cmp	r3, #224
 4705 0c2e 03D0     		beq	.L300
 4706              	.L299:
 911:.\Protocolo.c **** 									Surtidor_ClearRxBuffer();
 4707              		.loc 1 911 0 is_stmt 1
 4708 0c30 FFF7FEFF 		bl	Surtidor_ClearRxBuffer
 912:.\Protocolo.c **** 									return 0;
 4709              		.loc 1 912 0
 4710 0c34 0023     		movs	r3, #0
 4711 0c36 24E2     		b	.L165
 4712              	.L300:
 908:.\Protocolo.c **** 								lado2.totales[2][x+12]=Surtidor_rxBuffer[x+73];
 4713              		.loc 1 908 0 discriminator 2
 4714 0c38 FB7B     		ldrb	r3, [r7, #15]	@ zero_extendqisi2
 4715 0c3a 0133     		adds	r3, r3, #1
 4716 0c3c FB73     		strb	r3, [r7, #15]
 4717              	.L298:
 908:.\Protocolo.c **** 								lado2.totales[2][x+12]=Surtidor_rxBuffer[x+73];
 4718              		.loc 1 908 0 is_stmt 0 discriminator 1
 4719 0c3e FB7B     		ldrb	r3, [r7, #15]	@ zero_extendqisi2
 4720 0c40 072B     		cmp	r3, #7
 4721 0c42 D5D9     		bls	.L301
 913:.\Protocolo.c **** 								}								
 914:.\Protocolo.c **** 							}
 915:.\Protocolo.c **** 							for(x=0;x<=3;x++){
 4722              		.loc 1 915 0 is_stmt 1
 4723 0c44 0023     		movs	r3, #0
 4724 0c46 FB73     		strb	r3, [r7, #15]
 4725 0c48 0DE0     		b	.L302
 4726              	.L303:
 916:.\Protocolo.c **** 								lado2.ppu[2][x]=Surtidor_rxBuffer[x+82];
 4727              		.loc 1 916 0 discriminator 3
 4728 0c4a FB7B     		ldrb	r3, [r7, #15]	@ zero_extendqisi2
 4729 0c4c FA7B     		ldrb	r2, [r7, #15]	@ zero_extendqisi2
 4730 0c4e 5232     		adds	r2, r2, #82
 4731 0c50 6449     		ldr	r1, .L361
 4732 0c52 8A5C     		ldrb	r2, [r1, r2]
 4733 0c54 D1B2     		uxtb	r1, r2
 4734 0c56 644A     		ldr	r2, .L361+4
 4735 0c58 1344     		add	r3, r3, r2
 4736 0c5a 0A46     		mov	r2, r1
ARM GAS  C:\Users\IN-002~1\AppData\Local\Temp\cchaWHVS.s 			page 103


 4737 0c5c 83F85420 		strb	r2, [r3, #84]
 915:.\Protocolo.c **** 								lado2.ppu[2][x]=Surtidor_rxBuffer[x+82];
 4738              		.loc 1 915 0 discriminator 3
 4739 0c60 FB7B     		ldrb	r3, [r7, #15]	@ zero_extendqisi2
 4740 0c62 0133     		adds	r3, r3, #1
 4741 0c64 FB73     		strb	r3, [r7, #15]
 4742              	.L302:
 915:.\Protocolo.c **** 								lado2.ppu[2][x]=Surtidor_rxBuffer[x+82];
 4743              		.loc 1 915 0 is_stmt 0 discriminator 1
 4744 0c66 FB7B     		ldrb	r3, [r7, #15]	@ zero_extendqisi2
 4745 0c68 032B     		cmp	r3, #3
 4746 0c6a EED9     		bls	.L303
 917:.\Protocolo.c **** 							}
 918:.\Protocolo.c ****     						Surtidor_ClearRxBuffer();
 4747              		.loc 1 918 0 is_stmt 1
 4748 0c6c FFF7FEFF 		bl	Surtidor_ClearRxBuffer
 919:.\Protocolo.c ****     						return 3;                            
 4749              		.loc 1 919 0
 4750 0c70 0323     		movs	r3, #3
 4751 0c72 06E2     		b	.L165
 4752              	.L283:
 920:.\Protocolo.c **** 						}
 921:.\Protocolo.c **** 						Surtidor_ClearRxBuffer();
 4753              		.loc 1 921 0
 4754 0c74 FFF7FEFF 		bl	Surtidor_ClearRxBuffer
 922:.\Protocolo.c **** 						return 1;			
 4755              		.loc 1 922 0
 4756 0c78 0123     		movs	r3, #1
 4757 0c7a 02E2     		b	.L165
 4758              	.L257:
 923:.\Protocolo.c **** 					}
 924:.\Protocolo.c **** 					else{
 925:.\Protocolo.c **** 						Surtidor_ClearRxBuffer();
 4759              		.loc 1 925 0
 4760 0c7c FFF7FEFF 		bl	Surtidor_ClearRxBuffer
 926:.\Protocolo.c **** 						return 0;		
 4761              		.loc 1 926 0
 4762 0c80 0023     		movs	r3, #0
 4763 0c82 FEE1     		b	.L165
 4764              	.L256:
 927:.\Protocolo.c **** 					}
 928:.\Protocolo.c **** 				}
 929:.\Protocolo.c **** 				else{
 930:.\Protocolo.c **** 					Surtidor_ClearRxBuffer();
 4765              		.loc 1 930 0
 4766 0c84 FFF7FEFF 		bl	Surtidor_ClearRxBuffer
 931:.\Protocolo.c **** 					return 0;		
 4767              		.loc 1 931 0
 4768 0c88 0023     		movs	r3, #0
 4769 0c8a FAE1     		b	.L165
 4770              	.L254:
 932:.\Protocolo.c **** 				}				
 933:.\Protocolo.c **** 			}
 934:.\Protocolo.c **** 			else{
 935:.\Protocolo.c **** 				CyDelay(900);
 4771              		.loc 1 935 0
 4772 0c8c 4FF46170 		mov	r0, #900
ARM GAS  C:\Users\IN-002~1\AppData\Local\Temp\cchaWHVS.s 			page 104


 4773 0c90 FFF7FEFF 		bl	CyDelay
 936:.\Protocolo.c **** 				x=Surtidor_GetRxBufferSize();
 4774              		.loc 1 936 0
 4775 0c94 FFF7FEFF 		bl	Surtidor_GetRxBufferSize
 4776 0c98 0346     		mov	r3, r0
 4777 0c9a FB73     		strb	r3, [r7, #15]
 937:.\Protocolo.c **** 				if((x==46)||(x==88)||(x==130)){					
 4778              		.loc 1 937 0
 4779 0c9c FB7B     		ldrb	r3, [r7, #15]	@ zero_extendqisi2
 4780 0c9e 2E2B     		cmp	r3, #46
